
tableroPileta_STM32F103C8T6.elf:     file format elf32-littlearm

Sections:
Idx Name          Size      VMA       LMA       File off  Algn
  0 .isr_vector   0000010c  08000000  08000000  00010000  2**0
                  CONTENTS, ALLOC, LOAD, READONLY, DATA
  1 .text         00005054  0800010c  0800010c  0001010c  2**2
                  CONTENTS, ALLOC, LOAD, READONLY, CODE
  2 .rodata       00000218  08005160  08005160  00015160  2**2
                  CONTENTS, ALLOC, LOAD, READONLY, DATA
  3 .ARM.extab    00000000  08005378  08005378  00020084  2**0
                  CONTENTS
  4 .ARM          00000000  08005378  08005378  00020084  2**0
                  CONTENTS
  5 .preinit_array 00000000  08005378  08005378  00020084  2**0
                  CONTENTS, ALLOC, LOAD, DATA
  6 .init_array   00000004  08005378  08005378  00015378  2**2
                  CONTENTS, ALLOC, LOAD, DATA
  7 .fini_array   00000004  0800537c  0800537c  0001537c  2**2
                  CONTENTS, ALLOC, LOAD, DATA
  8 .data         00000084  20000000  08005380  00020000  2**2
                  CONTENTS, ALLOC, LOAD, DATA
  9 .bss          00000600  20000084  08005404  00020084  2**2
                  ALLOC
 10 ._user_heap_stack 00000604  20000684  08005404  00020684  2**0
                  ALLOC
 11 .ARM.attributes 00000029  00000000  00000000  00020084  2**0
                  CONTENTS, READONLY
 12 .debug_info   00012138  00000000  00000000  000200ad  2**0
                  CONTENTS, READONLY, DEBUGGING
 13 .debug_abbrev 000034c9  00000000  00000000  000321e5  2**0
                  CONTENTS, READONLY, DEBUGGING
 14 .debug_aranges 00001360  00000000  00000000  000356b0  2**3
                  CONTENTS, READONLY, DEBUGGING
 15 .debug_ranges 00001180  00000000  00000000  00036a10  2**3
                  CONTENTS, READONLY, DEBUGGING
 16 .debug_macro  0001686c  00000000  00000000  00037b90  2**0
                  CONTENTS, READONLY, DEBUGGING
 17 .debug_line   0001134b  00000000  00000000  0004e3fc  2**0
                  CONTENTS, READONLY, DEBUGGING
 18 .debug_str    00077688  00000000  00000000  0005f747  2**0
                  CONTENTS, READONLY, DEBUGGING
 19 .comment      0000007b  00000000  00000000  000d6dcf  2**0
                  CONTENTS, READONLY
 20 .debug_frame  00004ca4  00000000  00000000  000d6e4c  2**2
                  CONTENTS, READONLY, DEBUGGING

Disassembly of section .text:

0800010c <__do_global_dtors_aux>:
 800010c:	b510      	push	{r4, lr}
 800010e:	4c05      	ldr	r4, [pc, #20]	; (8000124 <__do_global_dtors_aux+0x18>)
 8000110:	7823      	ldrb	r3, [r4, #0]
 8000112:	b933      	cbnz	r3, 8000122 <__do_global_dtors_aux+0x16>
 8000114:	4b04      	ldr	r3, [pc, #16]	; (8000128 <__do_global_dtors_aux+0x1c>)
 8000116:	b113      	cbz	r3, 800011e <__do_global_dtors_aux+0x12>
 8000118:	4804      	ldr	r0, [pc, #16]	; (800012c <__do_global_dtors_aux+0x20>)
 800011a:	f3af 8000 	nop.w
 800011e:	2301      	movs	r3, #1
 8000120:	7023      	strb	r3, [r4, #0]
 8000122:	bd10      	pop	{r4, pc}
 8000124:	20000084 	.word	0x20000084
 8000128:	00000000 	.word	0x00000000
 800012c:	08005148 	.word	0x08005148

08000130 <frame_dummy>:
 8000130:	b508      	push	{r3, lr}
 8000132:	4b03      	ldr	r3, [pc, #12]	; (8000140 <frame_dummy+0x10>)
 8000134:	b11b      	cbz	r3, 800013e <frame_dummy+0xe>
 8000136:	4903      	ldr	r1, [pc, #12]	; (8000144 <frame_dummy+0x14>)
 8000138:	4803      	ldr	r0, [pc, #12]	; (8000148 <frame_dummy+0x18>)
 800013a:	f3af 8000 	nop.w
 800013e:	bd08      	pop	{r3, pc}
 8000140:	00000000 	.word	0x00000000
 8000144:	20000088 	.word	0x20000088
 8000148:	08005148 	.word	0x08005148

0800014c <spi_74HC165_init>:
 * La función de inicialización está modificada para trabajar con dos
 * integrados 74HC165 a la vez, tratándolos como distintos esclavos SPI.
 * Cada integrado contará con su propia función de lectura, así como sus
 * propias señales CE.
 */
void spi_74HC165_init (SPI_HandleTypeDef* hspi, GPIO_TypeDef* PLport, uint16_t PLpin, GPIO_TypeDef* CE1port, uint16_t CE1pin, GPIO_TypeDef* CE2port, uint16_t CE2pin){
 800014c:	b480      	push	{r7}
 800014e:	b085      	sub	sp, #20
 8000150:	af00      	add	r7, sp, #0
 8000152:	60f8      	str	r0, [r7, #12]
 8000154:	60b9      	str	r1, [r7, #8]
 8000156:	603b      	str	r3, [r7, #0]
 8000158:	4613      	mov	r3, r2
 800015a:	80fb      	strh	r3, [r7, #6]

	spi_handler=hspi;
 800015c:	4a0c      	ldr	r2, [pc, #48]	; (8000190 <spi_74HC165_init+0x44>)
 800015e:	68fb      	ldr	r3, [r7, #12]
 8000160:	6013      	str	r3, [r2, #0]

	portPL = PLport;
 8000162:	4a0c      	ldr	r2, [pc, #48]	; (8000194 <spi_74HC165_init+0x48>)
 8000164:	68bb      	ldr	r3, [r7, #8]
 8000166:	6013      	str	r3, [r2, #0]
	pinPL = PLpin;
 8000168:	4a0b      	ldr	r2, [pc, #44]	; (8000198 <spi_74HC165_init+0x4c>)
 800016a:	88fb      	ldrh	r3, [r7, #6]
 800016c:	8013      	strh	r3, [r2, #0]

	portCE1 = CE1port;
 800016e:	4a0b      	ldr	r2, [pc, #44]	; (800019c <spi_74HC165_init+0x50>)
 8000170:	683b      	ldr	r3, [r7, #0]
 8000172:	6013      	str	r3, [r2, #0]
	pinCE1 = CE1pin;
 8000174:	4a0a      	ldr	r2, [pc, #40]	; (80001a0 <spi_74HC165_init+0x54>)
 8000176:	8b3b      	ldrh	r3, [r7, #24]
 8000178:	8013      	strh	r3, [r2, #0]
	portCE2 = CE2port;
 800017a:	4a0a      	ldr	r2, [pc, #40]	; (80001a4 <spi_74HC165_init+0x58>)
 800017c:	69fb      	ldr	r3, [r7, #28]
 800017e:	6013      	str	r3, [r2, #0]
	pinCE2 = CE2pin;
 8000180:	4a09      	ldr	r2, [pc, #36]	; (80001a8 <spi_74HC165_init+0x5c>)
 8000182:	8c3b      	ldrh	r3, [r7, #32]
 8000184:	8013      	strh	r3, [r2, #0]

}
 8000186:	bf00      	nop
 8000188:	3714      	adds	r7, #20
 800018a:	46bd      	mov	sp, r7
 800018c:	bc80      	pop	{r7}
 800018e:	4770      	bx	lr
 8000190:	200000b8 	.word	0x200000b8
 8000194:	200000c4 	.word	0x200000c4
 8000198:	200000bc 	.word	0x200000bc
 800019c:	200000cc 	.word	0x200000cc
 80001a0:	200000c8 	.word	0x200000c8
 80001a4:	200000c0 	.word	0x200000c0
 80001a8:	200000d0 	.word	0x200000d0

080001ac <spi_74HC165_receiveBotones>:


void spi_74HC165_receiveBotones (uint8_t* pdata, uint16_t sizeData){
 80001ac:	b580      	push	{r7, lr}
 80001ae:	b082      	sub	sp, #8
 80001b0:	af00      	add	r7, sp, #0
 80001b2:	6078      	str	r0, [r7, #4]
 80001b4:	460b      	mov	r3, r1
 80001b6:	807b      	strh	r3, [r7, #2]

	//carga paralela
	HAL_GPIO_WritePin(portPL, pinPL, 0);
 80001b8:	4b15      	ldr	r3, [pc, #84]	; (8000210 <spi_74HC165_receiveBotones+0x64>)
 80001ba:	6818      	ldr	r0, [r3, #0]
 80001bc:	4b15      	ldr	r3, [pc, #84]	; (8000214 <spi_74HC165_receiveBotones+0x68>)
 80001be:	881b      	ldrh	r3, [r3, #0]
 80001c0:	2200      	movs	r2, #0
 80001c2:	4619      	mov	r1, r3
 80001c4:	f002 f929 	bl	800241a <HAL_GPIO_WritePin>
	HAL_GPIO_WritePin(portPL, pinPL, 1);
 80001c8:	4b11      	ldr	r3, [pc, #68]	; (8000210 <spi_74HC165_receiveBotones+0x64>)
 80001ca:	6818      	ldr	r0, [r3, #0]
 80001cc:	4b11      	ldr	r3, [pc, #68]	; (8000214 <spi_74HC165_receiveBotones+0x68>)
 80001ce:	881b      	ldrh	r3, [r3, #0]
 80001d0:	2201      	movs	r2, #1
 80001d2:	4619      	mov	r1, r3
 80001d4:	f002 f921 	bl	800241a <HAL_GPIO_WritePin>

	//clock enable
	HAL_GPIO_WritePin(portCE1, pinCE1, 0);
 80001d8:	4b0f      	ldr	r3, [pc, #60]	; (8000218 <spi_74HC165_receiveBotones+0x6c>)
 80001da:	6818      	ldr	r0, [r3, #0]
 80001dc:	4b0f      	ldr	r3, [pc, #60]	; (800021c <spi_74HC165_receiveBotones+0x70>)
 80001de:	881b      	ldrh	r3, [r3, #0]
 80001e0:	2200      	movs	r2, #0
 80001e2:	4619      	mov	r1, r3
 80001e4:	f002 f919 	bl	800241a <HAL_GPIO_WritePin>

	//SPI
	HAL_SPI_Receive(spi_handler, pdata, sizeData, 100);
 80001e8:	4b0d      	ldr	r3, [pc, #52]	; (8000220 <spi_74HC165_receiveBotones+0x74>)
 80001ea:	6818      	ldr	r0, [r3, #0]
 80001ec:	887a      	ldrh	r2, [r7, #2]
 80001ee:	2364      	movs	r3, #100	; 0x64
 80001f0:	6879      	ldr	r1, [r7, #4]
 80001f2:	f003 ff2e 	bl	8004052 <HAL_SPI_Receive>

	//clock disable
	HAL_GPIO_WritePin(portCE1, pinCE1, 1);
 80001f6:	4b08      	ldr	r3, [pc, #32]	; (8000218 <spi_74HC165_receiveBotones+0x6c>)
 80001f8:	6818      	ldr	r0, [r3, #0]
 80001fa:	4b08      	ldr	r3, [pc, #32]	; (800021c <spi_74HC165_receiveBotones+0x70>)
 80001fc:	881b      	ldrh	r3, [r3, #0]
 80001fe:	2201      	movs	r2, #1
 8000200:	4619      	mov	r1, r3
 8000202:	f002 f90a 	bl	800241a <HAL_GPIO_WritePin>
}
 8000206:	bf00      	nop
 8000208:	3708      	adds	r7, #8
 800020a:	46bd      	mov	sp, r7
 800020c:	bd80      	pop	{r7, pc}
 800020e:	bf00      	nop
 8000210:	200000c4 	.word	0x200000c4
 8000214:	200000bc 	.word	0x200000bc
 8000218:	200000cc 	.word	0x200000cc
 800021c:	200000c8 	.word	0x200000c8
 8000220:	200000b8 	.word	0x200000b8

08000224 <spi_74HC165_receiveTeclado>:


void spi_74HC165_receiveTeclado (uint8_t* pdata, uint16_t sizeData){
 8000224:	b580      	push	{r7, lr}
 8000226:	b082      	sub	sp, #8
 8000228:	af00      	add	r7, sp, #0
 800022a:	6078      	str	r0, [r7, #4]
 800022c:	460b      	mov	r3, r1
 800022e:	807b      	strh	r3, [r7, #2]

	//carga paralela
	HAL_GPIO_WritePin(portPL, pinPL, 0);
 8000230:	4b15      	ldr	r3, [pc, #84]	; (8000288 <spi_74HC165_receiveTeclado+0x64>)
 8000232:	6818      	ldr	r0, [r3, #0]
 8000234:	4b15      	ldr	r3, [pc, #84]	; (800028c <spi_74HC165_receiveTeclado+0x68>)
 8000236:	881b      	ldrh	r3, [r3, #0]
 8000238:	2200      	movs	r2, #0
 800023a:	4619      	mov	r1, r3
 800023c:	f002 f8ed 	bl	800241a <HAL_GPIO_WritePin>
	HAL_GPIO_WritePin(portPL, pinPL, 1);
 8000240:	4b11      	ldr	r3, [pc, #68]	; (8000288 <spi_74HC165_receiveTeclado+0x64>)
 8000242:	6818      	ldr	r0, [r3, #0]
 8000244:	4b11      	ldr	r3, [pc, #68]	; (800028c <spi_74HC165_receiveTeclado+0x68>)
 8000246:	881b      	ldrh	r3, [r3, #0]
 8000248:	2201      	movs	r2, #1
 800024a:	4619      	mov	r1, r3
 800024c:	f002 f8e5 	bl	800241a <HAL_GPIO_WritePin>

	//clock enable
	HAL_GPIO_WritePin(portCE2, pinCE2, 0);
 8000250:	4b0f      	ldr	r3, [pc, #60]	; (8000290 <spi_74HC165_receiveTeclado+0x6c>)
 8000252:	6818      	ldr	r0, [r3, #0]
 8000254:	4b0f      	ldr	r3, [pc, #60]	; (8000294 <spi_74HC165_receiveTeclado+0x70>)
 8000256:	881b      	ldrh	r3, [r3, #0]
 8000258:	2200      	movs	r2, #0
 800025a:	4619      	mov	r1, r3
 800025c:	f002 f8dd 	bl	800241a <HAL_GPIO_WritePin>

	//SPI
	HAL_SPI_Receive(spi_handler, pdata, sizeData, 100);
 8000260:	4b0d      	ldr	r3, [pc, #52]	; (8000298 <spi_74HC165_receiveTeclado+0x74>)
 8000262:	6818      	ldr	r0, [r3, #0]
 8000264:	887a      	ldrh	r2, [r7, #2]
 8000266:	2364      	movs	r3, #100	; 0x64
 8000268:	6879      	ldr	r1, [r7, #4]
 800026a:	f003 fef2 	bl	8004052 <HAL_SPI_Receive>

	//clock disable
	HAL_GPIO_WritePin(portCE2, pinCE2, 1);
 800026e:	4b08      	ldr	r3, [pc, #32]	; (8000290 <spi_74HC165_receiveTeclado+0x6c>)
 8000270:	6818      	ldr	r0, [r3, #0]
 8000272:	4b08      	ldr	r3, [pc, #32]	; (8000294 <spi_74HC165_receiveTeclado+0x70>)
 8000274:	881b      	ldrh	r3, [r3, #0]
 8000276:	2201      	movs	r2, #1
 8000278:	4619      	mov	r1, r3
 800027a:	f002 f8ce 	bl	800241a <HAL_GPIO_WritePin>
}
 800027e:	bf00      	nop
 8000280:	3708      	adds	r7, #8
 8000282:	46bd      	mov	sp, r7
 8000284:	bd80      	pop	{r7, pc}
 8000286:	bf00      	nop
 8000288:	200000c4 	.word	0x200000c4
 800028c:	200000bc 	.word	0x200000bc
 8000290:	200000c0 	.word	0x200000c0
 8000294:	200000d0 	.word	0x200000d0
 8000298:	200000b8 	.word	0x200000b8

0800029c <spi_74HC595_init>:
SPI_HandleTypeDef* spi_handler;
GPIO_TypeDef* portST;
uint16_t pinST;


void spi_74HC595_init (SPI_HandleTypeDef* hspi, GPIO_TypeDef* STport, uint16_t STpin){
 800029c:	b580      	push	{r7, lr}
 800029e:	b084      	sub	sp, #16
 80002a0:	af00      	add	r7, sp, #0
 80002a2:	60f8      	str	r0, [r7, #12]
 80002a4:	60b9      	str	r1, [r7, #8]
 80002a6:	4613      	mov	r3, r2
 80002a8:	80fb      	strh	r3, [r7, #6]

	spi_handler =hspi;
 80002aa:	4a0a      	ldr	r2, [pc, #40]	; (80002d4 <spi_74HC595_init+0x38>)
 80002ac:	68fb      	ldr	r3, [r7, #12]
 80002ae:	6013      	str	r3, [r2, #0]

	portST = STport;
 80002b0:	4a09      	ldr	r2, [pc, #36]	; (80002d8 <spi_74HC595_init+0x3c>)
 80002b2:	68bb      	ldr	r3, [r7, #8]
 80002b4:	6013      	str	r3, [r2, #0]
	pinST = STpin;
 80002b6:	4a09      	ldr	r2, [pc, #36]	; (80002dc <spi_74HC595_init+0x40>)
 80002b8:	88fb      	ldrh	r3, [r7, #6]
 80002ba:	8013      	strh	r3, [r2, #0]

	HAL_GPIO_WritePin(portST, pinST, 0);
 80002bc:	4b06      	ldr	r3, [pc, #24]	; (80002d8 <spi_74HC595_init+0x3c>)
 80002be:	6818      	ldr	r0, [r3, #0]
 80002c0:	4b06      	ldr	r3, [pc, #24]	; (80002dc <spi_74HC595_init+0x40>)
 80002c2:	881b      	ldrh	r3, [r3, #0]
 80002c4:	2200      	movs	r2, #0
 80002c6:	4619      	mov	r1, r3
 80002c8:	f002 f8a7 	bl	800241a <HAL_GPIO_WritePin>

} //end spi_74HC595_init()
 80002cc:	bf00      	nop
 80002ce:	3710      	adds	r7, #16
 80002d0:	46bd      	mov	sp, r7
 80002d2:	bd80      	pop	{r7, pc}
 80002d4:	200000b8 	.word	0x200000b8
 80002d8:	200000d8 	.word	0x200000d8
 80002dc:	200000d4 	.word	0x200000d4

080002e0 <spi_74HC595_Transmit>:


void spi_74HC595_Transmit (uint8_t* pdata, uint16_t sizeData){
 80002e0:	b580      	push	{r7, lr}
 80002e2:	b082      	sub	sp, #8
 80002e4:	af00      	add	r7, sp, #0
 80002e6:	6078      	str	r0, [r7, #4]
 80002e8:	460b      	mov	r3, r1
 80002ea:	807b      	strh	r3, [r7, #2]

	HAL_SPI_Transmit(spi_handler, pdata, sizeData, 100);
 80002ec:	4b0d      	ldr	r3, [pc, #52]	; (8000324 <spi_74HC595_Transmit+0x44>)
 80002ee:	6818      	ldr	r0, [r3, #0]
 80002f0:	887a      	ldrh	r2, [r7, #2]
 80002f2:	2364      	movs	r3, #100	; 0x64
 80002f4:	6879      	ldr	r1, [r7, #4]
 80002f6:	f003 fd78 	bl	8003dea <HAL_SPI_Transmit>
	HAL_GPIO_WritePin(portST, pinST, 1);
 80002fa:	4b0b      	ldr	r3, [pc, #44]	; (8000328 <spi_74HC595_Transmit+0x48>)
 80002fc:	6818      	ldr	r0, [r3, #0]
 80002fe:	4b0b      	ldr	r3, [pc, #44]	; (800032c <spi_74HC595_Transmit+0x4c>)
 8000300:	881b      	ldrh	r3, [r3, #0]
 8000302:	2201      	movs	r2, #1
 8000304:	4619      	mov	r1, r3
 8000306:	f002 f888 	bl	800241a <HAL_GPIO_WritePin>
//	HAL_Delay(1);
	HAL_GPIO_WritePin(portST, pinST, 0);
 800030a:	4b07      	ldr	r3, [pc, #28]	; (8000328 <spi_74HC595_Transmit+0x48>)
 800030c:	6818      	ldr	r0, [r3, #0]
 800030e:	4b07      	ldr	r3, [pc, #28]	; (800032c <spi_74HC595_Transmit+0x4c>)
 8000310:	881b      	ldrh	r3, [r3, #0]
 8000312:	2200      	movs	r2, #0
 8000314:	4619      	mov	r1, r3
 8000316:	f002 f880 	bl	800241a <HAL_GPIO_WritePin>

} //end spi_74HC595_transmit()
 800031a:	bf00      	nop
 800031c:	3708      	adds	r7, #8
 800031e:	46bd      	mov	sp, r7
 8000320:	bd80      	pop	{r7, pc}
 8000322:	bf00      	nop
 8000324:	200000b8 	.word	0x200000b8
 8000328:	200000d8 	.word	0x200000d8
 800032c:	200000d4 	.word	0x200000d4

08000330 <turnONFila>:
uint32_t read_input, last_input, fall_input, rise_input;

uint16_t write_output;


void turnONFila (uint8_t filaNum){
 8000330:	b580      	push	{r7, lr}
 8000332:	b082      	sub	sp, #8
 8000334:	af00      	add	r7, sp, #0
 8000336:	4603      	mov	r3, r0
 8000338:	71fb      	strb	r3, [r7, #7]

	switch (filaNum){
 800033a:	79fb      	ldrb	r3, [r7, #7]
 800033c:	2b03      	cmp	r3, #3
 800033e:	d862      	bhi.n	8000406 <turnONFila+0xd6>
 8000340:	a201      	add	r2, pc, #4	; (adr r2, 8000348 <turnONFila+0x18>)
 8000342:	f852 f023 	ldr.w	pc, [r2, r3, lsl #2]
 8000346:	bf00      	nop
 8000348:	08000359 	.word	0x08000359
 800034c:	08000385 	.word	0x08000385
 8000350:	080003b1 	.word	0x080003b1
 8000354:	080003dd 	.word	0x080003dd
		case 0:
			//pongo en 0 la fila 0; resto en 1 (LOGICA NEGATIVA).
			HAL_GPIO_WritePin(OUT_fila0_GPIO_Port, OUT_fila0_Pin, 0);
 8000358:	2200      	movs	r2, #0
 800035a:	2120      	movs	r1, #32
 800035c:	482c      	ldr	r0, [pc, #176]	; (8000410 <turnONFila+0xe0>)
 800035e:	f002 f85c 	bl	800241a <HAL_GPIO_WritePin>
			HAL_GPIO_WritePin(OUT_fila1_GPIO_Port, OUT_fila1_Pin, 1);
 8000362:	2201      	movs	r2, #1
 8000364:	2110      	movs	r1, #16
 8000366:	482a      	ldr	r0, [pc, #168]	; (8000410 <turnONFila+0xe0>)
 8000368:	f002 f857 	bl	800241a <HAL_GPIO_WritePin>
			HAL_GPIO_WritePin(OUT_fila2_GPIO_Port, OUT_fila2_Pin, 1);
 800036c:	2201      	movs	r2, #1
 800036e:	2108      	movs	r1, #8
 8000370:	4827      	ldr	r0, [pc, #156]	; (8000410 <turnONFila+0xe0>)
 8000372:	f002 f852 	bl	800241a <HAL_GPIO_WritePin>
			HAL_GPIO_WritePin(OUT_fila3_GPIO_Port, OUT_fila3_Pin, 1);
 8000376:	2201      	movs	r2, #1
 8000378:	f44f 4100 	mov.w	r1, #32768	; 0x8000
 800037c:	4825      	ldr	r0, [pc, #148]	; (8000414 <turnONFila+0xe4>)
 800037e:	f002 f84c 	bl	800241a <HAL_GPIO_WritePin>
		break;
 8000382:	e041      	b.n	8000408 <turnONFila+0xd8>
		case 1:
			//pongo en 0 la fila 1; resto en 1 (LOGICA NEGATIVA).
			HAL_GPIO_WritePin(OUT_fila0_GPIO_Port, OUT_fila0_Pin, 1);
 8000384:	2201      	movs	r2, #1
 8000386:	2120      	movs	r1, #32
 8000388:	4821      	ldr	r0, [pc, #132]	; (8000410 <turnONFila+0xe0>)
 800038a:	f002 f846 	bl	800241a <HAL_GPIO_WritePin>
			HAL_GPIO_WritePin(OUT_fila1_GPIO_Port, OUT_fila1_Pin, 0);
 800038e:	2200      	movs	r2, #0
 8000390:	2110      	movs	r1, #16
 8000392:	481f      	ldr	r0, [pc, #124]	; (8000410 <turnONFila+0xe0>)
 8000394:	f002 f841 	bl	800241a <HAL_GPIO_WritePin>
			HAL_GPIO_WritePin(OUT_fila2_GPIO_Port, OUT_fila2_Pin, 1);
 8000398:	2201      	movs	r2, #1
 800039a:	2108      	movs	r1, #8
 800039c:	481c      	ldr	r0, [pc, #112]	; (8000410 <turnONFila+0xe0>)
 800039e:	f002 f83c 	bl	800241a <HAL_GPIO_WritePin>
			HAL_GPIO_WritePin(OUT_fila3_GPIO_Port, OUT_fila3_Pin, 1);
 80003a2:	2201      	movs	r2, #1
 80003a4:	f44f 4100 	mov.w	r1, #32768	; 0x8000
 80003a8:	481a      	ldr	r0, [pc, #104]	; (8000414 <turnONFila+0xe4>)
 80003aa:	f002 f836 	bl	800241a <HAL_GPIO_WritePin>
		break;
 80003ae:	e02b      	b.n	8000408 <turnONFila+0xd8>
		case 2:
			//pongo en 0 la fila 2; resto en 1 (LOGICA NEGATIVA).
			HAL_GPIO_WritePin(OUT_fila0_GPIO_Port, OUT_fila0_Pin, 1);
 80003b0:	2201      	movs	r2, #1
 80003b2:	2120      	movs	r1, #32
 80003b4:	4816      	ldr	r0, [pc, #88]	; (8000410 <turnONFila+0xe0>)
 80003b6:	f002 f830 	bl	800241a <HAL_GPIO_WritePin>
			HAL_GPIO_WritePin(OUT_fila1_GPIO_Port, OUT_fila1_Pin, 1);
 80003ba:	2201      	movs	r2, #1
 80003bc:	2110      	movs	r1, #16
 80003be:	4814      	ldr	r0, [pc, #80]	; (8000410 <turnONFila+0xe0>)
 80003c0:	f002 f82b 	bl	800241a <HAL_GPIO_WritePin>
			HAL_GPIO_WritePin(OUT_fila2_GPIO_Port, OUT_fila2_Pin, 0);
 80003c4:	2200      	movs	r2, #0
 80003c6:	2108      	movs	r1, #8
 80003c8:	4811      	ldr	r0, [pc, #68]	; (8000410 <turnONFila+0xe0>)
 80003ca:	f002 f826 	bl	800241a <HAL_GPIO_WritePin>
			HAL_GPIO_WritePin(OUT_fila3_GPIO_Port, OUT_fila3_Pin, 1);
 80003ce:	2201      	movs	r2, #1
 80003d0:	f44f 4100 	mov.w	r1, #32768	; 0x8000
 80003d4:	480f      	ldr	r0, [pc, #60]	; (8000414 <turnONFila+0xe4>)
 80003d6:	f002 f820 	bl	800241a <HAL_GPIO_WritePin>
		break;
 80003da:	e015      	b.n	8000408 <turnONFila+0xd8>
		case 3:
			//pongo en 0 la fila 3; resto en 1 (LOGICA NEGATIVA).
			HAL_GPIO_WritePin(OUT_fila0_GPIO_Port, OUT_fila0_Pin, 1);
 80003dc:	2201      	movs	r2, #1
 80003de:	2120      	movs	r1, #32
 80003e0:	480b      	ldr	r0, [pc, #44]	; (8000410 <turnONFila+0xe0>)
 80003e2:	f002 f81a 	bl	800241a <HAL_GPIO_WritePin>
			HAL_GPIO_WritePin(OUT_fila1_GPIO_Port, OUT_fila1_Pin, 1);
 80003e6:	2201      	movs	r2, #1
 80003e8:	2110      	movs	r1, #16
 80003ea:	4809      	ldr	r0, [pc, #36]	; (8000410 <turnONFila+0xe0>)
 80003ec:	f002 f815 	bl	800241a <HAL_GPIO_WritePin>
			HAL_GPIO_WritePin(OUT_fila2_GPIO_Port, OUT_fila2_Pin, 1);
 80003f0:	2201      	movs	r2, #1
 80003f2:	2108      	movs	r1, #8
 80003f4:	4806      	ldr	r0, [pc, #24]	; (8000410 <turnONFila+0xe0>)
 80003f6:	f002 f810 	bl	800241a <HAL_GPIO_WritePin>
			HAL_GPIO_WritePin(OUT_fila3_GPIO_Port, OUT_fila3_Pin, 0);
 80003fa:	2200      	movs	r2, #0
 80003fc:	f44f 4100 	mov.w	r1, #32768	; 0x8000
 8000400:	4804      	ldr	r0, [pc, #16]	; (8000414 <turnONFila+0xe4>)
 8000402:	f002 f80a 	bl	800241a <HAL_GPIO_WritePin>
		default:
		break;
 8000406:	bf00      	nop
	}//end witch
}//end turnONFila
 8000408:	bf00      	nop
 800040a:	3708      	adds	r7, #8
 800040c:	46bd      	mov	sp, r7
 800040e:	bd80      	pop	{r7, pc}
 8000410:	40010c00 	.word	0x40010c00
 8000414:	40010800 	.word	0x40010800

08000418 <lecturaTeclas>:


void lecturaTeclas (void){
 8000418:	b580      	push	{r7, lr}
 800041a:	b082      	sub	sp, #8
 800041c:	af00      	add	r7, sp, #0

	last_input = read_input;
 800041e:	4b1b      	ldr	r3, [pc, #108]	; (800048c <lecturaTeclas+0x74>)
 8000420:	681b      	ldr	r3, [r3, #0]
 8000422:	4a1b      	ldr	r2, [pc, #108]	; (8000490 <lecturaTeclas+0x78>)
 8000424:	6013      	str	r3, [r2, #0]

	//pulsadores:
	spi_74HC165_receiveBotones (&read_teclas, 1);
 8000426:	2101      	movs	r1, #1
 8000428:	481a      	ldr	r0, [pc, #104]	; (8000494 <lecturaTeclas+0x7c>)
 800042a:	f7ff febf 	bl	80001ac <spi_74HC165_receiveBotones>

	//teclado matricial:

	for (uint8_t i = 0; i < 4; i++){
 800042e:	2300      	movs	r3, #0
 8000430:	71fb      	strb	r3, [r7, #7]
 8000432:	e00d      	b.n	8000450 <lecturaTeclas+0x38>
		turnONFila(i);
 8000434:	79fb      	ldrb	r3, [r7, #7]
 8000436:	4618      	mov	r0, r3
 8000438:	f7ff ff7a 	bl	8000330 <turnONFila>
		spi_74HC165_receiveTeclado(&read_teclado[i], 1);
 800043c:	79fb      	ldrb	r3, [r7, #7]
 800043e:	4a16      	ldr	r2, [pc, #88]	; (8000498 <lecturaTeclas+0x80>)
 8000440:	4413      	add	r3, r2
 8000442:	2101      	movs	r1, #1
 8000444:	4618      	mov	r0, r3
 8000446:	f7ff feed 	bl	8000224 <spi_74HC165_receiveTeclado>
	for (uint8_t i = 0; i < 4; i++){
 800044a:	79fb      	ldrb	r3, [r7, #7]
 800044c:	3301      	adds	r3, #1
 800044e:	71fb      	strb	r3, [r7, #7]
 8000450:	79fb      	ldrb	r3, [r7, #7]
 8000452:	2b03      	cmp	r3, #3
 8000454:	d9ee      	bls.n	8000434 <lecturaTeclas+0x1c>
	}//end for i

	read_input = (uint32_t) (read_teclas |
 8000456:	4b0f      	ldr	r3, [pc, #60]	; (8000494 <lecturaTeclas+0x7c>)
 8000458:	781b      	ldrb	r3, [r3, #0]
 800045a:	461a      	mov	r2, r3
							(read_teclado[0] << 6) |
 800045c:	4b0e      	ldr	r3, [pc, #56]	; (8000498 <lecturaTeclas+0x80>)
 800045e:	781b      	ldrb	r3, [r3, #0]
 8000460:	019b      	lsls	r3, r3, #6
	read_input = (uint32_t) (read_teclas |
 8000462:	431a      	orrs	r2, r3
							(read_teclado[1] << 10) |
 8000464:	4b0c      	ldr	r3, [pc, #48]	; (8000498 <lecturaTeclas+0x80>)
 8000466:	785b      	ldrb	r3, [r3, #1]
 8000468:	029b      	lsls	r3, r3, #10
							(read_teclado[0] << 6) |
 800046a:	431a      	orrs	r2, r3
							(read_teclado[2] << 14) |
 800046c:	4b0a      	ldr	r3, [pc, #40]	; (8000498 <lecturaTeclas+0x80>)
 800046e:	789b      	ldrb	r3, [r3, #2]
 8000470:	039b      	lsls	r3, r3, #14
							(read_teclado[1] << 10) |
 8000472:	431a      	orrs	r2, r3
							(read_teclado[3] << 18));
 8000474:	4b08      	ldr	r3, [pc, #32]	; (8000498 <lecturaTeclas+0x80>)
 8000476:	78db      	ldrb	r3, [r3, #3]
 8000478:	049b      	lsls	r3, r3, #18
							(read_teclado[2] << 14) |
 800047a:	4313      	orrs	r3, r2
	read_input = (uint32_t) (read_teclas |
 800047c:	461a      	mov	r2, r3
 800047e:	4b03      	ldr	r3, [pc, #12]	; (800048c <lecturaTeclas+0x74>)
 8000480:	601a      	str	r2, [r3, #0]

} //end lecturaTeclas()
 8000482:	bf00      	nop
 8000484:	3708      	adds	r7, #8
 8000486:	46bd      	mov	sp, r7
 8000488:	bd80      	pop	{r7, pc}
 800048a:	bf00      	nop
 800048c:	200000e4 	.word	0x200000e4
 8000490:	20000108 	.word	0x20000108
 8000494:	2000010c 	.word	0x2000010c
 8000498:	200000e0 	.word	0x200000e0

0800049c <update_teclas>:


void update_teclas(void){ //ESTADO DE LAS TECLAS CON LOGICA NEGATIVA
 800049c:	b480      	push	{r7}
 800049e:	af00      	add	r7, sp, #0


	fall_input = last_input & ~read_input;
 80004a0:	4b09      	ldr	r3, [pc, #36]	; (80004c8 <update_teclas+0x2c>)
 80004a2:	681b      	ldr	r3, [r3, #0]
 80004a4:	43da      	mvns	r2, r3
 80004a6:	4b09      	ldr	r3, [pc, #36]	; (80004cc <update_teclas+0x30>)
 80004a8:	681b      	ldr	r3, [r3, #0]
 80004aa:	4013      	ands	r3, r2
 80004ac:	4a08      	ldr	r2, [pc, #32]	; (80004d0 <update_teclas+0x34>)
 80004ae:	6013      	str	r3, [r2, #0]
	rise_input = ~last_input & read_input;
 80004b0:	4b06      	ldr	r3, [pc, #24]	; (80004cc <update_teclas+0x30>)
 80004b2:	681b      	ldr	r3, [r3, #0]
 80004b4:	43da      	mvns	r2, r3
 80004b6:	4b04      	ldr	r3, [pc, #16]	; (80004c8 <update_teclas+0x2c>)
 80004b8:	681b      	ldr	r3, [r3, #0]
 80004ba:	4013      	ands	r3, r2
 80004bc:	4a05      	ldr	r2, [pc, #20]	; (80004d4 <update_teclas+0x38>)
 80004be:	6013      	str	r3, [r2, #0]



} //end teclas
 80004c0:	bf00      	nop
 80004c2:	46bd      	mov	sp, r7
 80004c4:	bc80      	pop	{r7}
 80004c6:	4770      	bx	lr
 80004c8:	200000e4 	.word	0x200000e4
 80004cc:	20000108 	.word	0x20000108
 80004d0:	200000e8 	.word	0x200000e8
 80004d4:	200000ec 	.word	0x200000ec

080004d8 <getStatBoton>:


T_INPUT getStatBoton (T_POS_INPUT b){
 80004d8:	b480      	push	{r7}
 80004da:	b083      	sub	sp, #12
 80004dc:	af00      	add	r7, sp, #0
 80004de:	4603      	mov	r3, r0
 80004e0:	71fb      	strb	r3, [r7, #7]

	if ( (fall_input & (1 << b)) != 0)
 80004e2:	79fb      	ldrb	r3, [r7, #7]
 80004e4:	2201      	movs	r2, #1
 80004e6:	fa02 f303 	lsl.w	r3, r2, r3
 80004ea:	461a      	mov	r2, r3
 80004ec:	4b17      	ldr	r3, [pc, #92]	; (800054c <getStatBoton+0x74>)
 80004ee:	681b      	ldr	r3, [r3, #0]
 80004f0:	4013      	ands	r3, r2
 80004f2:	2b00      	cmp	r3, #0
 80004f4:	d001      	beq.n	80004fa <getStatBoton+0x22>
		return FALL;
 80004f6:	2302      	movs	r3, #2
 80004f8:	e022      	b.n	8000540 <getStatBoton+0x68>

	if (rise_input & (1 << b) != 0)
 80004fa:	79fb      	ldrb	r3, [r7, #7]
 80004fc:	2201      	movs	r2, #1
 80004fe:	fa02 f303 	lsl.w	r3, r2, r3
 8000502:	2b00      	cmp	r3, #0
 8000504:	bf14      	ite	ne
 8000506:	2301      	movne	r3, #1
 8000508:	2300      	moveq	r3, #0
 800050a:	b2db      	uxtb	r3, r3
 800050c:	461a      	mov	r2, r3
 800050e:	4b10      	ldr	r3, [pc, #64]	; (8000550 <getStatBoton+0x78>)
 8000510:	681b      	ldr	r3, [r3, #0]
 8000512:	4013      	ands	r3, r2
 8000514:	2b00      	cmp	r3, #0
 8000516:	d001      	beq.n	800051c <getStatBoton+0x44>
		return RISE;
 8000518:	2303      	movs	r3, #3
 800051a:	e011      	b.n	8000540 <getStatBoton+0x68>

	if (read_input & (1 << b) != 0)
 800051c:	79fb      	ldrb	r3, [r7, #7]
 800051e:	2201      	movs	r2, #1
 8000520:	fa02 f303 	lsl.w	r3, r2, r3
 8000524:	2b00      	cmp	r3, #0
 8000526:	bf14      	ite	ne
 8000528:	2301      	movne	r3, #1
 800052a:	2300      	moveq	r3, #0
 800052c:	b2db      	uxtb	r3, r3
 800052e:	461a      	mov	r2, r3
 8000530:	4b08      	ldr	r3, [pc, #32]	; (8000554 <getStatBoton+0x7c>)
 8000532:	681b      	ldr	r3, [r3, #0]
 8000534:	4013      	ands	r3, r2
 8000536:	2b00      	cmp	r3, #0
 8000538:	d001      	beq.n	800053e <getStatBoton+0x66>
		return HIGH_L;
 800053a:	2301      	movs	r3, #1
 800053c:	e000      	b.n	8000540 <getStatBoton+0x68>

	return LOW_L;
 800053e:	2300      	movs	r3, #0

} //end getStatBoton()
 8000540:	4618      	mov	r0, r3
 8000542:	370c      	adds	r7, #12
 8000544:	46bd      	mov	sp, r7
 8000546:	bc80      	pop	{r7}
 8000548:	4770      	bx	lr
 800054a:	bf00      	nop
 800054c:	200000e8 	.word	0x200000e8
 8000550:	200000ec 	.word	0x200000ec
 8000554:	200000e4 	.word	0x200000e4

08000558 <setOutput>:

	return -1;
} //end getNumber()


void setOutput (T_POS_OUTPUT s, uint8_t val){
 8000558:	b480      	push	{r7}
 800055a:	b083      	sub	sp, #12
 800055c:	af00      	add	r7, sp, #0
 800055e:	4603      	mov	r3, r0
 8000560:	460a      	mov	r2, r1
 8000562:	71fb      	strb	r3, [r7, #7]
 8000564:	4613      	mov	r3, r2
 8000566:	71bb      	strb	r3, [r7, #6]

	if (val != 0){
 8000568:	79bb      	ldrb	r3, [r7, #6]
 800056a:	2b00      	cmp	r3, #0
 800056c:	d00b      	beq.n	8000586 <setOutput+0x2e>
		write_output |= (uint16_t)(1 << s);
 800056e:	79fb      	ldrb	r3, [r7, #7]
 8000570:	2201      	movs	r2, #1
 8000572:	fa02 f303 	lsl.w	r3, r2, r3
 8000576:	b29a      	uxth	r2, r3
 8000578:	4b0c      	ldr	r3, [pc, #48]	; (80005ac <setOutput+0x54>)
 800057a:	881b      	ldrh	r3, [r3, #0]
 800057c:	4313      	orrs	r3, r2
 800057e:	b29a      	uxth	r2, r3
 8000580:	4b0a      	ldr	r3, [pc, #40]	; (80005ac <setOutput+0x54>)
 8000582:	801a      	strh	r2, [r3, #0]
		return;
 8000584:	e00e      	b.n	80005a4 <setOutput+0x4c>
	}else{
		write_output &= ~( (uint16_t)(1 << s) );
 8000586:	79fb      	ldrb	r3, [r7, #7]
 8000588:	2201      	movs	r2, #1
 800058a:	fa02 f303 	lsl.w	r3, r2, r3
 800058e:	b21b      	sxth	r3, r3
 8000590:	43db      	mvns	r3, r3
 8000592:	b21a      	sxth	r2, r3
 8000594:	4b05      	ldr	r3, [pc, #20]	; (80005ac <setOutput+0x54>)
 8000596:	881b      	ldrh	r3, [r3, #0]
 8000598:	b21b      	sxth	r3, r3
 800059a:	4013      	ands	r3, r2
 800059c:	b21b      	sxth	r3, r3
 800059e:	b29a      	uxth	r2, r3
 80005a0:	4b02      	ldr	r3, [pc, #8]	; (80005ac <setOutput+0x54>)
 80005a2:	801a      	strh	r2, [r3, #0]
	}

} //end setOutput()
 80005a4:	370c      	adds	r7, #12
 80005a6:	46bd      	mov	sp, r7
 80005a8:	bc80      	pop	{r7}
 80005aa:	4770      	bx	lr
 80005ac:	200000dc 	.word	0x200000dc

080005b0 <toggleOutput>:

void toggleOutput (T_POS_OUTPUT s){
 80005b0:	b480      	push	{r7}
 80005b2:	b083      	sub	sp, #12
 80005b4:	af00      	add	r7, sp, #0
 80005b6:	4603      	mov	r3, r0
 80005b8:	71fb      	strb	r3, [r7, #7]

	write_output ^= (uint16_t)(1 << s);
 80005ba:	79fb      	ldrb	r3, [r7, #7]
 80005bc:	2201      	movs	r2, #1
 80005be:	fa02 f303 	lsl.w	r3, r2, r3
 80005c2:	b29a      	uxth	r2, r3
 80005c4:	4b05      	ldr	r3, [pc, #20]	; (80005dc <toggleOutput+0x2c>)
 80005c6:	881b      	ldrh	r3, [r3, #0]
 80005c8:	4053      	eors	r3, r2
 80005ca:	b29a      	uxth	r2, r3
 80005cc:	4b03      	ldr	r3, [pc, #12]	; (80005dc <toggleOutput+0x2c>)
 80005ce:	801a      	strh	r2, [r3, #0]

} //end toggleOutput()
 80005d0:	bf00      	nop
 80005d2:	370c      	adds	r7, #12
 80005d4:	46bd      	mov	sp, r7
 80005d6:	bc80      	pop	{r7}
 80005d8:	4770      	bx	lr
 80005da:	bf00      	nop
 80005dc:	200000dc 	.word	0x200000dc

080005e0 <update_outputs>:


void update_outputs (void){
 80005e0:	b580      	push	{r7, lr}
 80005e2:	af00      	add	r7, sp, #0

	spi_74HC595_Transmit( (uint8_t*)&write_output, 2); // 2 bytes.
 80005e4:	2102      	movs	r1, #2
 80005e6:	4802      	ldr	r0, [pc, #8]	; (80005f0 <update_outputs+0x10>)
 80005e8:	f7ff fe7a 	bl	80002e0 <spi_74HC595_Transmit>

}
 80005ec:	bf00      	nop
 80005ee:	bd80      	pop	{r7, pc}
 80005f0:	200000dc 	.word	0x200000dc

080005f4 <SendByteSPI>:


// A replacement for SPI_TRANSMIT

void SendByteSPI(uint8_t byte)
{
 80005f4:	b580      	push	{r7, lr}
 80005f6:	b084      	sub	sp, #16
 80005f8:	af00      	add	r7, sp, #0
 80005fa:	4603      	mov	r3, r0
 80005fc:	71fb      	strb	r3, [r7, #7]
	for(int i=0;i<8;i++)
 80005fe:	2300      	movs	r3, #0
 8000600:	60fb      	str	r3, [r7, #12]
 8000602:	e01f      	b.n	8000644 <SendByteSPI+0x50>
	{
		if((byte<<i)&0x80)
 8000604:	79fa      	ldrb	r2, [r7, #7]
 8000606:	68fb      	ldr	r3, [r7, #12]
 8000608:	fa02 f303 	lsl.w	r3, r2, r3
 800060c:	f003 0380 	and.w	r3, r3, #128	; 0x80
 8000610:	2b00      	cmp	r3, #0
 8000612:	d005      	beq.n	8000620 <SendByteSPI+0x2c>
			{
				HAL_GPIO_WritePin(SID_PORT, SID_PIN, GPIO_PIN_SET);  // SID=1  OR MOSI
 8000614:	2201      	movs	r2, #1
 8000616:	2180      	movs	r1, #128	; 0x80
 8000618:	480e      	ldr	r0, [pc, #56]	; (8000654 <SendByteSPI+0x60>)
 800061a:	f001 fefe 	bl	800241a <HAL_GPIO_WritePin>
 800061e:	e004      	b.n	800062a <SendByteSPI+0x36>
			}

		else HAL_GPIO_WritePin(SID_PORT, SID_PIN, GPIO_PIN_RESET);  // SID=0
 8000620:	2200      	movs	r2, #0
 8000622:	2180      	movs	r1, #128	; 0x80
 8000624:	480b      	ldr	r0, [pc, #44]	; (8000654 <SendByteSPI+0x60>)
 8000626:	f001 fef8 	bl	800241a <HAL_GPIO_WritePin>

		HAL_GPIO_WritePin(SCLK_PORT, SCLK_PIN, GPIO_PIN_RESET);  // SCLK =0  OR SCK
 800062a:	2200      	movs	r2, #0
 800062c:	2120      	movs	r1, #32
 800062e:	4809      	ldr	r0, [pc, #36]	; (8000654 <SendByteSPI+0x60>)
 8000630:	f001 fef3 	bl	800241a <HAL_GPIO_WritePin>

		HAL_GPIO_WritePin(SCLK_PORT, SCLK_PIN, GPIO_PIN_SET);  // SCLK=1
 8000634:	2201      	movs	r2, #1
 8000636:	2120      	movs	r1, #32
 8000638:	4806      	ldr	r0, [pc, #24]	; (8000654 <SendByteSPI+0x60>)
 800063a:	f001 feee 	bl	800241a <HAL_GPIO_WritePin>
	for(int i=0;i<8;i++)
 800063e:	68fb      	ldr	r3, [r7, #12]
 8000640:	3301      	adds	r3, #1
 8000642:	60fb      	str	r3, [r7, #12]
 8000644:	68fb      	ldr	r3, [r7, #12]
 8000646:	2b07      	cmp	r3, #7
 8000648:	dddc      	ble.n	8000604 <SendByteSPI+0x10>

	}
}
 800064a:	bf00      	nop
 800064c:	3710      	adds	r7, #16
 800064e:	46bd      	mov	sp, r7
 8000650:	bd80      	pop	{r7, pc}
 8000652:	bf00      	nop
 8000654:	40010800 	.word	0x40010800

08000658 <ST7920_SendCmd>:




void ST7920_SendCmd (uint8_t cmd)
{
 8000658:	b580      	push	{r7, lr}
 800065a:	b082      	sub	sp, #8
 800065c:	af00      	add	r7, sp, #0
 800065e:	4603      	mov	r3, r0
 8000660:	71fb      	strb	r3, [r7, #7]

	HAL_GPIO_WritePin(CS_PORT, CS_PIN, GPIO_PIN_SET);  // PUll the CS high
 8000662:	2201      	movs	r2, #1
 8000664:	2140      	movs	r1, #64	; 0x40
 8000666:	480f      	ldr	r0, [pc, #60]	; (80006a4 <ST7920_SendCmd+0x4c>)
 8000668:	f001 fed7 	bl	800241a <HAL_GPIO_WritePin>

	SendByteSPI(0xf8+(0<<1));  // send the SYNC + RS(0)
 800066c:	20f8      	movs	r0, #248	; 0xf8
 800066e:	f7ff ffc1 	bl	80005f4 <SendByteSPI>
	SendByteSPI(cmd&0xf0);  // send the higher nibble first
 8000672:	79fb      	ldrb	r3, [r7, #7]
 8000674:	f023 030f 	bic.w	r3, r3, #15
 8000678:	b2db      	uxtb	r3, r3
 800067a:	4618      	mov	r0, r3
 800067c:	f7ff ffba 	bl	80005f4 <SendByteSPI>
	SendByteSPI((cmd<<4)&0xf0);  // send the lower nibble
 8000680:	79fb      	ldrb	r3, [r7, #7]
 8000682:	011b      	lsls	r3, r3, #4
 8000684:	b2db      	uxtb	r3, r3
 8000686:	4618      	mov	r0, r3
 8000688:	f7ff ffb4 	bl	80005f4 <SendByteSPI>
	delay_us(50);
 800068c:	2032      	movs	r0, #50	; 0x32
 800068e:	f000 f9bd 	bl	8000a0c <delay_us>

	HAL_GPIO_WritePin(CS_PORT, CS_PIN, GPIO_PIN_RESET);  // PUll the CS LOW
 8000692:	2200      	movs	r2, #0
 8000694:	2140      	movs	r1, #64	; 0x40
 8000696:	4803      	ldr	r0, [pc, #12]	; (80006a4 <ST7920_SendCmd+0x4c>)
 8000698:	f001 febf 	bl	800241a <HAL_GPIO_WritePin>

}
 800069c:	bf00      	nop
 800069e:	3708      	adds	r7, #8
 80006a0:	46bd      	mov	sp, r7
 80006a2:	bd80      	pop	{r7, pc}
 80006a4:	40010800 	.word	0x40010800

080006a8 <ST7920_SendData>:

void ST7920_SendData (uint8_t data)
{
 80006a8:	b580      	push	{r7, lr}
 80006aa:	b082      	sub	sp, #8
 80006ac:	af00      	add	r7, sp, #0
 80006ae:	4603      	mov	r3, r0
 80006b0:	71fb      	strb	r3, [r7, #7]

	HAL_GPIO_WritePin(CS_PORT, CS_PIN, GPIO_PIN_SET);  // PUll the CS high
 80006b2:	2201      	movs	r2, #1
 80006b4:	2140      	movs	r1, #64	; 0x40
 80006b6:	480f      	ldr	r0, [pc, #60]	; (80006f4 <ST7920_SendData+0x4c>)
 80006b8:	f001 feaf 	bl	800241a <HAL_GPIO_WritePin>

	SendByteSPI(0xf8+(1<<1));  // send the SYNC + RS(1)
 80006bc:	20fa      	movs	r0, #250	; 0xfa
 80006be:	f7ff ff99 	bl	80005f4 <SendByteSPI>
	SendByteSPI(data&0xf0);  // send the higher nibble first
 80006c2:	79fb      	ldrb	r3, [r7, #7]
 80006c4:	f023 030f 	bic.w	r3, r3, #15
 80006c8:	b2db      	uxtb	r3, r3
 80006ca:	4618      	mov	r0, r3
 80006cc:	f7ff ff92 	bl	80005f4 <SendByteSPI>
	SendByteSPI((data<<4)&0xf0);  // send the lower nibble
 80006d0:	79fb      	ldrb	r3, [r7, #7]
 80006d2:	011b      	lsls	r3, r3, #4
 80006d4:	b2db      	uxtb	r3, r3
 80006d6:	4618      	mov	r0, r3
 80006d8:	f7ff ff8c 	bl	80005f4 <SendByteSPI>
	delay_us(50);
 80006dc:	2032      	movs	r0, #50	; 0x32
 80006de:	f000 f995 	bl	8000a0c <delay_us>
	HAL_GPIO_WritePin(CS_PORT, CS_PIN, GPIO_PIN_RESET);  // PUll the CS LOW
 80006e2:	2200      	movs	r2, #0
 80006e4:	2140      	movs	r1, #64	; 0x40
 80006e6:	4803      	ldr	r0, [pc, #12]	; (80006f4 <ST7920_SendData+0x4c>)
 80006e8:	f001 fe97 	bl	800241a <HAL_GPIO_WritePin>
}
 80006ec:	bf00      	nop
 80006ee:	3708      	adds	r7, #8
 80006f0:	46bd      	mov	sp, r7
 80006f2:	bd80      	pop	{r7, pc}
 80006f4:	40010800 	.word	0x40010800

080006f8 <ST7920_SendString>:

void ST7920_SendString(int row, int col, char* string)
{
 80006f8:	b580      	push	{r7, lr}
 80006fa:	b084      	sub	sp, #16
 80006fc:	af00      	add	r7, sp, #0
 80006fe:	60f8      	str	r0, [r7, #12]
 8000700:	60b9      	str	r1, [r7, #8]
 8000702:	607a      	str	r2, [r7, #4]
    switch (row)
 8000704:	68fb      	ldr	r3, [r7, #12]
 8000706:	2b03      	cmp	r3, #3
 8000708:	d81e      	bhi.n	8000748 <ST7920_SendString+0x50>
 800070a:	a201      	add	r2, pc, #4	; (adr r2, 8000710 <ST7920_SendString+0x18>)
 800070c:	f852 f023 	ldr.w	pc, [r2, r3, lsl #2]
 8000710:	08000721 	.word	0x08000721
 8000714:	0800072b 	.word	0x0800072b
 8000718:	08000735 	.word	0x08000735
 800071c:	0800073f 	.word	0x0800073f
    {
        case 0:
            col |= 0x80;
 8000720:	68bb      	ldr	r3, [r7, #8]
 8000722:	f043 0380 	orr.w	r3, r3, #128	; 0x80
 8000726:	60bb      	str	r3, [r7, #8]
            break;
 8000728:	e013      	b.n	8000752 <ST7920_SendString+0x5a>
        case 1:
            col |= 0x90;
 800072a:	68bb      	ldr	r3, [r7, #8]
 800072c:	f043 0390 	orr.w	r3, r3, #144	; 0x90
 8000730:	60bb      	str	r3, [r7, #8]
            break;
 8000732:	e00e      	b.n	8000752 <ST7920_SendString+0x5a>
        case 2:
            col |= 0x88;
 8000734:	68bb      	ldr	r3, [r7, #8]
 8000736:	f043 0388 	orr.w	r3, r3, #136	; 0x88
 800073a:	60bb      	str	r3, [r7, #8]
            break;
 800073c:	e009      	b.n	8000752 <ST7920_SendString+0x5a>
        case 3:
            col |= 0x98;
 800073e:	68bb      	ldr	r3, [r7, #8]
 8000740:	f043 0398 	orr.w	r3, r3, #152	; 0x98
 8000744:	60bb      	str	r3, [r7, #8]
            break;
 8000746:	e004      	b.n	8000752 <ST7920_SendString+0x5a>
        default:
            col |= 0x80;
 8000748:	68bb      	ldr	r3, [r7, #8]
 800074a:	f043 0380 	orr.w	r3, r3, #128	; 0x80
 800074e:	60bb      	str	r3, [r7, #8]
            break;
 8000750:	bf00      	nop
    }

    ST7920_SendCmd(col);
 8000752:	68bb      	ldr	r3, [r7, #8]
 8000754:	b2db      	uxtb	r3, r3
 8000756:	4618      	mov	r0, r3
 8000758:	f7ff ff7e 	bl	8000658 <ST7920_SendCmd>

    while (*string)
 800075c:	e006      	b.n	800076c <ST7920_SendString+0x74>
    	{
    		ST7920_SendData(*string++);
 800075e:	687b      	ldr	r3, [r7, #4]
 8000760:	1c5a      	adds	r2, r3, #1
 8000762:	607a      	str	r2, [r7, #4]
 8000764:	781b      	ldrb	r3, [r3, #0]
 8000766:	4618      	mov	r0, r3
 8000768:	f7ff ff9e 	bl	80006a8 <ST7920_SendData>
    while (*string)
 800076c:	687b      	ldr	r3, [r7, #4]
 800076e:	781b      	ldrb	r3, [r3, #0]
 8000770:	2b00      	cmp	r3, #0
 8000772:	d1f4      	bne.n	800075e <ST7920_SendString+0x66>
    	}
}
 8000774:	bf00      	nop
 8000776:	3710      	adds	r7, #16
 8000778:	46bd      	mov	sp, r7
 800077a:	bd80      	pop	{r7, pc}

0800077c <ST7920_DrawBitmap>:
		Graphic_Check = 0;  // update the variable
	}
}

void ST7920_DrawBitmap(const unsigned char* graphic)
{
 800077c:	b580      	push	{r7, lr}
 800077e:	b084      	sub	sp, #16
 8000780:	af00      	add	r7, sp, #0
 8000782:	6078      	str	r0, [r7, #4]
	uint8_t x, y;
	for(y = 0; y < 64; y++)
 8000784:	2300      	movs	r3, #0
 8000786:	73bb      	strb	r3, [r7, #14]
 8000788:	e06a      	b.n	8000860 <ST7920_DrawBitmap+0xe4>
	{
		if(y < 32)
 800078a:	7bbb      	ldrb	r3, [r7, #14]
 800078c:	2b1f      	cmp	r3, #31
 800078e:	d830      	bhi.n	80007f2 <ST7920_DrawBitmap+0x76>
		{
			for(x = 0; x < 8; x++)							// Draws top half of the screen.
 8000790:	2300      	movs	r3, #0
 8000792:	73fb      	strb	r3, [r7, #15]
 8000794:	e029      	b.n	80007ea <ST7920_DrawBitmap+0x6e>
			{												// In extended instruction mode, vertical and horizontal coordinates must be specified before sending data in.
				ST7920_SendCmd(0x80 | y);				// Vertical coordinate of the screen is specified first. (0-31)
 8000796:	7bbb      	ldrb	r3, [r7, #14]
 8000798:	f063 037f 	orn	r3, r3, #127	; 0x7f
 800079c:	b2db      	uxtb	r3, r3
 800079e:	4618      	mov	r0, r3
 80007a0:	f7ff ff5a 	bl	8000658 <ST7920_SendCmd>
				ST7920_SendCmd(0x80 | x);				// Then horizontal coordinate of the screen is specified. (0-8)
 80007a4:	7bfb      	ldrb	r3, [r7, #15]
 80007a6:	f063 037f 	orn	r3, r3, #127	; 0x7f
 80007aa:	b2db      	uxtb	r3, r3
 80007ac:	4618      	mov	r0, r3
 80007ae:	f7ff ff53 	bl	8000658 <ST7920_SendCmd>
				ST7920_SendData(graphic[2*x + 16*y]);		// Data to the upper byte is sent to the coordinate.
 80007b2:	7bfa      	ldrb	r2, [r7, #15]
 80007b4:	7bbb      	ldrb	r3, [r7, #14]
 80007b6:	00db      	lsls	r3, r3, #3
 80007b8:	4413      	add	r3, r2
 80007ba:	005b      	lsls	r3, r3, #1
 80007bc:	461a      	mov	r2, r3
 80007be:	687b      	ldr	r3, [r7, #4]
 80007c0:	4413      	add	r3, r2
 80007c2:	781b      	ldrb	r3, [r3, #0]
 80007c4:	4618      	mov	r0, r3
 80007c6:	f7ff ff6f 	bl	80006a8 <ST7920_SendData>
				ST7920_SendData(graphic[2*x+1 + 16*y]);	// Data to the lower byte is sent to the coordinate.
 80007ca:	7bfb      	ldrb	r3, [r7, #15]
 80007cc:	005b      	lsls	r3, r3, #1
 80007ce:	1c5a      	adds	r2, r3, #1
 80007d0:	7bbb      	ldrb	r3, [r7, #14]
 80007d2:	011b      	lsls	r3, r3, #4
 80007d4:	4413      	add	r3, r2
 80007d6:	461a      	mov	r2, r3
 80007d8:	687b      	ldr	r3, [r7, #4]
 80007da:	4413      	add	r3, r2
 80007dc:	781b      	ldrb	r3, [r3, #0]
 80007de:	4618      	mov	r0, r3
 80007e0:	f7ff ff62 	bl	80006a8 <ST7920_SendData>
			for(x = 0; x < 8; x++)							// Draws top half of the screen.
 80007e4:	7bfb      	ldrb	r3, [r7, #15]
 80007e6:	3301      	adds	r3, #1
 80007e8:	73fb      	strb	r3, [r7, #15]
 80007ea:	7bfb      	ldrb	r3, [r7, #15]
 80007ec:	2b07      	cmp	r3, #7
 80007ee:	d9d2      	bls.n	8000796 <ST7920_DrawBitmap+0x1a>
 80007f0:	e033      	b.n	800085a <ST7920_DrawBitmap+0xde>
			}
		}
		else
		{
			for(x = 0; x < 8; x++)							// Draws bottom half of the screen.
 80007f2:	2300      	movs	r3, #0
 80007f4:	73fb      	strb	r3, [r7, #15]
 80007f6:	e02d      	b.n	8000854 <ST7920_DrawBitmap+0xd8>
			{												// Actions performed as same as the upper half screen.
				ST7920_SendCmd(0x80 | (y-32));			// Vertical coordinate must be scaled back to 0-31 as it is dealing with another half of the screen.
 80007f8:	7bbb      	ldrb	r3, [r7, #14]
 80007fa:	3b20      	subs	r3, #32
 80007fc:	b2db      	uxtb	r3, r3
 80007fe:	b25b      	sxtb	r3, r3
 8000800:	f063 037f 	orn	r3, r3, #127	; 0x7f
 8000804:	b25b      	sxtb	r3, r3
 8000806:	b2db      	uxtb	r3, r3
 8000808:	4618      	mov	r0, r3
 800080a:	f7ff ff25 	bl	8000658 <ST7920_SendCmd>
				ST7920_SendCmd(0x88 | x);
 800080e:	7bfb      	ldrb	r3, [r7, #15]
 8000810:	f063 0377 	orn	r3, r3, #119	; 0x77
 8000814:	b2db      	uxtb	r3, r3
 8000816:	4618      	mov	r0, r3
 8000818:	f7ff ff1e 	bl	8000658 <ST7920_SendCmd>
				ST7920_SendData(graphic[2*x + 16*y]);
 800081c:	7bfa      	ldrb	r2, [r7, #15]
 800081e:	7bbb      	ldrb	r3, [r7, #14]
 8000820:	00db      	lsls	r3, r3, #3
 8000822:	4413      	add	r3, r2
 8000824:	005b      	lsls	r3, r3, #1
 8000826:	461a      	mov	r2, r3
 8000828:	687b      	ldr	r3, [r7, #4]
 800082a:	4413      	add	r3, r2
 800082c:	781b      	ldrb	r3, [r3, #0]
 800082e:	4618      	mov	r0, r3
 8000830:	f7ff ff3a 	bl	80006a8 <ST7920_SendData>
				ST7920_SendData(graphic[2*x+1 + 16*y]);
 8000834:	7bfb      	ldrb	r3, [r7, #15]
 8000836:	005b      	lsls	r3, r3, #1
 8000838:	1c5a      	adds	r2, r3, #1
 800083a:	7bbb      	ldrb	r3, [r7, #14]
 800083c:	011b      	lsls	r3, r3, #4
 800083e:	4413      	add	r3, r2
 8000840:	461a      	mov	r2, r3
 8000842:	687b      	ldr	r3, [r7, #4]
 8000844:	4413      	add	r3, r2
 8000846:	781b      	ldrb	r3, [r3, #0]
 8000848:	4618      	mov	r0, r3
 800084a:	f7ff ff2d 	bl	80006a8 <ST7920_SendData>
			for(x = 0; x < 8; x++)							// Draws bottom half of the screen.
 800084e:	7bfb      	ldrb	r3, [r7, #15]
 8000850:	3301      	adds	r3, #1
 8000852:	73fb      	strb	r3, [r7, #15]
 8000854:	7bfb      	ldrb	r3, [r7, #15]
 8000856:	2b07      	cmp	r3, #7
 8000858:	d9ce      	bls.n	80007f8 <ST7920_DrawBitmap+0x7c>
	for(y = 0; y < 64; y++)
 800085a:	7bbb      	ldrb	r3, [r7, #14]
 800085c:	3301      	adds	r3, #1
 800085e:	73bb      	strb	r3, [r7, #14]
 8000860:	7bbb      	ldrb	r3, [r7, #14]
 8000862:	2b3f      	cmp	r3, #63	; 0x3f
 8000864:	d991      	bls.n	800078a <ST7920_DrawBitmap+0xe>
			}
		}

	}
}
 8000866:	bf00      	nop
 8000868:	3710      	adds	r7, #16
 800086a:	46bd      	mov	sp, r7
 800086c:	bd80      	pop	{r7, pc}
	...

08000870 <ST7920_Update>:


// Update the display with the selected graphics
void ST7920_Update(void)
{
 8000870:	b580      	push	{r7, lr}
 8000872:	af00      	add	r7, sp, #0
	ST7920_DrawBitmap(image);
 8000874:	4802      	ldr	r0, [pc, #8]	; (8000880 <ST7920_Update+0x10>)
 8000876:	f7ff ff81 	bl	800077c <ST7920_DrawBitmap>
}
 800087a:	bf00      	nop
 800087c:	bd80      	pop	{r7, pc}
 800087e:	bf00      	nop
 8000880:	20000114 	.word	0x20000114

08000884 <ST7920_Init>:
	}
}


void ST7920_Init (void)
{
 8000884:	b580      	push	{r7, lr}
 8000886:	af00      	add	r7, sp, #0
	HAL_GPIO_WritePin(RST_PORT, RST_PIN, GPIO_PIN_RESET);  // RESET=0
 8000888:	2200      	movs	r2, #0
 800088a:	2101      	movs	r1, #1
 800088c:	481c      	ldr	r0, [pc, #112]	; (8000900 <ST7920_Init+0x7c>)
 800088e:	f001 fdc4 	bl	800241a <HAL_GPIO_WritePin>
	HAL_Delay(10);   // wait for 10ms
 8000892:	200a      	movs	r0, #10
 8000894:	f001 f916 	bl	8001ac4 <HAL_Delay>
	HAL_GPIO_WritePin(RST_PORT, RST_PIN, GPIO_PIN_SET);  // RESET=1
 8000898:	2201      	movs	r2, #1
 800089a:	2101      	movs	r1, #1
 800089c:	4818      	ldr	r0, [pc, #96]	; (8000900 <ST7920_Init+0x7c>)
 800089e:	f001 fdbc 	bl	800241a <HAL_GPIO_WritePin>

	HAL_Delay(50);   //wait for >40 ms
 80008a2:	2032      	movs	r0, #50	; 0x32
 80008a4:	f001 f90e 	bl	8001ac4 <HAL_Delay>


	ST7920_SendCmd(0x30);  // 8bit mode
 80008a8:	2030      	movs	r0, #48	; 0x30
 80008aa:	f7ff fed5 	bl	8000658 <ST7920_SendCmd>
	delay_us(110);  //  >100us delay
 80008ae:	206e      	movs	r0, #110	; 0x6e
 80008b0:	f000 f8ac 	bl	8000a0c <delay_us>

	ST7920_SendCmd(0x30);  // 8bit mode
 80008b4:	2030      	movs	r0, #48	; 0x30
 80008b6:	f7ff fecf 	bl	8000658 <ST7920_SendCmd>
	delay_us(40);  // >37us delay
 80008ba:	2028      	movs	r0, #40	; 0x28
 80008bc:	f000 f8a6 	bl	8000a0c <delay_us>

	ST7920_SendCmd(0x08);  // D=0, C=0, B=0
 80008c0:	2008      	movs	r0, #8
 80008c2:	f7ff fec9 	bl	8000658 <ST7920_SendCmd>
	delay_us(110);  // >100us delay
 80008c6:	206e      	movs	r0, #110	; 0x6e
 80008c8:	f000 f8a0 	bl	8000a0c <delay_us>

	ST7920_SendCmd(0x01);  // clear screen
 80008cc:	2001      	movs	r0, #1
 80008ce:	f7ff fec3 	bl	8000658 <ST7920_SendCmd>
	HAL_Delay(12);  // >10 ms delay
 80008d2:	200c      	movs	r0, #12
 80008d4:	f001 f8f6 	bl	8001ac4 <HAL_Delay>


	ST7920_SendCmd(0x06);  // cursor increment right no shift
 80008d8:	2006      	movs	r0, #6
 80008da:	f7ff febd 	bl	8000658 <ST7920_SendCmd>
	HAL_Delay(1);  // 1ms delay
 80008de:	2001      	movs	r0, #1
 80008e0:	f001 f8f0 	bl	8001ac4 <HAL_Delay>

	ST7920_SendCmd(0x0C);  // D=1, C=0, B=0
 80008e4:	200c      	movs	r0, #12
 80008e6:	f7ff feb7 	bl	8000658 <ST7920_SendCmd>
    HAL_Delay(1);  // 1ms delay
 80008ea:	2001      	movs	r0, #1
 80008ec:	f001 f8ea 	bl	8001ac4 <HAL_Delay>

	ST7920_SendCmd(0x02);  // return to home
 80008f0:	2002      	movs	r0, #2
 80008f2:	f7ff feb1 	bl	8000658 <ST7920_SendCmd>
	HAL_Delay(1);  // 1ms delay
 80008f6:	2001      	movs	r0, #1
 80008f8:	f001 f8e4 	bl	8001ac4 <HAL_Delay>

}
 80008fc:	bf00      	nop
 80008fe:	bd80      	pop	{r7, pc}
 8000900:	40010c00 	.word	0x40010c00

08000904 <MX_ADC1_Init>:

ADC_HandleTypeDef hadc1;

/* ADC1 init function */
void MX_ADC1_Init(void)
{
 8000904:	b580      	push	{r7, lr}
 8000906:	b084      	sub	sp, #16
 8000908:	af00      	add	r7, sp, #0
  ADC_ChannelConfTypeDef sConfig = {0};
 800090a:	1d3b      	adds	r3, r7, #4
 800090c:	2200      	movs	r2, #0
 800090e:	601a      	str	r2, [r3, #0]
 8000910:	605a      	str	r2, [r3, #4]
 8000912:	609a      	str	r2, [r3, #8]

  /** Common config
  */
  hadc1.Instance = ADC1;
 8000914:	4b18      	ldr	r3, [pc, #96]	; (8000978 <MX_ADC1_Init+0x74>)
 8000916:	4a19      	ldr	r2, [pc, #100]	; (800097c <MX_ADC1_Init+0x78>)
 8000918:	601a      	str	r2, [r3, #0]
  hadc1.Init.ScanConvMode = ADC_SCAN_DISABLE;
 800091a:	4b17      	ldr	r3, [pc, #92]	; (8000978 <MX_ADC1_Init+0x74>)
 800091c:	2200      	movs	r2, #0
 800091e:	609a      	str	r2, [r3, #8]
  hadc1.Init.ContinuousConvMode = DISABLE;
 8000920:	4b15      	ldr	r3, [pc, #84]	; (8000978 <MX_ADC1_Init+0x74>)
 8000922:	2200      	movs	r2, #0
 8000924:	731a      	strb	r2, [r3, #12]
  hadc1.Init.DiscontinuousConvMode = DISABLE;
 8000926:	4b14      	ldr	r3, [pc, #80]	; (8000978 <MX_ADC1_Init+0x74>)
 8000928:	2200      	movs	r2, #0
 800092a:	751a      	strb	r2, [r3, #20]
  hadc1.Init.ExternalTrigConv = ADC_SOFTWARE_START;
 800092c:	4b12      	ldr	r3, [pc, #72]	; (8000978 <MX_ADC1_Init+0x74>)
 800092e:	f44f 2260 	mov.w	r2, #917504	; 0xe0000
 8000932:	61da      	str	r2, [r3, #28]
  hadc1.Init.DataAlign = ADC_DATAALIGN_RIGHT;
 8000934:	4b10      	ldr	r3, [pc, #64]	; (8000978 <MX_ADC1_Init+0x74>)
 8000936:	2200      	movs	r2, #0
 8000938:	605a      	str	r2, [r3, #4]
  hadc1.Init.NbrOfConversion = 1;
 800093a:	4b0f      	ldr	r3, [pc, #60]	; (8000978 <MX_ADC1_Init+0x74>)
 800093c:	2201      	movs	r2, #1
 800093e:	611a      	str	r2, [r3, #16]
  if (HAL_ADC_Init(&hadc1) != HAL_OK)
 8000940:	480d      	ldr	r0, [pc, #52]	; (8000978 <MX_ADC1_Init+0x74>)
 8000942:	f001 f8e1 	bl	8001b08 <HAL_ADC_Init>
 8000946:	4603      	mov	r3, r0
 8000948:	2b00      	cmp	r3, #0
 800094a:	d001      	beq.n	8000950 <MX_ADC1_Init+0x4c>
  {
    Error_Handler();
 800094c:	f000 fa86 	bl	8000e5c <Error_Handler>
  }
  /** Configure Regular Channel
  */
  sConfig.Channel = ADC_CHANNEL_0;
 8000950:	2300      	movs	r3, #0
 8000952:	607b      	str	r3, [r7, #4]
  sConfig.Rank = ADC_REGULAR_RANK_1;
 8000954:	2301      	movs	r3, #1
 8000956:	60bb      	str	r3, [r7, #8]
  sConfig.SamplingTime = ADC_SAMPLETIME_1CYCLE_5;
 8000958:	2300      	movs	r3, #0
 800095a:	60fb      	str	r3, [r7, #12]
  if (HAL_ADC_ConfigChannel(&hadc1, &sConfig) != HAL_OK)
 800095c:	1d3b      	adds	r3, r7, #4
 800095e:	4619      	mov	r1, r3
 8000960:	4805      	ldr	r0, [pc, #20]	; (8000978 <MX_ADC1_Init+0x74>)
 8000962:	f001 f9a9 	bl	8001cb8 <HAL_ADC_ConfigChannel>
 8000966:	4603      	mov	r3, r0
 8000968:	2b00      	cmp	r3, #0
 800096a:	d001      	beq.n	8000970 <MX_ADC1_Init+0x6c>
  {
    Error_Handler();
 800096c:	f000 fa76 	bl	8000e5c <Error_Handler>
  }

}
 8000970:	bf00      	nop
 8000972:	3710      	adds	r7, #16
 8000974:	46bd      	mov	sp, r7
 8000976:	bd80      	pop	{r7, pc}
 8000978:	20000518 	.word	0x20000518
 800097c:	40012400 	.word	0x40012400

08000980 <HAL_ADC_MspInit>:

void HAL_ADC_MspInit(ADC_HandleTypeDef* adcHandle)
{
 8000980:	b580      	push	{r7, lr}
 8000982:	b088      	sub	sp, #32
 8000984:	af00      	add	r7, sp, #0
 8000986:	6078      	str	r0, [r7, #4]

  GPIO_InitTypeDef GPIO_InitStruct = {0};
 8000988:	f107 0310 	add.w	r3, r7, #16
 800098c:	2200      	movs	r2, #0
 800098e:	601a      	str	r2, [r3, #0]
 8000990:	605a      	str	r2, [r3, #4]
 8000992:	609a      	str	r2, [r3, #8]
 8000994:	60da      	str	r2, [r3, #12]
  if(adcHandle->Instance==ADC1)
 8000996:	687b      	ldr	r3, [r7, #4]
 8000998:	681b      	ldr	r3, [r3, #0]
 800099a:	4a14      	ldr	r2, [pc, #80]	; (80009ec <HAL_ADC_MspInit+0x6c>)
 800099c:	4293      	cmp	r3, r2
 800099e:	d121      	bne.n	80009e4 <HAL_ADC_MspInit+0x64>
  {
  /* USER CODE BEGIN ADC1_MspInit 0 */

  /* USER CODE END ADC1_MspInit 0 */
    /* ADC1 clock enable */
    __HAL_RCC_ADC1_CLK_ENABLE();
 80009a0:	4b13      	ldr	r3, [pc, #76]	; (80009f0 <HAL_ADC_MspInit+0x70>)
 80009a2:	699b      	ldr	r3, [r3, #24]
 80009a4:	4a12      	ldr	r2, [pc, #72]	; (80009f0 <HAL_ADC_MspInit+0x70>)
 80009a6:	f443 7300 	orr.w	r3, r3, #512	; 0x200
 80009aa:	6193      	str	r3, [r2, #24]
 80009ac:	4b10      	ldr	r3, [pc, #64]	; (80009f0 <HAL_ADC_MspInit+0x70>)
 80009ae:	699b      	ldr	r3, [r3, #24]
 80009b0:	f403 7300 	and.w	r3, r3, #512	; 0x200
 80009b4:	60fb      	str	r3, [r7, #12]
 80009b6:	68fb      	ldr	r3, [r7, #12]

    __HAL_RCC_GPIOA_CLK_ENABLE();
 80009b8:	4b0d      	ldr	r3, [pc, #52]	; (80009f0 <HAL_ADC_MspInit+0x70>)
 80009ba:	699b      	ldr	r3, [r3, #24]
 80009bc:	4a0c      	ldr	r2, [pc, #48]	; (80009f0 <HAL_ADC_MspInit+0x70>)
 80009be:	f043 0304 	orr.w	r3, r3, #4
 80009c2:	6193      	str	r3, [r2, #24]
 80009c4:	4b0a      	ldr	r3, [pc, #40]	; (80009f0 <HAL_ADC_MspInit+0x70>)
 80009c6:	699b      	ldr	r3, [r3, #24]
 80009c8:	f003 0304 	and.w	r3, r3, #4
 80009cc:	60bb      	str	r3, [r7, #8]
 80009ce:	68bb      	ldr	r3, [r7, #8]
    /**ADC1 GPIO Configuration
    PA0-WKUP     ------> ADC1_IN0
    */
    GPIO_InitStruct.Pin = GPIO_PIN_0;
 80009d0:	2301      	movs	r3, #1
 80009d2:	613b      	str	r3, [r7, #16]
    GPIO_InitStruct.Mode = GPIO_MODE_ANALOG;
 80009d4:	2303      	movs	r3, #3
 80009d6:	617b      	str	r3, [r7, #20]
    HAL_GPIO_Init(GPIOA, &GPIO_InitStruct);
 80009d8:	f107 0310 	add.w	r3, r7, #16
 80009dc:	4619      	mov	r1, r3
 80009de:	4805      	ldr	r0, [pc, #20]	; (80009f4 <HAL_ADC_MspInit+0x74>)
 80009e0:	f001 fbaa 	bl	8002138 <HAL_GPIO_Init>

  /* USER CODE BEGIN ADC1_MspInit 1 */

  /* USER CODE END ADC1_MspInit 1 */
  }
}
 80009e4:	bf00      	nop
 80009e6:	3720      	adds	r7, #32
 80009e8:	46bd      	mov	sp, r7
 80009ea:	bd80      	pop	{r7, pc}
 80009ec:	40012400 	.word	0x40012400
 80009f0:	40021000 	.word	0x40021000
 80009f4:	40010800 	.word	0x40010800

080009f8 <delay_init>:

extern TIM_HandleTypeDef htim3;


void delay_init ()
{
 80009f8:	b580      	push	{r7, lr}
 80009fa:	af00      	add	r7, sp, #0
	HAL_TIM_Base_Start(&htim3);  // change this according to ur setup
 80009fc:	4802      	ldr	r0, [pc, #8]	; (8000a08 <delay_init+0x10>)
 80009fe:	f003 fed8 	bl	80047b2 <HAL_TIM_Base_Start>
}
 8000a02:	bf00      	nop
 8000a04:	bd80      	pop	{r7, pc}
 8000a06:	bf00      	nop
 8000a08:	200005c0 	.word	0x200005c0

08000a0c <delay_us>:

void delay_us (uint16_t delay)
{
 8000a0c:	b480      	push	{r7}
 8000a0e:	b083      	sub	sp, #12
 8000a10:	af00      	add	r7, sp, #0
 8000a12:	4603      	mov	r3, r0
 8000a14:	80fb      	strh	r3, [r7, #6]
	__HAL_TIM_SET_COUNTER(&htim3, 0);  // reset the counter
 8000a16:	4b08      	ldr	r3, [pc, #32]	; (8000a38 <delay_us+0x2c>)
 8000a18:	681b      	ldr	r3, [r3, #0]
 8000a1a:	2200      	movs	r2, #0
 8000a1c:	625a      	str	r2, [r3, #36]	; 0x24
	while ((__HAL_TIM_GET_COUNTER(&htim3))<delay);  // wait for the delay to complete
 8000a1e:	bf00      	nop
 8000a20:	4b05      	ldr	r3, [pc, #20]	; (8000a38 <delay_us+0x2c>)
 8000a22:	681b      	ldr	r3, [r3, #0]
 8000a24:	6a5a      	ldr	r2, [r3, #36]	; 0x24
 8000a26:	88fb      	ldrh	r3, [r7, #6]
 8000a28:	429a      	cmp	r2, r3
 8000a2a:	d3f9      	bcc.n	8000a20 <delay_us+0x14>
}
 8000a2c:	bf00      	nop
 8000a2e:	370c      	adds	r7, #12
 8000a30:	46bd      	mov	sp, r7
 8000a32:	bc80      	pop	{r7}
 8000a34:	4770      	bx	lr
 8000a36:	bf00      	nop
 8000a38:	200005c0 	.word	0x200005c0

08000a3c <init_pantalla>:
#include "ST7920_SERIAL.h"
#include "delay.h"

uint8_t flag_pantalla = 0;

void init_pantalla (void){
 8000a3c:	b580      	push	{r7, lr}
 8000a3e:	af00      	add	r7, sp, #0
	delay_init();
 8000a40:	f7ff ffda 	bl	80009f8 <delay_init>
	ST7920_Init();
 8000a44:	f7ff ff1e 	bl	8000884 <ST7920_Init>
}
 8000a48:	bf00      	nop
 8000a4a:	bd80      	pop	{r7, pc}

08000a4c <set_pantalla>:

void set_pantalla (char* texto){
 8000a4c:	b580      	push	{r7, lr}
 8000a4e:	b082      	sub	sp, #8
 8000a50:	af00      	add	r7, sp, #0
 8000a52:	6078      	str	r0, [r7, #4]
	ST7920_SendString(0, 0, texto);
 8000a54:	687a      	ldr	r2, [r7, #4]
 8000a56:	2100      	movs	r1, #0
 8000a58:	2000      	movs	r0, #0
 8000a5a:	f7ff fe4d 	bl	80006f8 <ST7920_SendString>
	//flag_pantalla = 1;
}
 8000a5e:	bf00      	nop
 8000a60:	3708      	adds	r7, #8
 8000a62:	46bd      	mov	sp, r7
 8000a64:	bd80      	pop	{r7, pc}
	...

08000a68 <pantallaUpdate>:

void pantallaLista(void){
	flag_pantalla = 1;
}

void pantallaUpdate(void){
 8000a68:	b580      	push	{r7, lr}
 8000a6a:	af00      	add	r7, sp, #0
	if (flag_pantalla != 0){
 8000a6c:	4b05      	ldr	r3, [pc, #20]	; (8000a84 <pantallaUpdate+0x1c>)
 8000a6e:	781b      	ldrb	r3, [r3, #0]
 8000a70:	2b00      	cmp	r3, #0
 8000a72:	d004      	beq.n	8000a7e <pantallaUpdate+0x16>
		ST7920_Update();
 8000a74:	f7ff fefc 	bl	8000870 <ST7920_Update>
		flag_pantalla = 0;
 8000a78:	4b02      	ldr	r3, [pc, #8]	; (8000a84 <pantallaUpdate+0x1c>)
 8000a7a:	2200      	movs	r2, #0
 8000a7c:	701a      	strb	r2, [r3, #0]
	}
} //end pantallaUpdate()
 8000a7e:	bf00      	nop
 8000a80:	bd80      	pop	{r7, pc}
 8000a82:	bf00      	nop
 8000a84:	200000a0 	.word	0x200000a0

08000a88 <MX_GPIO_Init>:
        * Output
        * EVENT_OUT
        * EXTI
*/
void MX_GPIO_Init(void)
{
 8000a88:	b580      	push	{r7, lr}
 8000a8a:	b088      	sub	sp, #32
 8000a8c:	af00      	add	r7, sp, #0

  GPIO_InitTypeDef GPIO_InitStruct = {0};
 8000a8e:	f107 0310 	add.w	r3, r7, #16
 8000a92:	2200      	movs	r2, #0
 8000a94:	601a      	str	r2, [r3, #0]
 8000a96:	605a      	str	r2, [r3, #4]
 8000a98:	609a      	str	r2, [r3, #8]
 8000a9a:	60da      	str	r2, [r3, #12]

  /* GPIO Ports Clock Enable */
  __HAL_RCC_GPIOC_CLK_ENABLE();
 8000a9c:	4b34      	ldr	r3, [pc, #208]	; (8000b70 <MX_GPIO_Init+0xe8>)
 8000a9e:	699b      	ldr	r3, [r3, #24]
 8000aa0:	4a33      	ldr	r2, [pc, #204]	; (8000b70 <MX_GPIO_Init+0xe8>)
 8000aa2:	f043 0310 	orr.w	r3, r3, #16
 8000aa6:	6193      	str	r3, [r2, #24]
 8000aa8:	4b31      	ldr	r3, [pc, #196]	; (8000b70 <MX_GPIO_Init+0xe8>)
 8000aaa:	699b      	ldr	r3, [r3, #24]
 8000aac:	f003 0310 	and.w	r3, r3, #16
 8000ab0:	60fb      	str	r3, [r7, #12]
 8000ab2:	68fb      	ldr	r3, [r7, #12]
  __HAL_RCC_GPIOD_CLK_ENABLE();
 8000ab4:	4b2e      	ldr	r3, [pc, #184]	; (8000b70 <MX_GPIO_Init+0xe8>)
 8000ab6:	699b      	ldr	r3, [r3, #24]
 8000ab8:	4a2d      	ldr	r2, [pc, #180]	; (8000b70 <MX_GPIO_Init+0xe8>)
 8000aba:	f043 0320 	orr.w	r3, r3, #32
 8000abe:	6193      	str	r3, [r2, #24]
 8000ac0:	4b2b      	ldr	r3, [pc, #172]	; (8000b70 <MX_GPIO_Init+0xe8>)
 8000ac2:	699b      	ldr	r3, [r3, #24]
 8000ac4:	f003 0320 	and.w	r3, r3, #32
 8000ac8:	60bb      	str	r3, [r7, #8]
 8000aca:	68bb      	ldr	r3, [r7, #8]
  __HAL_RCC_GPIOA_CLK_ENABLE();
 8000acc:	4b28      	ldr	r3, [pc, #160]	; (8000b70 <MX_GPIO_Init+0xe8>)
 8000ace:	699b      	ldr	r3, [r3, #24]
 8000ad0:	4a27      	ldr	r2, [pc, #156]	; (8000b70 <MX_GPIO_Init+0xe8>)
 8000ad2:	f043 0304 	orr.w	r3, r3, #4
 8000ad6:	6193      	str	r3, [r2, #24]
 8000ad8:	4b25      	ldr	r3, [pc, #148]	; (8000b70 <MX_GPIO_Init+0xe8>)
 8000ada:	699b      	ldr	r3, [r3, #24]
 8000adc:	f003 0304 	and.w	r3, r3, #4
 8000ae0:	607b      	str	r3, [r7, #4]
 8000ae2:	687b      	ldr	r3, [r7, #4]
  __HAL_RCC_GPIOB_CLK_ENABLE();
 8000ae4:	4b22      	ldr	r3, [pc, #136]	; (8000b70 <MX_GPIO_Init+0xe8>)
 8000ae6:	699b      	ldr	r3, [r3, #24]
 8000ae8:	4a21      	ldr	r2, [pc, #132]	; (8000b70 <MX_GPIO_Init+0xe8>)
 8000aea:	f043 0308 	orr.w	r3, r3, #8
 8000aee:	6193      	str	r3, [r2, #24]
 8000af0:	4b1f      	ldr	r3, [pc, #124]	; (8000b70 <MX_GPIO_Init+0xe8>)
 8000af2:	699b      	ldr	r3, [r3, #24]
 8000af4:	f003 0308 	and.w	r3, r3, #8
 8000af8:	603b      	str	r3, [r7, #0]
 8000afa:	683b      	ldr	r3, [r7, #0]

  /*Configure GPIO pin Output Level */
  HAL_GPIO_WritePin(GPIOA, OUT_GLCD_SCLK_Pin|OUT_GLCD_CS_Pin|OUT_GLCD_SID_Pin|OUT_CE1_Pin
 8000afc:	2200      	movs	r2, #0
 8000afe:	f248 71e0 	movw	r1, #34784	; 0x87e0
 8000b02:	481c      	ldr	r0, [pc, #112]	; (8000b74 <MX_GPIO_Init+0xec>)
 8000b04:	f001 fc89 	bl	800241a <HAL_GPIO_WritePin>
                          |OUT_CE2_Pin|OUT_ST_Pin|OUT_fila3_Pin, GPIO_PIN_RESET);

  /*Configure GPIO pin Output Level */
  HAL_GPIO_WritePin(GPIOB, OUT_GLCD_RST_Pin|OUT_PL_Pin|OUT_fila2_Pin|OUT_fila1_Pin
 8000b08:	2200      	movs	r2, #0
 8000b0a:	f241 0139 	movw	r1, #4153	; 0x1039
 8000b0e:	481a      	ldr	r0, [pc, #104]	; (8000b78 <MX_GPIO_Init+0xf0>)
 8000b10:	f001 fc83 	bl	800241a <HAL_GPIO_WritePin>
                          |OUT_fila0_Pin, GPIO_PIN_RESET);

  /*Configure GPIO pin : PtPin */
  GPIO_InitStruct.Pin = IN_nivelAgua_Pin;
 8000b14:	2304      	movs	r3, #4
 8000b16:	613b      	str	r3, [r7, #16]
  GPIO_InitStruct.Mode = GPIO_MODE_INPUT;
 8000b18:	2300      	movs	r3, #0
 8000b1a:	617b      	str	r3, [r7, #20]
  GPIO_InitStruct.Pull = GPIO_PULLUP;
 8000b1c:	2301      	movs	r3, #1
 8000b1e:	61bb      	str	r3, [r7, #24]
  HAL_GPIO_Init(IN_nivelAgua_GPIO_Port, &GPIO_InitStruct);
 8000b20:	f107 0310 	add.w	r3, r7, #16
 8000b24:	4619      	mov	r1, r3
 8000b26:	4813      	ldr	r0, [pc, #76]	; (8000b74 <MX_GPIO_Init+0xec>)
 8000b28:	f001 fb06 	bl	8002138 <HAL_GPIO_Init>

  /*Configure GPIO pins : PAPin PAPin PAPin PAPin
                           PAPin PAPin PAPin */
  GPIO_InitStruct.Pin = OUT_GLCD_SCLK_Pin|OUT_GLCD_CS_Pin|OUT_GLCD_SID_Pin|OUT_CE1_Pin
 8000b2c:	f248 73e0 	movw	r3, #34784	; 0x87e0
 8000b30:	613b      	str	r3, [r7, #16]
                          |OUT_CE2_Pin|OUT_ST_Pin|OUT_fila3_Pin;
  GPIO_InitStruct.Mode = GPIO_MODE_OUTPUT_PP;
 8000b32:	2301      	movs	r3, #1
 8000b34:	617b      	str	r3, [r7, #20]
  GPIO_InitStruct.Pull = GPIO_NOPULL;
 8000b36:	2300      	movs	r3, #0
 8000b38:	61bb      	str	r3, [r7, #24]
  GPIO_InitStruct.Speed = GPIO_SPEED_FREQ_LOW;
 8000b3a:	2302      	movs	r3, #2
 8000b3c:	61fb      	str	r3, [r7, #28]
  HAL_GPIO_Init(GPIOA, &GPIO_InitStruct);
 8000b3e:	f107 0310 	add.w	r3, r7, #16
 8000b42:	4619      	mov	r1, r3
 8000b44:	480b      	ldr	r0, [pc, #44]	; (8000b74 <MX_GPIO_Init+0xec>)
 8000b46:	f001 faf7 	bl	8002138 <HAL_GPIO_Init>

  /*Configure GPIO pins : PBPin PBPin PBPin PBPin
                           PBPin */
  GPIO_InitStruct.Pin = OUT_GLCD_RST_Pin|OUT_PL_Pin|OUT_fila2_Pin|OUT_fila1_Pin
 8000b4a:	f241 0339 	movw	r3, #4153	; 0x1039
 8000b4e:	613b      	str	r3, [r7, #16]
                          |OUT_fila0_Pin;
  GPIO_InitStruct.Mode = GPIO_MODE_OUTPUT_PP;
 8000b50:	2301      	movs	r3, #1
 8000b52:	617b      	str	r3, [r7, #20]
  GPIO_InitStruct.Pull = GPIO_NOPULL;
 8000b54:	2300      	movs	r3, #0
 8000b56:	61bb      	str	r3, [r7, #24]
  GPIO_InitStruct.Speed = GPIO_SPEED_FREQ_LOW;
 8000b58:	2302      	movs	r3, #2
 8000b5a:	61fb      	str	r3, [r7, #28]
  HAL_GPIO_Init(GPIOB, &GPIO_InitStruct);
 8000b5c:	f107 0310 	add.w	r3, r7, #16
 8000b60:	4619      	mov	r1, r3
 8000b62:	4805      	ldr	r0, [pc, #20]	; (8000b78 <MX_GPIO_Init+0xf0>)
 8000b64:	f001 fae8 	bl	8002138 <HAL_GPIO_Init>

}
 8000b68:	bf00      	nop
 8000b6a:	3720      	adds	r7, #32
 8000b6c:	46bd      	mov	sp, r7
 8000b6e:	bd80      	pop	{r7, pc}
 8000b70:	40021000 	.word	0x40021000
 8000b74:	40010800 	.word	0x40010800
 8000b78:	40010c00 	.word	0x40010c00

08000b7c <update_leds>:

uint8_t demora_rapida = 19; //equivale a 200 ms: (valor + 1)*10ms
uint8_t demora_lenta = 49; //equivale a 500 ms: (valor + 1)*10ms


void update_leds (void){ //LOGICA NEGATIVA
 8000b7c:	b580      	push	{r7, lr}
 8000b7e:	b082      	sub	sp, #8
 8000b80:	af00      	add	r7, sp, #0

	for (uint8_t i=0; i < 6; i++){
 8000b82:	2300      	movs	r3, #0
 8000b84:	71fb      	strb	r3, [r7, #7]
 8000b86:	e03c      	b.n	8000c02 <update_leds+0x86>

		switch (status_led[i]) {
 8000b88:	79fb      	ldrb	r3, [r7, #7]
 8000b8a:	4a2f      	ldr	r2, [pc, #188]	; (8000c48 <update_leds+0xcc>)
 8000b8c:	5cd3      	ldrb	r3, [r2, r3]
 8000b8e:	2b03      	cmp	r3, #3
 8000b90:	d82f      	bhi.n	8000bf2 <update_leds+0x76>
 8000b92:	a201      	add	r2, pc, #4	; (adr r2, 8000b98 <update_leds+0x1c>)
 8000b94:	f852 f023 	ldr.w	pc, [r2, r3, lsl #2]
 8000b98:	08000ba9 	.word	0x08000ba9
 8000b9c:	08000bb9 	.word	0x08000bb9
 8000ba0:	08000bc7 	.word	0x08000bc7
 8000ba4:	08000bdd 	.word	0x08000bdd
			case APAGADO:
				setOutput(OUT_led_tomas + i, 1); //APAGA LED
 8000ba8:	79fb      	ldrb	r3, [r7, #7]
 8000baa:	3306      	adds	r3, #6
 8000bac:	b2db      	uxtb	r3, r3
 8000bae:	2101      	movs	r1, #1
 8000bb0:	4618      	mov	r0, r3
 8000bb2:	f7ff fcd1 	bl	8000558 <setOutput>
			break;
 8000bb6:	e021      	b.n	8000bfc <update_leds+0x80>
			case PRENDIDO:
				setOutput(OUT_led_tomas + i, 0); //PRENDE LED
 8000bb8:	79fb      	ldrb	r3, [r7, #7]
 8000bba:	3306      	adds	r3, #6
 8000bbc:	b2db      	uxtb	r3, r3
 8000bbe:	2100      	movs	r1, #0
 8000bc0:	4618      	mov	r0, r3
 8000bc2:	f7ff fcc9 	bl	8000558 <setOutput>
			case TITILA_LENTO:
				if (!demora_lenta){
 8000bc6:	4b21      	ldr	r3, [pc, #132]	; (8000c4c <update_leds+0xd0>)
 8000bc8:	781b      	ldrb	r3, [r3, #0]
 8000bca:	2b00      	cmp	r3, #0
 8000bcc:	d113      	bne.n	8000bf6 <update_leds+0x7a>
					toggleOutput (OUT_led_tomas + i);
 8000bce:	79fb      	ldrb	r3, [r7, #7]
 8000bd0:	3306      	adds	r3, #6
 8000bd2:	b2db      	uxtb	r3, r3
 8000bd4:	4618      	mov	r0, r3
 8000bd6:	f7ff fceb 	bl	80005b0 <toggleOutput>
					break;
 8000bda:	e00f      	b.n	8000bfc <update_leds+0x80>
				}
			break;
			case TITILA_RAPIDO:
				if (!demora_rapida){
 8000bdc:	4b1c      	ldr	r3, [pc, #112]	; (8000c50 <update_leds+0xd4>)
 8000bde:	781b      	ldrb	r3, [r3, #0]
 8000be0:	2b00      	cmp	r3, #0
 8000be2:	d10a      	bne.n	8000bfa <update_leds+0x7e>
					toggleOutput (OUT_led_tomas + i);
 8000be4:	79fb      	ldrb	r3, [r7, #7]
 8000be6:	3306      	adds	r3, #6
 8000be8:	b2db      	uxtb	r3, r3
 8000bea:	4618      	mov	r0, r3
 8000bec:	f7ff fce0 	bl	80005b0 <toggleOutput>
					break;
 8000bf0:	e004      	b.n	8000bfc <update_leds+0x80>
				}
			break;
			default:
			break;
 8000bf2:	bf00      	nop
 8000bf4:	e002      	b.n	8000bfc <update_leds+0x80>
			break;
 8000bf6:	bf00      	nop
 8000bf8:	e000      	b.n	8000bfc <update_leds+0x80>
			break;
 8000bfa:	bf00      	nop
	for (uint8_t i=0; i < 6; i++){
 8000bfc:	79fb      	ldrb	r3, [r7, #7]
 8000bfe:	3301      	adds	r3, #1
 8000c00:	71fb      	strb	r3, [r7, #7]
 8000c02:	79fb      	ldrb	r3, [r7, #7]
 8000c04:	2b05      	cmp	r3, #5
 8000c06:	d9bf      	bls.n	8000b88 <update_leds+0xc>
		} //end switch status_led

	} //end for uint8_t i...

	if (demora_lenta != 0){
 8000c08:	4b10      	ldr	r3, [pc, #64]	; (8000c4c <update_leds+0xd0>)
 8000c0a:	781b      	ldrb	r3, [r3, #0]
 8000c0c:	2b00      	cmp	r3, #0
 8000c0e:	d006      	beq.n	8000c1e <update_leds+0xa2>
		demora_lenta--;
 8000c10:	4b0e      	ldr	r3, [pc, #56]	; (8000c4c <update_leds+0xd0>)
 8000c12:	781b      	ldrb	r3, [r3, #0]
 8000c14:	3b01      	subs	r3, #1
 8000c16:	b2da      	uxtb	r2, r3
 8000c18:	4b0c      	ldr	r3, [pc, #48]	; (8000c4c <update_leds+0xd0>)
 8000c1a:	701a      	strb	r2, [r3, #0]
 8000c1c:	e002      	b.n	8000c24 <update_leds+0xa8>
	}else{
		demora_lenta = 49;
 8000c1e:	4b0b      	ldr	r3, [pc, #44]	; (8000c4c <update_leds+0xd0>)
 8000c20:	2231      	movs	r2, #49	; 0x31
 8000c22:	701a      	strb	r2, [r3, #0]
	}

	if (demora_rapida != 0){
 8000c24:	4b0a      	ldr	r3, [pc, #40]	; (8000c50 <update_leds+0xd4>)
 8000c26:	781b      	ldrb	r3, [r3, #0]
 8000c28:	2b00      	cmp	r3, #0
 8000c2a:	d006      	beq.n	8000c3a <update_leds+0xbe>
		demora_rapida--;
 8000c2c:	4b08      	ldr	r3, [pc, #32]	; (8000c50 <update_leds+0xd4>)
 8000c2e:	781b      	ldrb	r3, [r3, #0]
 8000c30:	3b01      	subs	r3, #1
 8000c32:	b2da      	uxtb	r2, r3
 8000c34:	4b06      	ldr	r3, [pc, #24]	; (8000c50 <update_leds+0xd4>)
 8000c36:	701a      	strb	r2, [r3, #0]
	}else{
		demora_rapida = 19;
	}

} //end update_leds()
 8000c38:	e002      	b.n	8000c40 <update_leds+0xc4>
		demora_rapida = 19;
 8000c3a:	4b05      	ldr	r3, [pc, #20]	; (8000c50 <update_leds+0xd4>)
 8000c3c:	2213      	movs	r2, #19
 8000c3e:	701a      	strb	r2, [r3, #0]
} //end update_leds()
 8000c40:	bf00      	nop
 8000c42:	3708      	adds	r7, #8
 8000c44:	46bd      	mov	sp, r7
 8000c46:	bd80      	pop	{r7, pc}
 8000c48:	200000a4 	.word	0x200000a4
 8000c4c:	20000003 	.word	0x20000003
 8000c50:	20000002 	.word	0x20000002

08000c54 <main>:
/**
  * @brief  The application entry point.
  * @retval int
  */
int main(void)
{
 8000c54:	b580      	push	{r7, lr}
 8000c56:	b084      	sub	sp, #16
 8000c58:	af04      	add	r7, sp, #16
  /* USER CODE END 1 */

  /* MCU Configuration--------------------------------------------------------*/

  /* Reset of all peripherals, Initializes the Flash interface and the Systick. */
  HAL_Init();
 8000c5a:	f000 fed1 	bl	8001a00 <HAL_Init>
  /* USER CODE BEGIN Init */

  /* USER CODE END Init */

  /* Configure the system clock */
  SystemClock_Config();
 8000c5e:	f000 f87f 	bl	8000d60 <SystemClock_Config>
  /* USER CODE BEGIN SysInit */

  /* USER CODE END SysInit */

  /* Initialize all configured peripherals */
  MX_GPIO_Init();
 8000c62:	f7ff ff11 	bl	8000a88 <MX_GPIO_Init>
  MX_RTC_Init();
 8000c66:	f000 fb87 	bl	8001378 <MX_RTC_Init>
  MX_USART1_UART_Init();
 8000c6a:	f000 fe1f 	bl	80018ac <MX_USART1_UART_Init>
  MX_TIM2_Init();
 8000c6e:	f000 fd4b 	bl	8001708 <MX_TIM2_Init>
  MX_SPI2_Init();
 8000c72:	f000 fc19 	bl	80014a8 <MX_SPI2_Init>
  MX_ADC1_Init();
 8000c76:	f7ff fe45 	bl	8000904 <MX_ADC1_Init>
  MX_TIM3_Init();
 8000c7a:	f000 fd91 	bl	80017a0 <MX_TIM3_Init>
  /* USER CODE BEGIN 2 */

  spi_74HC165_init(&hspi2, OUT_PL_GPIO_Port, OUT_PL_Pin, OUT_CE1_GPIO_Port, OUT_CE1_Pin, OUT_CE2_GPIO_Port, OUT_CE2_Pin);
 8000c7e:	f44f 7300 	mov.w	r3, #512	; 0x200
 8000c82:	9302      	str	r3, [sp, #8]
 8000c84:	4b2b      	ldr	r3, [pc, #172]	; (8000d34 <main+0xe0>)
 8000c86:	9301      	str	r3, [sp, #4]
 8000c88:	f44f 7380 	mov.w	r3, #256	; 0x100
 8000c8c:	9300      	str	r3, [sp, #0]
 8000c8e:	4b29      	ldr	r3, [pc, #164]	; (8000d34 <main+0xe0>)
 8000c90:	f44f 5280 	mov.w	r2, #4096	; 0x1000
 8000c94:	4928      	ldr	r1, [pc, #160]	; (8000d38 <main+0xe4>)
 8000c96:	4829      	ldr	r0, [pc, #164]	; (8000d3c <main+0xe8>)
 8000c98:	f7ff fa58 	bl	800014c <spi_74HC165_init>
  spi_74HC595_init(&hspi2, OUT_ST_GPIO_Port, OUT_ST_Pin);
 8000c9c:	f44f 6280 	mov.w	r2, #1024	; 0x400
 8000ca0:	4924      	ldr	r1, [pc, #144]	; (8000d34 <main+0xe0>)
 8000ca2:	4826      	ldr	r0, [pc, #152]	; (8000d3c <main+0xe8>)
 8000ca4:	f7ff fafa 	bl	800029c <spi_74HC595_init>

  HAL_TIM_Base_Start_IT(&htim2); //ticks eery 10 ms.
 8000ca8:	4825      	ldr	r0, [pc, #148]	; (8000d40 <main+0xec>)
 8000caa:	f003 fda5 	bl	80047f8 <HAL_TIM_Base_Start_IT>


  start_menu();
 8000cae:	f000 f8db 	bl	8000e68 <start_menu>

  /* Infinite loop */
  /* USER CODE BEGIN WHILE */
  while (1)
  {
	  if (flag_tick){ //ticks every 10 ms.
 8000cb2:	4b24      	ldr	r3, [pc, #144]	; (8000d44 <main+0xf0>)
 8000cb4:	781b      	ldrb	r3, [r3, #0]
 8000cb6:	2b00      	cmp	r3, #0
 8000cb8:	d039      	beq.n	8000d2e <main+0xda>

		  //segun el proyecto "MAQUINA_MD":
		  HAL_RTC_GetTime(&hrtc, &hora, RTC_FORMAT_BIN);
 8000cba:	2200      	movs	r2, #0
 8000cbc:	4922      	ldr	r1, [pc, #136]	; (8000d48 <main+0xf4>)
 8000cbe:	4823      	ldr	r0, [pc, #140]	; (8000d4c <main+0xf8>)
 8000cc0:	f002 fa8c 	bl	80031dc <HAL_RTC_GetTime>
		  //HAL_RTC_GetTime(&hrtc, &aux_tiempo, RTC_FORMAT_BIN);
		  HAL_RTC_GetDate(&hrtc, &aux_fecha, RTC_FORMAT_BIN);
 8000cc4:	2200      	movs	r2, #0
 8000cc6:	4922      	ldr	r1, [pc, #136]	; (8000d50 <main+0xfc>)
 8000cc8:	4820      	ldr	r0, [pc, #128]	; (8000d4c <main+0xf8>)
 8000cca:	f002 fc15 	bl	80034f8 <HAL_RTC_GetDate>

		  update_teclas();
 8000cce:	f7ff fbe5 	bl	800049c <update_teclas>

		  if (flag_lecturas != 0){ //para demorar las lecturas de teclas cada 30 ms.
 8000cd2:	4b20      	ldr	r3, [pc, #128]	; (8000d54 <main+0x100>)
 8000cd4:	781b      	ldrb	r3, [r3, #0]
 8000cd6:	2b00      	cmp	r3, #0
 8000cd8:	d006      	beq.n	8000ce8 <main+0x94>
			  flag_lecturas--;
 8000cda:	4b1e      	ldr	r3, [pc, #120]	; (8000d54 <main+0x100>)
 8000cdc:	781b      	ldrb	r3, [r3, #0]
 8000cde:	3b01      	subs	r3, #1
 8000ce0:	b2da      	uxtb	r2, r3
 8000ce2:	4b1c      	ldr	r3, [pc, #112]	; (8000d54 <main+0x100>)
 8000ce4:	701a      	strb	r2, [r3, #0]
 8000ce6:	e004      	b.n	8000cf2 <main+0x9e>
		  }else{
			  lecturaTeclas();
 8000ce8:	f7ff fb96 	bl	8000418 <lecturaTeclas>

			  flag_lecturas = 2;
 8000cec:	4b19      	ldr	r3, [pc, #100]	; (8000d54 <main+0x100>)
 8000cee:	2202      	movs	r2, #2
 8000cf0:	701a      	strb	r2, [r3, #0]
		  }

		  if (flag_salidas != 0){ //para demorar la escritura de las salidas cada 100 ms.
 8000cf2:	4b19      	ldr	r3, [pc, #100]	; (8000d58 <main+0x104>)
 8000cf4:	781b      	ldrb	r3, [r3, #0]
 8000cf6:	2b00      	cmp	r3, #0
 8000cf8:	d006      	beq.n	8000d08 <main+0xb4>
			  flag_salidas--;
 8000cfa:	4b17      	ldr	r3, [pc, #92]	; (8000d58 <main+0x104>)
 8000cfc:	781b      	ldrb	r3, [r3, #0]
 8000cfe:	3b01      	subs	r3, #1
 8000d00:	b2da      	uxtb	r2, r3
 8000d02:	4b15      	ldr	r3, [pc, #84]	; (8000d58 <main+0x104>)
 8000d04:	701a      	strb	r2, [r3, #0]
 8000d06:	e006      	b.n	8000d16 <main+0xc2>
		  }else{
			  update_leds();
 8000d08:	f7ff ff38 	bl	8000b7c <update_leds>
			  update_outputs();
 8000d0c:	f7ff fc68 	bl	80005e0 <update_outputs>

			  flag_salidas = 9;
 8000d10:	4b11      	ldr	r3, [pc, #68]	; (8000d58 <main+0x104>)
 8000d12:	2209      	movs	r2, #9
 8000d14:	701a      	strb	r2, [r3, #0]
		  }

		  if (refresh_pantalla != 0){ //refresca cada 300 ms
 8000d16:	4b11      	ldr	r3, [pc, #68]	; (8000d5c <main+0x108>)
 8000d18:	781b      	ldrb	r3, [r3, #0]
 8000d1a:	2b00      	cmp	r3, #0
 8000d1c:	d004      	beq.n	8000d28 <main+0xd4>
			  pantallaUpdate();
 8000d1e:	f7ff fea3 	bl	8000a68 <pantallaUpdate>
			  refresh_pantalla = 29;
 8000d22:	4b0e      	ldr	r3, [pc, #56]	; (8000d5c <main+0x108>)
 8000d24:	221d      	movs	r2, #29
 8000d26:	701a      	strb	r2, [r3, #0]
		  }


		  flag_tick = 0;
 8000d28:	4b06      	ldr	r3, [pc, #24]	; (8000d44 <main+0xf0>)
 8000d2a:	2200      	movs	r2, #0
 8000d2c:	701a      	strb	r2, [r3, #0]
	  }//end if flag_tick

	  check_menu();
 8000d2e:	f000 f8ab 	bl	8000e88 <check_menu>
	  if (flag_tick){ //ticks every 10 ms.
 8000d32:	e7be      	b.n	8000cb2 <main+0x5e>
 8000d34:	40010800 	.word	0x40010800
 8000d38:	40010c00 	.word	0x40010c00
 8000d3c:	20000568 	.word	0x20000568
 8000d40:	20000600 	.word	0x20000600
 8000d44:	200000b0 	.word	0x200000b0
 8000d48:	20000548 	.word	0x20000548
 8000d4c:	20000554 	.word	0x20000554
 8000d50:	200000ac 	.word	0x200000ac
 8000d54:	20000000 	.word	0x20000000
 8000d58:	20000001 	.word	0x20000001
 8000d5c:	20000004 	.word	0x20000004

08000d60 <SystemClock_Config>:
/**
  * @brief System Clock Configuration
  * @retval None
  */
void SystemClock_Config(void)
{
 8000d60:	b580      	push	{r7, lr}
 8000d62:	b094      	sub	sp, #80	; 0x50
 8000d64:	af00      	add	r7, sp, #0
  RCC_OscInitTypeDef RCC_OscInitStruct = {0};
 8000d66:	f107 0328 	add.w	r3, r7, #40	; 0x28
 8000d6a:	2228      	movs	r2, #40	; 0x28
 8000d6c:	2100      	movs	r1, #0
 8000d6e:	4618      	mov	r0, r3
 8000d70:	f004 f9e2 	bl	8005138 <memset>
  RCC_ClkInitTypeDef RCC_ClkInitStruct = {0};
 8000d74:	f107 0314 	add.w	r3, r7, #20
 8000d78:	2200      	movs	r2, #0
 8000d7a:	601a      	str	r2, [r3, #0]
 8000d7c:	605a      	str	r2, [r3, #4]
 8000d7e:	609a      	str	r2, [r3, #8]
 8000d80:	60da      	str	r2, [r3, #12]
 8000d82:	611a      	str	r2, [r3, #16]
  RCC_PeriphCLKInitTypeDef PeriphClkInit = {0};
 8000d84:	1d3b      	adds	r3, r7, #4
 8000d86:	2200      	movs	r2, #0
 8000d88:	601a      	str	r2, [r3, #0]
 8000d8a:	605a      	str	r2, [r3, #4]
 8000d8c:	609a      	str	r2, [r3, #8]
 8000d8e:	60da      	str	r2, [r3, #12]

  /** Initializes the RCC Oscillators according to the specified parameters
  * in the RCC_OscInitTypeDef structure.
  */
  RCC_OscInitStruct.OscillatorType = RCC_OSCILLATORTYPE_LSI|RCC_OSCILLATORTYPE_HSE;
 8000d90:	2309      	movs	r3, #9
 8000d92:	62bb      	str	r3, [r7, #40]	; 0x28
  RCC_OscInitStruct.HSEState = RCC_HSE_ON;
 8000d94:	f44f 3380 	mov.w	r3, #65536	; 0x10000
 8000d98:	62fb      	str	r3, [r7, #44]	; 0x2c
  RCC_OscInitStruct.HSEPredivValue = RCC_HSE_PREDIV_DIV1;
 8000d9a:	2300      	movs	r3, #0
 8000d9c:	633b      	str	r3, [r7, #48]	; 0x30
  RCC_OscInitStruct.HSIState = RCC_HSI_ON;
 8000d9e:	2301      	movs	r3, #1
 8000da0:	63bb      	str	r3, [r7, #56]	; 0x38
  RCC_OscInitStruct.LSIState = RCC_LSI_ON;
 8000da2:	2301      	movs	r3, #1
 8000da4:	643b      	str	r3, [r7, #64]	; 0x40
  RCC_OscInitStruct.PLL.PLLState = RCC_PLL_ON;
 8000da6:	2302      	movs	r3, #2
 8000da8:	647b      	str	r3, [r7, #68]	; 0x44
  RCC_OscInitStruct.PLL.PLLSource = RCC_PLLSOURCE_HSE;
 8000daa:	f44f 3380 	mov.w	r3, #65536	; 0x10000
 8000dae:	64bb      	str	r3, [r7, #72]	; 0x48
  RCC_OscInitStruct.PLL.PLLMUL = RCC_PLL_MUL9;
 8000db0:	f44f 13e0 	mov.w	r3, #1835008	; 0x1c0000
 8000db4:	64fb      	str	r3, [r7, #76]	; 0x4c
  if (HAL_RCC_OscConfig(&RCC_OscInitStruct) != HAL_OK)
 8000db6:	f107 0328 	add.w	r3, r7, #40	; 0x28
 8000dba:	4618      	mov	r0, r3
 8000dbc:	f001 fb52 	bl	8002464 <HAL_RCC_OscConfig>
 8000dc0:	4603      	mov	r3, r0
 8000dc2:	2b00      	cmp	r3, #0
 8000dc4:	d001      	beq.n	8000dca <SystemClock_Config+0x6a>
  {
    Error_Handler();
 8000dc6:	f000 f849 	bl	8000e5c <Error_Handler>
  }
  /** Initializes the CPU, AHB and APB buses clocks
  */
  RCC_ClkInitStruct.ClockType = RCC_CLOCKTYPE_HCLK|RCC_CLOCKTYPE_SYSCLK
 8000dca:	230f      	movs	r3, #15
 8000dcc:	617b      	str	r3, [r7, #20]
                              |RCC_CLOCKTYPE_PCLK1|RCC_CLOCKTYPE_PCLK2;
  RCC_ClkInitStruct.SYSCLKSource = RCC_SYSCLKSOURCE_PLLCLK;
 8000dce:	2302      	movs	r3, #2
 8000dd0:	61bb      	str	r3, [r7, #24]
  RCC_ClkInitStruct.AHBCLKDivider = RCC_SYSCLK_DIV1;
 8000dd2:	2300      	movs	r3, #0
 8000dd4:	61fb      	str	r3, [r7, #28]
  RCC_ClkInitStruct.APB1CLKDivider = RCC_HCLK_DIV2;
 8000dd6:	f44f 6380 	mov.w	r3, #1024	; 0x400
 8000dda:	623b      	str	r3, [r7, #32]
  RCC_ClkInitStruct.APB2CLKDivider = RCC_HCLK_DIV1;
 8000ddc:	2300      	movs	r3, #0
 8000dde:	627b      	str	r3, [r7, #36]	; 0x24

  if (HAL_RCC_ClockConfig(&RCC_ClkInitStruct, FLASH_LATENCY_2) != HAL_OK)
 8000de0:	f107 0314 	add.w	r3, r7, #20
 8000de4:	2102      	movs	r1, #2
 8000de6:	4618      	mov	r0, r3
 8000de8:	f001 fdbc 	bl	8002964 <HAL_RCC_ClockConfig>
 8000dec:	4603      	mov	r3, r0
 8000dee:	2b00      	cmp	r3, #0
 8000df0:	d001      	beq.n	8000df6 <SystemClock_Config+0x96>
  {
    Error_Handler();
 8000df2:	f000 f833 	bl	8000e5c <Error_Handler>
  }
  PeriphClkInit.PeriphClockSelection = RCC_PERIPHCLK_RTC|RCC_PERIPHCLK_ADC;
 8000df6:	2303      	movs	r3, #3
 8000df8:	607b      	str	r3, [r7, #4]
  PeriphClkInit.RTCClockSelection = RCC_RTCCLKSOURCE_LSI;
 8000dfa:	f44f 7300 	mov.w	r3, #512	; 0x200
 8000dfe:	60bb      	str	r3, [r7, #8]
  PeriphClkInit.AdcClockSelection = RCC_ADCPCLK2_DIV6;
 8000e00:	f44f 4300 	mov.w	r3, #32768	; 0x8000
 8000e04:	60fb      	str	r3, [r7, #12]
  if (HAL_RCCEx_PeriphCLKConfig(&PeriphClkInit) != HAL_OK)
 8000e06:	1d3b      	adds	r3, r7, #4
 8000e08:	4618      	mov	r0, r3
 8000e0a:	f001 ff47 	bl	8002c9c <HAL_RCCEx_PeriphCLKConfig>
 8000e0e:	4603      	mov	r3, r0
 8000e10:	2b00      	cmp	r3, #0
 8000e12:	d001      	beq.n	8000e18 <SystemClock_Config+0xb8>
  {
    Error_Handler();
 8000e14:	f000 f822 	bl	8000e5c <Error_Handler>
  }
}
 8000e18:	bf00      	nop
 8000e1a:	3750      	adds	r7, #80	; 0x50
 8000e1c:	46bd      	mov	sp, r7
 8000e1e:	bd80      	pop	{r7, pc}

08000e20 <HAL_TIM_PeriodElapsedCallback>:

/* USER CODE BEGIN 4 */
void HAL_TIM_PeriodElapsedCallback(TIM_HandleTypeDef *htim){
 8000e20:	b480      	push	{r7}
 8000e22:	b083      	sub	sp, #12
 8000e24:	af00      	add	r7, sp, #0
 8000e26:	6078      	str	r0, [r7, #4]
	if (htim->Instance == TIM2){
 8000e28:	687b      	ldr	r3, [r7, #4]
 8000e2a:	681b      	ldr	r3, [r3, #0]
 8000e2c:	f1b3 4f80 	cmp.w	r3, #1073741824	; 0x40000000
 8000e30:	d102      	bne.n	8000e38 <HAL_TIM_PeriodElapsedCallback+0x18>
		flag_tick = 1;
 8000e32:	4b04      	ldr	r3, [pc, #16]	; (8000e44 <HAL_TIM_PeriodElapsedCallback+0x24>)
 8000e34:	2201      	movs	r2, #1
 8000e36:	701a      	strb	r2, [r3, #0]
	}
}
 8000e38:	bf00      	nop
 8000e3a:	370c      	adds	r7, #12
 8000e3c:	46bd      	mov	sp, r7
 8000e3e:	bc80      	pop	{r7}
 8000e40:	4770      	bx	lr
 8000e42:	bf00      	nop
 8000e44:	200000b0 	.word	0x200000b0

08000e48 <HAL_RTC_AlarmAEventCallback>:

void HAL_RTC_AlarmAEventCallback(RTC_HandleTypeDef *hrtc){
 8000e48:	b480      	push	{r7}
 8000e4a:	b083      	sub	sp, #12
 8000e4c:	af00      	add	r7, sp, #0
 8000e4e:	6078      	str	r0, [r7, #4]
	__NOP();
 8000e50:	bf00      	nop
}
 8000e52:	bf00      	nop
 8000e54:	370c      	adds	r7, #12
 8000e56:	46bd      	mov	sp, r7
 8000e58:	bc80      	pop	{r7}
 8000e5a:	4770      	bx	lr

08000e5c <Error_Handler>:
/**
  * @brief  This function is executed in case of error occurrence.
  * @retval None
  */
void Error_Handler(void)
{
 8000e5c:	b480      	push	{r7}
 8000e5e:	af00      	add	r7, sp, #0
  /* USER CODE BEGIN Error_Handler_Debug */
  /* User can add his own implementation to report the HAL error return state */

  /* USER CODE END Error_Handler_Debug */
}
 8000e60:	bf00      	nop
 8000e62:	46bd      	mov	sp, r7
 8000e64:	bc80      	pop	{r7}
 8000e66:	4770      	bx	lr

08000e68 <start_menu>:
T_STATUS_LUCESEXT status_menuLucesExt = LIMITE_TIEMPO_LUCESEXT;

/////////////////////////////////////////
//         FUNCIONES PUBLICAS          //
/////////////////////////////////////////
void start_menu (void){
 8000e68:	b580      	push	{r7, lr}
 8000e6a:	af00      	add	r7, sp, #0
	init_pantalla();
 8000e6c:	f7ff fde6 	bl	8000a3c <init_pantalla>
	init_menuPrincipal();
 8000e70:	f000 f814 	bl	8000e9c <init_menuPrincipal>
	menuActual = &menu[MENU_PRINCIPAL];
 8000e74:	4b02      	ldr	r3, [pc, #8]	; (8000e80 <start_menu+0x18>)
 8000e76:	4a03      	ldr	r2, [pc, #12]	; (8000e84 <start_menu+0x1c>)
 8000e78:	601a      	str	r2, [r3, #0]
}
 8000e7a:	bf00      	nop
 8000e7c:	bd80      	pop	{r7, pc}
 8000e7e:	bf00      	nop
 8000e80:	2000054c 	.word	0x2000054c
 8000e84:	20000008 	.word	0x20000008

08000e88 <check_menu>:

void check_menu (void){
 8000e88:	b580      	push	{r7, lr}
 8000e8a:	af00      	add	r7, sp, #0
	menuActual->accion();
 8000e8c:	4b02      	ldr	r3, [pc, #8]	; (8000e98 <check_menu+0x10>)
 8000e8e:	681b      	ldr	r3, [r3, #0]
 8000e90:	68db      	ldr	r3, [r3, #12]
 8000e92:	4798      	blx	r3
}
 8000e94:	bf00      	nop
 8000e96:	bd80      	pop	{r7, pc}
 8000e98:	2000054c 	.word	0x2000054c

08000e9c <init_menuPrincipal>:

/////////////////////////////////////////
//          INICIALIZADORES            //
/////////////////////////////////////////

void init_menuPrincipal (void){
 8000e9c:	b580      	push	{r7, lr}
 8000e9e:	af00      	add	r7, sp, #0
	set_pantalla("Estoy en el menu principal");
 8000ea0:	4802      	ldr	r0, [pc, #8]	; (8000eac <init_menuPrincipal+0x10>)
 8000ea2:	f7ff fdd3 	bl	8000a4c <set_pantalla>
//	menuActual = &menu[MENU_PRINCIPAL];
}
 8000ea6:	bf00      	nop
 8000ea8:	bd80      	pop	{r7, pc}
 8000eaa:	bf00      	nop
 8000eac:	08005160 	.word	0x08005160

08000eb0 <init_llenado>:

void init_llenado (void){
 8000eb0:	b580      	push	{r7, lr}
 8000eb2:	af00      	add	r7, sp, #0

	switch (status_menuLlenado) {
 8000eb4:	4b06      	ldr	r3, [pc, #24]	; (8000ed0 <init_llenado+0x20>)
 8000eb6:	781b      	ldrb	r3, [r3, #0]
 8000eb8:	2b00      	cmp	r3, #0
 8000eba:	d103      	bne.n	8000ec4 <init_llenado+0x14>
		case PREGUNTA_SENSOR:
			set_pantalla("Sensor conectado?");
 8000ebc:	4805      	ldr	r0, [pc, #20]	; (8000ed4 <init_llenado+0x24>)
 8000ebe:	f7ff fdc5 	bl	8000a4c <set_pantalla>
		break;
 8000ec2:	e003      	b.n	8000ecc <init_llenado+0x1c>
		default:
			set_pantalla("Llenando. terminar?");
 8000ec4:	4804      	ldr	r0, [pc, #16]	; (8000ed8 <init_llenado+0x28>)
 8000ec6:	f7ff fdc1 	bl	8000a4c <set_pantalla>
			//status_menuLlenado = 90;
		break;
 8000eca:	bf00      	nop
	} //end switch status_menuTablero
} //end init_llenado()
 8000ecc:	bf00      	nop
 8000ece:	bd80      	pop	{r7, pc}
 8000ed0:	200000b1 	.word	0x200000b1
 8000ed4:	0800517c 	.word	0x0800517c
 8000ed8:	08005190 	.word	0x08005190

08000edc <init_skimmer>:

void init_skimmer (void){
 8000edc:	b580      	push	{r7, lr}
 8000ede:	af00      	add	r7, sp, #0
	set_pantalla("COMPRUEBE LE ESTADO DE LA BOMBA");
 8000ee0:	4802      	ldr	r0, [pc, #8]	; (8000eec <init_skimmer+0x10>)
 8000ee2:	f7ff fdb3 	bl	8000a4c <set_pantalla>
}
 8000ee6:	bf00      	nop
 8000ee8:	bd80      	pop	{r7, pc}
 8000eea:	bf00      	nop
 8000eec:	080051a4 	.word	0x080051a4

08000ef0 <init_hidro>:

void init_hidro (void){
 8000ef0:	b580      	push	{r7, lr}
 8000ef2:	af00      	add	r7, sp, #0
	set_pantalla("LIMITE DE TIEMPO");
 8000ef4:	4802      	ldr	r0, [pc, #8]	; (8000f00 <init_hidro+0x10>)
 8000ef6:	f7ff fda9 	bl	8000a4c <set_pantalla>
}
 8000efa:	bf00      	nop
 8000efc:	bd80      	pop	{r7, pc}
 8000efe:	bf00      	nop
 8000f00:	080051c4 	.word	0x080051c4

08000f04 <init_lucesExt>:

void init_lucesExt (void){
 8000f04:	b580      	push	{r7, lr}
 8000f06:	af00      	add	r7, sp, #0
	set_pantalla("LIMITE DE TIEMPO");
 8000f08:	4802      	ldr	r0, [pc, #8]	; (8000f14 <init_lucesExt+0x10>)
 8000f0a:	f7ff fd9f 	bl	8000a4c <set_pantalla>
}
 8000f0e:	bf00      	nop
 8000f10:	bd80      	pop	{r7, pc}
 8000f12:	bf00      	nop
 8000f14:	080051c4 	.word	0x080051c4

08000f18 <init_lucesLed>:

void init_lucesLed (void){
 8000f18:	b480      	push	{r7}
 8000f1a:	af00      	add	r7, sp, #0

}
 8000f1c:	bf00      	nop
 8000f1e:	46bd      	mov	sp, r7
 8000f20:	bc80      	pop	{r7}
 8000f22:	4770      	bx	lr

08000f24 <init_config>:

void init_config (void){
 8000f24:	b480      	push	{r7}
 8000f26:	af00      	add	r7, sp, #0

}
 8000f28:	bf00      	nop
 8000f2a:	46bd      	mov	sp, r7
 8000f2c:	bc80      	pop	{r7}
 8000f2e:	4770      	bx	lr

08000f30 <acc_menuPrincipal>:

/////////////////////////////////////////
//            ACCIONES                 //
/////////////////////////////////////////

void acc_menuPrincipal (void){
 8000f30:	b580      	push	{r7, lr}
 8000f32:	af00      	add	r7, sp, #0

	if (getStatBoton(IN_napa)==FALL){
 8000f34:	2013      	movs	r0, #19
 8000f36:	f7ff facf 	bl	80004d8 <getStatBoton>
 8000f3a:	4603      	mov	r3, r0
 8000f3c:	2b02      	cmp	r3, #2
 8000f3e:	d10b      	bne.n	8000f58 <acc_menuPrincipal+0x28>
		menuActual = &menu[MENU_LLENADO];
 8000f40:	4b0f      	ldr	r3, [pc, #60]	; (8000f80 <acc_menuPrincipal+0x50>)
 8000f42:	4a10      	ldr	r2, [pc, #64]	; (8000f84 <acc_menuPrincipal+0x54>)
 8000f44:	601a      	str	r2, [r3, #0]
		menuActual->menuAnterior = &menu[MENU_PRINCIPAL];
 8000f46:	4b0e      	ldr	r3, [pc, #56]	; (8000f80 <acc_menuPrincipal+0x50>)
 8000f48:	681b      	ldr	r3, [r3, #0]
 8000f4a:	4a0f      	ldr	r2, [pc, #60]	; (8000f88 <acc_menuPrincipal+0x58>)
 8000f4c:	605a      	str	r2, [r3, #4]
		menuActual->inicia_menu();
 8000f4e:	4b0c      	ldr	r3, [pc, #48]	; (8000f80 <acc_menuPrincipal+0x50>)
 8000f50:	681b      	ldr	r3, [r3, #0]
 8000f52:	689b      	ldr	r3, [r3, #8]
 8000f54:	4798      	blx	r3
		return;
 8000f56:	e011      	b.n	8000f7c <acc_menuPrincipal+0x4c>
	}

	if (getStatBoton(IN_jet)==FALL){
 8000f58:	2014      	movs	r0, #20
 8000f5a:	f7ff fabd 	bl	80004d8 <getStatBoton>
 8000f5e:	4603      	mov	r3, r0
 8000f60:	2b02      	cmp	r3, #2
 8000f62:	d10b      	bne.n	8000f7c <acc_menuPrincipal+0x4c>
		menuActual = &menu[MENU_HIDRO];
 8000f64:	4b06      	ldr	r3, [pc, #24]	; (8000f80 <acc_menuPrincipal+0x50>)
 8000f66:	4a09      	ldr	r2, [pc, #36]	; (8000f8c <acc_menuPrincipal+0x5c>)
 8000f68:	601a      	str	r2, [r3, #0]
		menuActual->menuAnterior = &menu[MENU_PRINCIPAL];
 8000f6a:	4b05      	ldr	r3, [pc, #20]	; (8000f80 <acc_menuPrincipal+0x50>)
 8000f6c:	681b      	ldr	r3, [r3, #0]
 8000f6e:	4a06      	ldr	r2, [pc, #24]	; (8000f88 <acc_menuPrincipal+0x58>)
 8000f70:	605a      	str	r2, [r3, #4]
		menuActual->inicia_menu();
 8000f72:	4b03      	ldr	r3, [pc, #12]	; (8000f80 <acc_menuPrincipal+0x50>)
 8000f74:	681b      	ldr	r3, [r3, #0]
 8000f76:	689b      	ldr	r3, [r3, #8]
 8000f78:	4798      	blx	r3
		return;
 8000f7a:	bf00      	nop
	}
}
 8000f7c:	bd80      	pop	{r7, pc}
 8000f7e:	bf00      	nop
 8000f80:	2000054c 	.word	0x2000054c
 8000f84:	20000018 	.word	0x20000018
 8000f88:	20000008 	.word	0x20000008
 8000f8c:	20000038 	.word	0x20000038

08000f90 <acc_llenado>:

void acc_llenado (void){
 8000f90:	b580      	push	{r7, lr}
 8000f92:	af00      	add	r7, sp, #0

	switch (status_menuLlenado) {
 8000f94:	4b49      	ldr	r3, [pc, #292]	; (80010bc <acc_llenado+0x12c>)
 8000f96:	781b      	ldrb	r3, [r3, #0]
 8000f98:	2b04      	cmp	r3, #4
 8000f9a:	f200 8086 	bhi.w	80010aa <acc_llenado+0x11a>
 8000f9e:	a201      	add	r2, pc, #4	; (adr r2, 8000fa4 <acc_llenado+0x14>)
 8000fa0:	f852 f023 	ldr.w	pc, [r2, r3, lsl #2]
 8000fa4:	08000fb9 	.word	0x08000fb9
 8000fa8:	08000fed 	.word	0x08000fed
 8000fac:	08001023 	.word	0x08001023
 8000fb0:	08001057 	.word	0x08001057
 8000fb4:	08001073 	.word	0x08001073
		case PREGUNTA_SENSOR:

			if (getStatBoton(IN_HASH) == FALL) { //CONFIRMO
 8000fb8:	200e      	movs	r0, #14
 8000fba:	f7ff fa8d 	bl	80004d8 <getStatBoton>
 8000fbe:	4603      	mov	r3, r0
 8000fc0:	2b02      	cmp	r3, #2
 8000fc2:	d106      	bne.n	8000fd2 <acc_llenado+0x42>
				set_pantalla("COMPRUEBE EL SENSOR Y PULSE EL BOTON...");
 8000fc4:	483e      	ldr	r0, [pc, #248]	; (80010c0 <acc_llenado+0x130>)
 8000fc6:	f7ff fd41 	bl	8000a4c <set_pantalla>
				status_menuLlenado = COMPRUEBE_SENSOR;
 8000fca:	4b3c      	ldr	r3, [pc, #240]	; (80010bc <acc_llenado+0x12c>)
 8000fcc:	2202      	movs	r2, #2
 8000fce:	701a      	strb	r2, [r3, #0]
				break;
 8000fd0:	e072      	b.n	80010b8 <acc_llenado+0x128>
			}

			if (getStatBoton(IN_AST) == FALL) { //niego
 8000fd2:	200c      	movs	r0, #12
 8000fd4:	f7ff fa80 	bl	80004d8 <getStatBoton>
 8000fd8:	4603      	mov	r3, r0
 8000fda:	2b02      	cmp	r3, #2
 8000fdc:	d167      	bne.n	80010ae <acc_llenado+0x11e>
				set_pantalla("CONECTE EL SENSOR");
 8000fde:	4839      	ldr	r0, [pc, #228]	; (80010c4 <acc_llenado+0x134>)
 8000fe0:	f7ff fd34 	bl	8000a4c <set_pantalla>
				status_menuLlenado = CONECTE_SENSOR;
 8000fe4:	4b35      	ldr	r3, [pc, #212]	; (80010bc <acc_llenado+0x12c>)
 8000fe6:	2201      	movs	r2, #1
 8000fe8:	701a      	strb	r2, [r3, #0]
				break;
 8000fea:	e065      	b.n	80010b8 <acc_llenado+0x128>
			}

		break;
		case CONECTE_SENSOR:

			if (getStatBoton(IN_AST) == FALL) { //volver
 8000fec:	200c      	movs	r0, #12
 8000fee:	f7ff fa73 	bl	80004d8 <getStatBoton>
 8000ff2:	4603      	mov	r3, r0
 8000ff4:	2b02      	cmp	r3, #2
 8000ff6:	d107      	bne.n	8001008 <acc_llenado+0x78>
				//vuelve al menu principal
				menuActual = &menu[MENU_PRINCIPAL];
 8000ff8:	4b33      	ldr	r3, [pc, #204]	; (80010c8 <acc_llenado+0x138>)
 8000ffa:	4a34      	ldr	r2, [pc, #208]	; (80010cc <acc_llenado+0x13c>)
 8000ffc:	601a      	str	r2, [r3, #0]
				menuActual->inicia_menu();
 8000ffe:	4b32      	ldr	r3, [pc, #200]	; (80010c8 <acc_llenado+0x138>)
 8001000:	681b      	ldr	r3, [r3, #0]
 8001002:	689b      	ldr	r3, [r3, #8]
 8001004:	4798      	blx	r3
				break;
 8001006:	e057      	b.n	80010b8 <acc_llenado+0x128>
			}

			if (getStatBoton(IN_HASH) == FALL) { //CONFIRMO
 8001008:	200e      	movs	r0, #14
 800100a:	f7ff fa65 	bl	80004d8 <getStatBoton>
 800100e:	4603      	mov	r3, r0
 8001010:	2b02      	cmp	r3, #2
 8001012:	d14e      	bne.n	80010b2 <acc_llenado+0x122>
				set_pantalla("¿Sensor conectado?");
 8001014:	482e      	ldr	r0, [pc, #184]	; (80010d0 <acc_llenado+0x140>)
 8001016:	f7ff fd19 	bl	8000a4c <set_pantalla>
				status_menuLlenado = PREGUNTA_SENSOR;
 800101a:	4b28      	ldr	r3, [pc, #160]	; (80010bc <acc_llenado+0x12c>)
 800101c:	2200      	movs	r2, #0
 800101e:	701a      	strb	r2, [r3, #0]
				break;
 8001020:	e04a      	b.n	80010b8 <acc_llenado+0x128>
			}
		break;
		case COMPRUEBE_SENSOR:

			if (getStatBoton(IN_HASH) == FALL) { //CONFIRMO
 8001022:	200e      	movs	r0, #14
 8001024:	f7ff fa58 	bl	80004d8 <getStatBoton>
 8001028:	4603      	mov	r3, r0
 800102a:	2b02      	cmp	r3, #2
 800102c:	d106      	bne.n	800103c <acc_llenado+0xac>
				set_pantalla("llenando...");
 800102e:	4829      	ldr	r0, [pc, #164]	; (80010d4 <acc_llenado+0x144>)
 8001030:	f7ff fd0c 	bl	8000a4c <set_pantalla>
				status_menuLlenado = LLENANDO;
 8001034:	4b21      	ldr	r3, [pc, #132]	; (80010bc <acc_llenado+0x12c>)
 8001036:	2203      	movs	r2, #3
 8001038:	701a      	strb	r2, [r3, #0]
				//funcion de llenado de pileta (biblio de funciones automaticas)
				break;
 800103a:	e03d      	b.n	80010b8 <acc_llenado+0x128>
			}

			if (getStatBoton(IN_AST) == FALL) { //volver
 800103c:	200c      	movs	r0, #12
 800103e:	f7ff fa4b 	bl	80004d8 <getStatBoton>
 8001042:	4603      	mov	r3, r0
 8001044:	2b02      	cmp	r3, #2
 8001046:	d136      	bne.n	80010b6 <acc_llenado+0x126>
				set_pantalla("¿Sensor conectado?");
 8001048:	4821      	ldr	r0, [pc, #132]	; (80010d0 <acc_llenado+0x140>)
 800104a:	f7ff fcff 	bl	8000a4c <set_pantalla>
				status_menuLlenado = PREGUNTA_SENSOR;
 800104e:	4b1b      	ldr	r3, [pc, #108]	; (80010bc <acc_llenado+0x12c>)
 8001050:	2200      	movs	r2, #0
 8001052:	701a      	strb	r2, [r3, #0]
				break;
 8001054:	e030      	b.n	80010b8 <acc_llenado+0x128>
			}

		break;
		case LLENANDO:

			if (!HAL_GPIO_ReadPin(IN_nivelAgua_GPIO_Port, IN_nivelAgua_Pin)) { //LOGICA NEGATIVA
 8001056:	2104      	movs	r1, #4
 8001058:	481f      	ldr	r0, [pc, #124]	; (80010d8 <acc_llenado+0x148>)
 800105a:	f001 f9c7 	bl	80023ec <HAL_GPIO_ReadPin>
 800105e:	4603      	mov	r3, r0
 8001060:	2b00      	cmp	r3, #0
 8001062:	d106      	bne.n	8001072 <acc_llenado+0xe2>
				set_pantalla("pileta llena.");
 8001064:	481d      	ldr	r0, [pc, #116]	; (80010dc <acc_llenado+0x14c>)
 8001066:	f7ff fcf1 	bl	8000a4c <set_pantalla>
				status_menuLlenado = PILETA_LLENA;
 800106a:	4b14      	ldr	r3, [pc, #80]	; (80010bc <acc_llenado+0x12c>)
 800106c:	2204      	movs	r2, #4
 800106e:	701a      	strb	r2, [r3, #0]
				break;
 8001070:	e022      	b.n	80010b8 <acc_llenado+0x128>
			}
		case PILETA_LLENA:
			if (getStatBoton(IN_HASH) == FALL) { //CONFIRMO
 8001072:	200e      	movs	r0, #14
 8001074:	f7ff fa30 	bl	80004d8 <getStatBoton>
 8001078:	4603      	mov	r3, r0
 800107a:	2b02      	cmp	r3, #2
 800107c:	d107      	bne.n	800108e <acc_llenado+0xfe>
				//vuelve al menu principal
				menuActual = &menu[MENU_PRINCIPAL];
 800107e:	4b12      	ldr	r3, [pc, #72]	; (80010c8 <acc_llenado+0x138>)
 8001080:	4a12      	ldr	r2, [pc, #72]	; (80010cc <acc_llenado+0x13c>)
 8001082:	601a      	str	r2, [r3, #0]
				menuActual->inicia_menu();
 8001084:	4b10      	ldr	r3, [pc, #64]	; (80010c8 <acc_llenado+0x138>)
 8001086:	681b      	ldr	r3, [r3, #0]
 8001088:	689b      	ldr	r3, [r3, #8]
 800108a:	4798      	blx	r3
				break;
 800108c:	e014      	b.n	80010b8 <acc_llenado+0x128>
			}

			if (getStatBoton(IN_AST) == FALL) { //volver
 800108e:	200c      	movs	r0, #12
 8001090:	f7ff fa22 	bl	80004d8 <getStatBoton>
 8001094:	4603      	mov	r3, r0
 8001096:	2b02      	cmp	r3, #2
 8001098:	d107      	bne.n	80010aa <acc_llenado+0x11a>
				//vuelve al menu principal
				menuActual = &menu[MENU_PRINCIPAL];
 800109a:	4b0b      	ldr	r3, [pc, #44]	; (80010c8 <acc_llenado+0x138>)
 800109c:	4a0b      	ldr	r2, [pc, #44]	; (80010cc <acc_llenado+0x13c>)
 800109e:	601a      	str	r2, [r3, #0]
				menuActual->inicia_menu();
 80010a0:	4b09      	ldr	r3, [pc, #36]	; (80010c8 <acc_llenado+0x138>)
 80010a2:	681b      	ldr	r3, [r3, #0]
 80010a4:	689b      	ldr	r3, [r3, #8]
 80010a6:	4798      	blx	r3
				break;
 80010a8:	e006      	b.n	80010b8 <acc_llenado+0x128>
			}

		default:
		break;
 80010aa:	bf00      	nop
 80010ac:	e004      	b.n	80010b8 <acc_llenado+0x128>
		break;
 80010ae:	bf00      	nop
 80010b0:	e002      	b.n	80010b8 <acc_llenado+0x128>
		break;
 80010b2:	bf00      	nop
 80010b4:	e000      	b.n	80010b8 <acc_llenado+0x128>
		break;
 80010b6:	bf00      	nop
	} //end switch status_menuLlenado

} //end acc_llenado ()
 80010b8:	bf00      	nop
 80010ba:	bd80      	pop	{r7, pc}
 80010bc:	200000b1 	.word	0x200000b1
 80010c0:	080051d8 	.word	0x080051d8
 80010c4:	08005200 	.word	0x08005200
 80010c8:	2000054c 	.word	0x2000054c
 80010cc:	20000008 	.word	0x20000008
 80010d0:	08005214 	.word	0x08005214
 80010d4:	08005228 	.word	0x08005228
 80010d8:	40010800 	.word	0x40010800
 80010dc:	08005234 	.word	0x08005234

080010e0 <acc_skimmer>:

void acc_skimmer (void){
 80010e0:	b580      	push	{r7, lr}
 80010e2:	af00      	add	r7, sp, #0
	switch (status_menuSkimmer) {
 80010e4:	4b69      	ldr	r3, [pc, #420]	; (800128c <acc_skimmer+0x1ac>)
 80010e6:	781b      	ldrb	r3, [r3, #0]
 80010e8:	2b08      	cmp	r3, #8
 80010ea:	f200 80cd 	bhi.w	8001288 <acc_skimmer+0x1a8>
 80010ee:	a201      	add	r2, pc, #4	; (adr r2, 80010f4 <acc_skimmer+0x14>)
 80010f0:	f852 f023 	ldr.w	pc, [r2, r3, lsl #2]
 80010f4:	08001119 	.word	0x08001119
 80010f8:	0800114f 	.word	0x0800114f
 80010fc:	08001189 	.word	0x08001189
 8001100:	08001273 	.word	0x08001273
 8001104:	08001273 	.word	0x08001273
 8001108:	080011d7 	.word	0x080011d7
 800110c:	08001225 	.word	0x08001225
 8001110:	08001273 	.word	0x08001273
 8001114:	08001273 	.word	0x08001273
		case COMPRUEBE_BOMBA:
			if (getStatBoton(IN_AST) == FALL) {
 8001118:	200c      	movs	r0, #12
 800111a:	f7ff f9dd 	bl	80004d8 <getStatBoton>
 800111e:	4603      	mov	r3, r0
 8001120:	2b02      	cmp	r3, #2
 8001122:	d106      	bne.n	8001132 <acc_skimmer+0x52>
				//vuelve al menu principal
				menuActual = &menu[MENU_PRINCIPAL];
 8001124:	4b5a      	ldr	r3, [pc, #360]	; (8001290 <acc_skimmer+0x1b0>)
 8001126:	4a5b      	ldr	r2, [pc, #364]	; (8001294 <acc_skimmer+0x1b4>)
 8001128:	601a      	str	r2, [r3, #0]
				menuActual->inicia_menu();
 800112a:	4b59      	ldr	r3, [pc, #356]	; (8001290 <acc_skimmer+0x1b0>)
 800112c:	681b      	ldr	r3, [r3, #0]
 800112e:	689b      	ldr	r3, [r3, #8]
 8001130:	4798      	blx	r3
			}

			if (getStatBoton(IN_HASH) == FALL) {
 8001132:	200e      	movs	r0, #14
 8001134:	f7ff f9d0 	bl	80004d8 <getStatBoton>
 8001138:	4603      	mov	r3, r0
 800113a:	2b02      	cmp	r3, #2
 800113c:	f040 809b 	bne.w	8001276 <acc_skimmer+0x196>
				set_pantalla("elija freecuecia u horario");
 8001140:	4855      	ldr	r0, [pc, #340]	; (8001298 <acc_skimmer+0x1b8>)
 8001142:	f7ff fc83 	bl	8000a4c <set_pantalla>
				status_menuSkimmer = OPCIONES_SKIMMER;
 8001146:	4b51      	ldr	r3, [pc, #324]	; (800128c <acc_skimmer+0x1ac>)
 8001148:	2201      	movs	r2, #1
 800114a:	701a      	strb	r2, [r3, #0]
				break;
 800114c:	e09c      	b.n	8001288 <acc_skimmer+0x1a8>
			}
		break;
		case OPCIONES_SKIMMER:
			if (getStatBoton(IN_AST) == FALL) {
 800114e:	200c      	movs	r0, #12
 8001150:	f7ff f9c2 	bl	80004d8 <getStatBoton>
				//vuelve al menu principal
			}

			if (getStatBoton(IN_1) == FALL) {
 8001154:	2000      	movs	r0, #0
 8001156:	f7ff f9bf 	bl	80004d8 <getStatBoton>
 800115a:	4603      	mov	r3, r0
 800115c:	2b02      	cmp	r3, #2
 800115e:	d106      	bne.n	800116e <acc_skimmer+0x8e>
				set_pantalla("elijo timepo ON o timepo OFF");
 8001160:	484e      	ldr	r0, [pc, #312]	; (800129c <acc_skimmer+0x1bc>)
 8001162:	f7ff fc73 	bl	8000a4c <set_pantalla>
				status_menuSkimmer = ELIJE_FRECUENCIA_SKIMMER;
 8001166:	4b49      	ldr	r3, [pc, #292]	; (800128c <acc_skimmer+0x1ac>)
 8001168:	2202      	movs	r2, #2
 800116a:	701a      	strb	r2, [r3, #0]
				break;
 800116c:	e08c      	b.n	8001288 <acc_skimmer+0x1a8>
			}

			if (getStatBoton(IN_2) == FALL) {
 800116e:	2001      	movs	r0, #1
 8001170:	f7ff f9b2 	bl	80004d8 <getStatBoton>
 8001174:	4603      	mov	r3, r0
 8001176:	2b02      	cmp	r3, #2
 8001178:	d17f      	bne.n	800127a <acc_skimmer+0x19a>
				set_pantalla("elijo programa 1 o programa 2");
 800117a:	4849      	ldr	r0, [pc, #292]	; (80012a0 <acc_skimmer+0x1c0>)
 800117c:	f7ff fc66 	bl	8000a4c <set_pantalla>
				status_menuSkimmer = ELIJE_PROGRAMA_SKIMMER;
 8001180:	4b42      	ldr	r3, [pc, #264]	; (800128c <acc_skimmer+0x1ac>)
 8001182:	2205      	movs	r2, #5
 8001184:	701a      	strb	r2, [r3, #0]
				break;
 8001186:	e07f      	b.n	8001288 <acc_skimmer+0x1a8>
			}
		break;
		case ELIJE_FRECUENCIA_SKIMMER:
			if (getStatBoton(IN_1) == FALL) {
 8001188:	2000      	movs	r0, #0
 800118a:	f7ff f9a5 	bl	80004d8 <getStatBoton>
 800118e:	4603      	mov	r3, r0
 8001190:	2b02      	cmp	r3, #2
 8001192:	d106      	bne.n	80011a2 <acc_skimmer+0xc2>
				set_pantalla("defina el tiempo de duracion ON:");
 8001194:	4843      	ldr	r0, [pc, #268]	; (80012a4 <acc_skimmer+0x1c4>)
 8001196:	f7ff fc59 	bl	8000a4c <set_pantalla>
				status_menuSkimmer = PERIODO_ON_SKIMMER;
 800119a:	4b3c      	ldr	r3, [pc, #240]	; (800128c <acc_skimmer+0x1ac>)
 800119c:	2203      	movs	r2, #3
 800119e:	701a      	strb	r2, [r3, #0]
				break;
 80011a0:	e072      	b.n	8001288 <acc_skimmer+0x1a8>
			}

			if (getStatBoton(IN_2) == FALL) {
 80011a2:	2001      	movs	r0, #1
 80011a4:	f7ff f998 	bl	80004d8 <getStatBoton>
 80011a8:	4603      	mov	r3, r0
 80011aa:	2b02      	cmp	r3, #2
 80011ac:	d106      	bne.n	80011bc <acc_skimmer+0xdc>
				set_pantalla("defina el tiempo de duracion OFF:");
 80011ae:	483e      	ldr	r0, [pc, #248]	; (80012a8 <acc_skimmer+0x1c8>)
 80011b0:	f7ff fc4c 	bl	8000a4c <set_pantalla>
				status_menuSkimmer = PERIODO_OFF_SKIMMER;
 80011b4:	4b35      	ldr	r3, [pc, #212]	; (800128c <acc_skimmer+0x1ac>)
 80011b6:	2204      	movs	r2, #4
 80011b8:	701a      	strb	r2, [r3, #0]
				break;
 80011ba:	e065      	b.n	8001288 <acc_skimmer+0x1a8>
			}

			if (getStatBoton(IN_AST) == FALL) {
 80011bc:	200c      	movs	r0, #12
 80011be:	f7ff f98b 	bl	80004d8 <getStatBoton>
 80011c2:	4603      	mov	r3, r0
 80011c4:	2b02      	cmp	r3, #2
 80011c6:	d15a      	bne.n	800127e <acc_skimmer+0x19e>
				set_pantalla("elija freecuecia u horario");
 80011c8:	4833      	ldr	r0, [pc, #204]	; (8001298 <acc_skimmer+0x1b8>)
 80011ca:	f7ff fc3f 	bl	8000a4c <set_pantalla>
				status_menuSkimmer = OPCIONES_SKIMMER;
 80011ce:	4b2f      	ldr	r3, [pc, #188]	; (800128c <acc_skimmer+0x1ac>)
 80011d0:	2201      	movs	r2, #1
 80011d2:	701a      	strb	r2, [r3, #0]
				break;
 80011d4:	e058      	b.n	8001288 <acc_skimmer+0x1a8>
		break;
		case PERIODO_OFF_SKIMMER:
			//funcion de seteo de periodo off
		break;
		case ELIJE_PROGRAMA_SKIMMER:
			if (getStatBoton(IN_1) == FALL) {
 80011d6:	2000      	movs	r0, #0
 80011d8:	f7ff f97e 	bl	80004d8 <getStatBoton>
 80011dc:	4603      	mov	r3, r0
 80011de:	2b02      	cmp	r3, #2
 80011e0:	d106      	bne.n	80011f0 <acc_skimmer+0x110>
				//levanta el flag de modificar el programa 1
				set_pantalla("elije horario ON u horario OFF");
 80011e2:	4832      	ldr	r0, [pc, #200]	; (80012ac <acc_skimmer+0x1cc>)
 80011e4:	f7ff fc32 	bl	8000a4c <set_pantalla>
				status_menuSkimmer = ELIJE_ON_OFF_HORARIO_SKIMMER;
 80011e8:	4b28      	ldr	r3, [pc, #160]	; (800128c <acc_skimmer+0x1ac>)
 80011ea:	2206      	movs	r2, #6
 80011ec:	701a      	strb	r2, [r3, #0]
				break;
 80011ee:	e04b      	b.n	8001288 <acc_skimmer+0x1a8>
			}

			if (getStatBoton(IN_2) == FALL) {
 80011f0:	2001      	movs	r0, #1
 80011f2:	f7ff f971 	bl	80004d8 <getStatBoton>
 80011f6:	4603      	mov	r3, r0
 80011f8:	2b02      	cmp	r3, #2
 80011fa:	d106      	bne.n	800120a <acc_skimmer+0x12a>
				//levanta el flag de modificar el programa 2
				set_pantalla("elije horario ON u horario OFF");
 80011fc:	482b      	ldr	r0, [pc, #172]	; (80012ac <acc_skimmer+0x1cc>)
 80011fe:	f7ff fc25 	bl	8000a4c <set_pantalla>
				status_menuSkimmer = ELIJE_ON_OFF_HORARIO_SKIMMER;
 8001202:	4b22      	ldr	r3, [pc, #136]	; (800128c <acc_skimmer+0x1ac>)
 8001204:	2206      	movs	r2, #6
 8001206:	701a      	strb	r2, [r3, #0]
				break;
 8001208:	e03e      	b.n	8001288 <acc_skimmer+0x1a8>
			}

			if (getStatBoton(IN_AST) == FALL) {
 800120a:	200c      	movs	r0, #12
 800120c:	f7ff f964 	bl	80004d8 <getStatBoton>
 8001210:	4603      	mov	r3, r0
 8001212:	2b02      	cmp	r3, #2
 8001214:	d135      	bne.n	8001282 <acc_skimmer+0x1a2>
				set_pantalla("elija freecuecia u horario");
 8001216:	4820      	ldr	r0, [pc, #128]	; (8001298 <acc_skimmer+0x1b8>)
 8001218:	f7ff fc18 	bl	8000a4c <set_pantalla>
				status_menuSkimmer = OPCIONES_SKIMMER;
 800121c:	4b1b      	ldr	r3, [pc, #108]	; (800128c <acc_skimmer+0x1ac>)
 800121e:	2201      	movs	r2, #1
 8001220:	701a      	strb	r2, [r3, #0]
				break;
 8001222:	e031      	b.n	8001288 <acc_skimmer+0x1a8>
			}
		break;
		case ELIJE_ON_OFF_HORARIO_SKIMMER:
			if (getStatBoton(IN_1) == FALL) {
 8001224:	2000      	movs	r0, #0
 8001226:	f7ff f957 	bl	80004d8 <getStatBoton>
 800122a:	4603      	mov	r3, r0
 800122c:	2b02      	cmp	r3, #2
 800122e:	d106      	bne.n	800123e <acc_skimmer+0x15e>
				//levanta el flag de modificar el horario ON
				set_pantalla("defina el horario ON");
 8001230:	481f      	ldr	r0, [pc, #124]	; (80012b0 <acc_skimmer+0x1d0>)
 8001232:	f7ff fc0b 	bl	8000a4c <set_pantalla>
				status_menuSkimmer = HORARIO_ON_SKIMMER;
 8001236:	4b15      	ldr	r3, [pc, #84]	; (800128c <acc_skimmer+0x1ac>)
 8001238:	2207      	movs	r2, #7
 800123a:	701a      	strb	r2, [r3, #0]
				break;
 800123c:	e024      	b.n	8001288 <acc_skimmer+0x1a8>
			}

			if (getStatBoton(IN_2) == FALL) {
 800123e:	2001      	movs	r0, #1
 8001240:	f7ff f94a 	bl	80004d8 <getStatBoton>
 8001244:	4603      	mov	r3, r0
 8001246:	2b02      	cmp	r3, #2
 8001248:	d106      	bne.n	8001258 <acc_skimmer+0x178>
				//levanta el flag de modificar el horario OFF
				set_pantalla("defina el horario OFF");
 800124a:	481a      	ldr	r0, [pc, #104]	; (80012b4 <acc_skimmer+0x1d4>)
 800124c:	f7ff fbfe 	bl	8000a4c <set_pantalla>
				status_menuSkimmer = HORARIO_OFF_SKIMMER;
 8001250:	4b0e      	ldr	r3, [pc, #56]	; (800128c <acc_skimmer+0x1ac>)
 8001252:	2208      	movs	r2, #8
 8001254:	701a      	strb	r2, [r3, #0]
				break;
 8001256:	e017      	b.n	8001288 <acc_skimmer+0x1a8>
			}

			if (getStatBoton(IN_AST) == FALL) {
 8001258:	200c      	movs	r0, #12
 800125a:	f7ff f93d 	bl	80004d8 <getStatBoton>
 800125e:	4603      	mov	r3, r0
 8001260:	2b02      	cmp	r3, #2
 8001262:	d110      	bne.n	8001286 <acc_skimmer+0x1a6>
				set_pantalla("elijo programa 1 o programa 2");
 8001264:	480e      	ldr	r0, [pc, #56]	; (80012a0 <acc_skimmer+0x1c0>)
 8001266:	f7ff fbf1 	bl	8000a4c <set_pantalla>
				status_menuSkimmer = ELIJE_PROGRAMA_SKIMMER;
 800126a:	4b08      	ldr	r3, [pc, #32]	; (800128c <acc_skimmer+0x1ac>)
 800126c:	2205      	movs	r2, #5
 800126e:	701a      	strb	r2, [r3, #0]
				break;
 8001270:	e00a      	b.n	8001288 <acc_skimmer+0x1a8>
		break;
 8001272:	bf00      	nop
 8001274:	e008      	b.n	8001288 <acc_skimmer+0x1a8>
		break;
 8001276:	bf00      	nop
 8001278:	e006      	b.n	8001288 <acc_skimmer+0x1a8>
		break;
 800127a:	bf00      	nop
 800127c:	e004      	b.n	8001288 <acc_skimmer+0x1a8>
		break;
 800127e:	bf00      	nop
 8001280:	e002      	b.n	8001288 <acc_skimmer+0x1a8>
		break;
 8001282:	bf00      	nop
 8001284:	e000      	b.n	8001288 <acc_skimmer+0x1a8>
			}
		break;
 8001286:	bf00      	nop
		break;
		case HORARIO_OFF_SKIMMER:
			//funcion de seteo de horario off
		break;
	} //end switch status_menuSkimmer
} //end acc_skimmer()
 8001288:	bf00      	nop
 800128a:	bd80      	pop	{r7, pc}
 800128c:	200000b2 	.word	0x200000b2
 8001290:	2000054c 	.word	0x2000054c
 8001294:	20000008 	.word	0x20000008
 8001298:	08005244 	.word	0x08005244
 800129c:	08005260 	.word	0x08005260
 80012a0:	08005280 	.word	0x08005280
 80012a4:	080052a0 	.word	0x080052a0
 80012a8:	080052c4 	.word	0x080052c4
 80012ac:	080052e8 	.word	0x080052e8
 80012b0:	08005308 	.word	0x08005308
 80012b4:	08005320 	.word	0x08005320

080012b8 <acc_hidro>:

void acc_hidro (void){
 80012b8:	b580      	push	{r7, lr}
 80012ba:	af00      	add	r7, sp, #0

	switch (status_menuHidro) {
 80012bc:	4b10      	ldr	r3, [pc, #64]	; (8001300 <acc_hidro+0x48>)
 80012be:	781b      	ldrb	r3, [r3, #0]
 80012c0:	2b00      	cmp	r3, #0
 80012c2:	d001      	beq.n	80012c8 <acc_hidro+0x10>
 80012c4:	2b01      	cmp	r3, #1
				break;
			}
		break;
		case ELIJE_TIEMPO_HIDRO:
			//funcion de seteo de timepo de hidro
		break;
 80012c6:	e018      	b.n	80012fa <acc_hidro+0x42>
			if (getStatBoton(IN_AST) == FALL) {
 80012c8:	200c      	movs	r0, #12
 80012ca:	f7ff f905 	bl	80004d8 <getStatBoton>
 80012ce:	4603      	mov	r3, r0
 80012d0:	2b02      	cmp	r3, #2
 80012d2:	d107      	bne.n	80012e4 <acc_hidro+0x2c>
				menuActual = &menu[MENU_PRINCIPAL];
 80012d4:	4b0b      	ldr	r3, [pc, #44]	; (8001304 <acc_hidro+0x4c>)
 80012d6:	4a0c      	ldr	r2, [pc, #48]	; (8001308 <acc_hidro+0x50>)
 80012d8:	601a      	str	r2, [r3, #0]
				menuActual->inicia_menu();
 80012da:	4b0a      	ldr	r3, [pc, #40]	; (8001304 <acc_hidro+0x4c>)
 80012dc:	681b      	ldr	r3, [r3, #0]
 80012de:	689b      	ldr	r3, [r3, #8]
 80012e0:	4798      	blx	r3
				break;
 80012e2:	e00a      	b.n	80012fa <acc_hidro+0x42>
			if (getStatBoton(IN_HASH) == FALL) {
 80012e4:	200e      	movs	r0, #14
 80012e6:	f7ff f8f7 	bl	80004d8 <getStatBoton>
 80012ea:	4603      	mov	r3, r0
 80012ec:	2b02      	cmp	r3, #2
 80012ee:	d103      	bne.n	80012f8 <acc_hidro+0x40>
				status_menuHidro = ELIJE_TIEMPO_HIDRO;
 80012f0:	4b03      	ldr	r3, [pc, #12]	; (8001300 <acc_hidro+0x48>)
 80012f2:	2201      	movs	r2, #1
 80012f4:	701a      	strb	r2, [r3, #0]
				break;
 80012f6:	e000      	b.n	80012fa <acc_hidro+0x42>
		break;
 80012f8:	bf00      	nop
	} //end switch status_menuHidro

} //end acc_hidro()
 80012fa:	bf00      	nop
 80012fc:	bd80      	pop	{r7, pc}
 80012fe:	bf00      	nop
 8001300:	200000b3 	.word	0x200000b3
 8001304:	2000054c 	.word	0x2000054c
 8001308:	20000008 	.word	0x20000008

0800130c <acc_lucesExt>:

void acc_lucesExt (void){ //luces Amarillas
 800130c:	b580      	push	{r7, lr}
 800130e:	af00      	add	r7, sp, #0
	switch (status_menuLucesExt) {
 8001310:	4b0f      	ldr	r3, [pc, #60]	; (8001350 <acc_lucesExt+0x44>)
 8001312:	781b      	ldrb	r3, [r3, #0]
 8001314:	2b00      	cmp	r3, #0
 8001316:	d001      	beq.n	800131c <acc_lucesExt+0x10>
 8001318:	2b01      	cmp	r3, #1
					break;
				}
			break;
			case ELIJE_TIEMPO_LUCESEXT:
				//funcion de seteo de timepo de hidro
			break;
 800131a:	e017      	b.n	800134c <acc_lucesExt+0x40>
				if (getStatBoton(IN_AST) == FALL) {
 800131c:	200c      	movs	r0, #12
 800131e:	f7ff f8db 	bl	80004d8 <getStatBoton>
 8001322:	4603      	mov	r3, r0
 8001324:	2b02      	cmp	r3, #2
 8001326:	d106      	bne.n	8001336 <acc_lucesExt+0x2a>
					menuActual = &menu[MENU_PRINCIPAL];
 8001328:	4b0a      	ldr	r3, [pc, #40]	; (8001354 <acc_lucesExt+0x48>)
 800132a:	4a0b      	ldr	r2, [pc, #44]	; (8001358 <acc_lucesExt+0x4c>)
 800132c:	601a      	str	r2, [r3, #0]
					menuActual->inicia_menu();
 800132e:	4b09      	ldr	r3, [pc, #36]	; (8001354 <acc_lucesExt+0x48>)
 8001330:	681b      	ldr	r3, [r3, #0]
 8001332:	689b      	ldr	r3, [r3, #8]
 8001334:	4798      	blx	r3
				if (getStatBoton(IN_HASH) == FALL) {
 8001336:	200e      	movs	r0, #14
 8001338:	f7ff f8ce 	bl	80004d8 <getStatBoton>
 800133c:	4603      	mov	r3, r0
 800133e:	2b02      	cmp	r3, #2
 8001340:	d103      	bne.n	800134a <acc_lucesExt+0x3e>
					status_menuHidro = ELIJE_TIEMPO_LUCESEXT;
 8001342:	4b06      	ldr	r3, [pc, #24]	; (800135c <acc_lucesExt+0x50>)
 8001344:	2201      	movs	r2, #1
 8001346:	701a      	strb	r2, [r3, #0]
					break;
 8001348:	e000      	b.n	800134c <acc_lucesExt+0x40>
			break;
 800134a:	bf00      	nop
		} //end switch status_menuLucesExt
} //end acc_lucesExt()
 800134c:	bf00      	nop
 800134e:	bd80      	pop	{r7, pc}
 8001350:	200000b4 	.word	0x200000b4
 8001354:	2000054c 	.word	0x2000054c
 8001358:	20000008 	.word	0x20000008
 800135c:	200000b3 	.word	0x200000b3

08001360 <acc_lucesLed>:

void acc_lucesLed (void){
 8001360:	b480      	push	{r7}
 8001362:	af00      	add	r7, sp, #0

}
 8001364:	bf00      	nop
 8001366:	46bd      	mov	sp, r7
 8001368:	bc80      	pop	{r7}
 800136a:	4770      	bx	lr

0800136c <acc_config>:

void acc_config (void){
 800136c:	b480      	push	{r7}
 800136e:	af00      	add	r7, sp, #0

}
 8001370:	bf00      	nop
 8001372:	46bd      	mov	sp, r7
 8001374:	bc80      	pop	{r7}
 8001376:	4770      	bx	lr

08001378 <MX_RTC_Init>:

RTC_HandleTypeDef hrtc;

/* RTC init function */
void MX_RTC_Init(void)
{
 8001378:	b580      	push	{r7, lr}
 800137a:	b084      	sub	sp, #16
 800137c:	af00      	add	r7, sp, #0
  RTC_TimeTypeDef sTime = {0};
 800137e:	f107 030c 	add.w	r3, r7, #12
 8001382:	2100      	movs	r1, #0
 8001384:	460a      	mov	r2, r1
 8001386:	801a      	strh	r2, [r3, #0]
 8001388:	460a      	mov	r2, r1
 800138a:	709a      	strb	r2, [r3, #2]
  RTC_DateTypeDef DateToUpdate = {0};
 800138c:	2300      	movs	r3, #0
 800138e:	60bb      	str	r3, [r7, #8]
  RTC_AlarmTypeDef sAlarm = {0};
 8001390:	463b      	mov	r3, r7
 8001392:	2200      	movs	r2, #0
 8001394:	601a      	str	r2, [r3, #0]
 8001396:	605a      	str	r2, [r3, #4]

  /** Initialize RTC Only
  */
  hrtc.Instance = RTC;
 8001398:	4b27      	ldr	r3, [pc, #156]	; (8001438 <MX_RTC_Init+0xc0>)
 800139a:	4a28      	ldr	r2, [pc, #160]	; (800143c <MX_RTC_Init+0xc4>)
 800139c:	601a      	str	r2, [r3, #0]
  hrtc.Init.AsynchPrediv = RTC_AUTO_1_SECOND;
 800139e:	4b26      	ldr	r3, [pc, #152]	; (8001438 <MX_RTC_Init+0xc0>)
 80013a0:	f04f 32ff 	mov.w	r2, #4294967295	; 0xffffffff
 80013a4:	605a      	str	r2, [r3, #4]
  hrtc.Init.OutPut = RTC_OUTPUTSOURCE_ALARM;
 80013a6:	4b24      	ldr	r3, [pc, #144]	; (8001438 <MX_RTC_Init+0xc0>)
 80013a8:	f44f 7280 	mov.w	r2, #256	; 0x100
 80013ac:	609a      	str	r2, [r3, #8]
  if (HAL_RTC_Init(&hrtc) != HAL_OK)
 80013ae:	4822      	ldr	r0, [pc, #136]	; (8001438 <MX_RTC_Init+0xc0>)
 80013b0:	f001 fde6 	bl	8002f80 <HAL_RTC_Init>
 80013b4:	4603      	mov	r3, r0
 80013b6:	2b00      	cmp	r3, #0
 80013b8:	d001      	beq.n	80013be <MX_RTC_Init+0x46>
  {
    Error_Handler();
 80013ba:	f7ff fd4f 	bl	8000e5c <Error_Handler>

  /* USER CODE END Check_RTC_BKUP */

  /** Initialize RTC and set the Time and Date
  */
  sTime.Hours = 0x12;
 80013be:	2312      	movs	r3, #18
 80013c0:	733b      	strb	r3, [r7, #12]
  sTime.Minutes = 0x59;
 80013c2:	2359      	movs	r3, #89	; 0x59
 80013c4:	737b      	strb	r3, [r7, #13]
  sTime.Seconds = 0x30;
 80013c6:	2330      	movs	r3, #48	; 0x30
 80013c8:	73bb      	strb	r3, [r7, #14]

  if (HAL_RTC_SetTime(&hrtc, &sTime, RTC_FORMAT_BCD) != HAL_OK)
 80013ca:	f107 030c 	add.w	r3, r7, #12
 80013ce:	2201      	movs	r2, #1
 80013d0:	4619      	mov	r1, r3
 80013d2:	4819      	ldr	r0, [pc, #100]	; (8001438 <MX_RTC_Init+0xc0>)
 80013d4:	f001 fe6a 	bl	80030ac <HAL_RTC_SetTime>
 80013d8:	4603      	mov	r3, r0
 80013da:	2b00      	cmp	r3, #0
 80013dc:	d001      	beq.n	80013e2 <MX_RTC_Init+0x6a>
  {
    Error_Handler();
 80013de:	f7ff fd3d 	bl	8000e5c <Error_Handler>
  }
  DateToUpdate.WeekDay = RTC_WEEKDAY_MONDAY;
 80013e2:	2301      	movs	r3, #1
 80013e4:	723b      	strb	r3, [r7, #8]
  DateToUpdate.Month = RTC_MONTH_MAY;
 80013e6:	2305      	movs	r3, #5
 80013e8:	727b      	strb	r3, [r7, #9]
  DateToUpdate.Date = 0x1;
 80013ea:	2301      	movs	r3, #1
 80013ec:	72bb      	strb	r3, [r7, #10]
  DateToUpdate.Year = 0x0;
 80013ee:	2300      	movs	r3, #0
 80013f0:	72fb      	strb	r3, [r7, #11]

  if (HAL_RTC_SetDate(&hrtc, &DateToUpdate, RTC_FORMAT_BCD) != HAL_OK)
 80013f2:	f107 0308 	add.w	r3, r7, #8
 80013f6:	2201      	movs	r2, #1
 80013f8:	4619      	mov	r1, r3
 80013fa:	480f      	ldr	r0, [pc, #60]	; (8001438 <MX_RTC_Init+0xc0>)
 80013fc:	f001 ffc6 	bl	800338c <HAL_RTC_SetDate>
 8001400:	4603      	mov	r3, r0
 8001402:	2b00      	cmp	r3, #0
 8001404:	d001      	beq.n	800140a <MX_RTC_Init+0x92>
  {
    Error_Handler();
 8001406:	f7ff fd29 	bl	8000e5c <Error_Handler>
  }
  /** Enable the Alarm A
  */
  sAlarm.AlarmTime.Hours = 0x13;
 800140a:	2313      	movs	r3, #19
 800140c:	703b      	strb	r3, [r7, #0]
  sAlarm.AlarmTime.Minutes = 0x1;
 800140e:	2301      	movs	r3, #1
 8001410:	707b      	strb	r3, [r7, #1]
  sAlarm.AlarmTime.Seconds = 0x0;
 8001412:	2300      	movs	r3, #0
 8001414:	70bb      	strb	r3, [r7, #2]
  sAlarm.Alarm = RTC_ALARM_A;
 8001416:	2300      	movs	r3, #0
 8001418:	607b      	str	r3, [r7, #4]
  if (HAL_RTC_SetAlarm_IT(&hrtc, &sAlarm, RTC_FORMAT_BCD) != HAL_OK)
 800141a:	463b      	mov	r3, r7
 800141c:	2201      	movs	r2, #1
 800141e:	4619      	mov	r1, r3
 8001420:	4805      	ldr	r0, [pc, #20]	; (8001438 <MX_RTC_Init+0xc0>)
 8001422:	f002 f8bd 	bl	80035a0 <HAL_RTC_SetAlarm_IT>
 8001426:	4603      	mov	r3, r0
 8001428:	2b00      	cmp	r3, #0
 800142a:	d001      	beq.n	8001430 <MX_RTC_Init+0xb8>
  {
    Error_Handler();
 800142c:	f7ff fd16 	bl	8000e5c <Error_Handler>
  }

}
 8001430:	bf00      	nop
 8001432:	3710      	adds	r7, #16
 8001434:	46bd      	mov	sp, r7
 8001436:	bd80      	pop	{r7, pc}
 8001438:	20000554 	.word	0x20000554
 800143c:	40002800 	.word	0x40002800

08001440 <HAL_RTC_MspInit>:

void HAL_RTC_MspInit(RTC_HandleTypeDef* rtcHandle)
{
 8001440:	b580      	push	{r7, lr}
 8001442:	b084      	sub	sp, #16
 8001444:	af00      	add	r7, sp, #0
 8001446:	6078      	str	r0, [r7, #4]

  if(rtcHandle->Instance==RTC)
 8001448:	687b      	ldr	r3, [r7, #4]
 800144a:	681b      	ldr	r3, [r3, #0]
 800144c:	4a13      	ldr	r2, [pc, #76]	; (800149c <HAL_RTC_MspInit+0x5c>)
 800144e:	4293      	cmp	r3, r2
 8001450:	d120      	bne.n	8001494 <HAL_RTC_MspInit+0x54>
  {
  /* USER CODE BEGIN RTC_MspInit 0 */

  /* USER CODE END RTC_MspInit 0 */
    HAL_PWR_EnableBkUpAccess();
 8001452:	f000 fffb 	bl	800244c <HAL_PWR_EnableBkUpAccess>
    /* Enable BKP CLK enable for backup registers */
    __HAL_RCC_BKP_CLK_ENABLE();
 8001456:	4b12      	ldr	r3, [pc, #72]	; (80014a0 <HAL_RTC_MspInit+0x60>)
 8001458:	69db      	ldr	r3, [r3, #28]
 800145a:	4a11      	ldr	r2, [pc, #68]	; (80014a0 <HAL_RTC_MspInit+0x60>)
 800145c:	f043 6300 	orr.w	r3, r3, #134217728	; 0x8000000
 8001460:	61d3      	str	r3, [r2, #28]
 8001462:	4b0f      	ldr	r3, [pc, #60]	; (80014a0 <HAL_RTC_MspInit+0x60>)
 8001464:	69db      	ldr	r3, [r3, #28]
 8001466:	f003 6300 	and.w	r3, r3, #134217728	; 0x8000000
 800146a:	60fb      	str	r3, [r7, #12]
 800146c:	68fb      	ldr	r3, [r7, #12]
    /* RTC clock enable */
    __HAL_RCC_RTC_ENABLE();
 800146e:	4b0d      	ldr	r3, [pc, #52]	; (80014a4 <HAL_RTC_MspInit+0x64>)
 8001470:	2201      	movs	r2, #1
 8001472:	601a      	str	r2, [r3, #0]

    /* RTC interrupt Init */
    HAL_NVIC_SetPriority(RTC_IRQn, 0, 0);
 8001474:	2200      	movs	r2, #0
 8001476:	2100      	movs	r1, #0
 8001478:	2003      	movs	r0, #3
 800147a:	f000 fe26 	bl	80020ca <HAL_NVIC_SetPriority>
    HAL_NVIC_EnableIRQ(RTC_IRQn);
 800147e:	2003      	movs	r0, #3
 8001480:	f000 fe3f 	bl	8002102 <HAL_NVIC_EnableIRQ>
    HAL_NVIC_SetPriority(RTC_Alarm_IRQn, 0, 0);
 8001484:	2200      	movs	r2, #0
 8001486:	2100      	movs	r1, #0
 8001488:	2029      	movs	r0, #41	; 0x29
 800148a:	f000 fe1e 	bl	80020ca <HAL_NVIC_SetPriority>
    HAL_NVIC_EnableIRQ(RTC_Alarm_IRQn);
 800148e:	2029      	movs	r0, #41	; 0x29
 8001490:	f000 fe37 	bl	8002102 <HAL_NVIC_EnableIRQ>
  /* USER CODE BEGIN RTC_MspInit 1 */

  /* USER CODE END RTC_MspInit 1 */
  }
}
 8001494:	bf00      	nop
 8001496:	3710      	adds	r7, #16
 8001498:	46bd      	mov	sp, r7
 800149a:	bd80      	pop	{r7, pc}
 800149c:	40002800 	.word	0x40002800
 80014a0:	40021000 	.word	0x40021000
 80014a4:	4242043c 	.word	0x4242043c

080014a8 <MX_SPI2_Init>:

SPI_HandleTypeDef hspi2;

/* SPI2 init function */
void MX_SPI2_Init(void)
{
 80014a8:	b580      	push	{r7, lr}
 80014aa:	af00      	add	r7, sp, #0

  hspi2.Instance = SPI2;
 80014ac:	4b17      	ldr	r3, [pc, #92]	; (800150c <MX_SPI2_Init+0x64>)
 80014ae:	4a18      	ldr	r2, [pc, #96]	; (8001510 <MX_SPI2_Init+0x68>)
 80014b0:	601a      	str	r2, [r3, #0]
  hspi2.Init.Mode = SPI_MODE_MASTER;
 80014b2:	4b16      	ldr	r3, [pc, #88]	; (800150c <MX_SPI2_Init+0x64>)
 80014b4:	f44f 7282 	mov.w	r2, #260	; 0x104
 80014b8:	605a      	str	r2, [r3, #4]
  hspi2.Init.Direction = SPI_DIRECTION_2LINES;
 80014ba:	4b14      	ldr	r3, [pc, #80]	; (800150c <MX_SPI2_Init+0x64>)
 80014bc:	2200      	movs	r2, #0
 80014be:	609a      	str	r2, [r3, #8]
  hspi2.Init.DataSize = SPI_DATASIZE_8BIT;
 80014c0:	4b12      	ldr	r3, [pc, #72]	; (800150c <MX_SPI2_Init+0x64>)
 80014c2:	2200      	movs	r2, #0
 80014c4:	60da      	str	r2, [r3, #12]
  hspi2.Init.CLKPolarity = SPI_POLARITY_LOW;
 80014c6:	4b11      	ldr	r3, [pc, #68]	; (800150c <MX_SPI2_Init+0x64>)
 80014c8:	2200      	movs	r2, #0
 80014ca:	611a      	str	r2, [r3, #16]
  hspi2.Init.CLKPhase = SPI_PHASE_1EDGE;
 80014cc:	4b0f      	ldr	r3, [pc, #60]	; (800150c <MX_SPI2_Init+0x64>)
 80014ce:	2200      	movs	r2, #0
 80014d0:	615a      	str	r2, [r3, #20]
  hspi2.Init.NSS = SPI_NSS_SOFT;
 80014d2:	4b0e      	ldr	r3, [pc, #56]	; (800150c <MX_SPI2_Init+0x64>)
 80014d4:	f44f 7200 	mov.w	r2, #512	; 0x200
 80014d8:	619a      	str	r2, [r3, #24]
  hspi2.Init.BaudRatePrescaler = SPI_BAUDRATEPRESCALER_256;
 80014da:	4b0c      	ldr	r3, [pc, #48]	; (800150c <MX_SPI2_Init+0x64>)
 80014dc:	2238      	movs	r2, #56	; 0x38
 80014de:	61da      	str	r2, [r3, #28]
  hspi2.Init.FirstBit = SPI_FIRSTBIT_MSB;
 80014e0:	4b0a      	ldr	r3, [pc, #40]	; (800150c <MX_SPI2_Init+0x64>)
 80014e2:	2200      	movs	r2, #0
 80014e4:	621a      	str	r2, [r3, #32]
  hspi2.Init.TIMode = SPI_TIMODE_DISABLE;
 80014e6:	4b09      	ldr	r3, [pc, #36]	; (800150c <MX_SPI2_Init+0x64>)
 80014e8:	2200      	movs	r2, #0
 80014ea:	625a      	str	r2, [r3, #36]	; 0x24
  hspi2.Init.CRCCalculation = SPI_CRCCALCULATION_DISABLE;
 80014ec:	4b07      	ldr	r3, [pc, #28]	; (800150c <MX_SPI2_Init+0x64>)
 80014ee:	2200      	movs	r2, #0
 80014f0:	629a      	str	r2, [r3, #40]	; 0x28
  hspi2.Init.CRCPolynomial = 10;
 80014f2:	4b06      	ldr	r3, [pc, #24]	; (800150c <MX_SPI2_Init+0x64>)
 80014f4:	220a      	movs	r2, #10
 80014f6:	62da      	str	r2, [r3, #44]	; 0x2c
  if (HAL_SPI_Init(&hspi2) != HAL_OK)
 80014f8:	4804      	ldr	r0, [pc, #16]	; (800150c <MX_SPI2_Init+0x64>)
 80014fa:	f002 fc15 	bl	8003d28 <HAL_SPI_Init>
 80014fe:	4603      	mov	r3, r0
 8001500:	2b00      	cmp	r3, #0
 8001502:	d001      	beq.n	8001508 <MX_SPI2_Init+0x60>
  {
    Error_Handler();
 8001504:	f7ff fcaa 	bl	8000e5c <Error_Handler>
  }

}
 8001508:	bf00      	nop
 800150a:	bd80      	pop	{r7, pc}
 800150c:	20000568 	.word	0x20000568
 8001510:	40003800 	.word	0x40003800

08001514 <HAL_SPI_MspInit>:

void HAL_SPI_MspInit(SPI_HandleTypeDef* spiHandle)
{
 8001514:	b580      	push	{r7, lr}
 8001516:	b088      	sub	sp, #32
 8001518:	af00      	add	r7, sp, #0
 800151a:	6078      	str	r0, [r7, #4]

  GPIO_InitTypeDef GPIO_InitStruct = {0};
 800151c:	f107 0310 	add.w	r3, r7, #16
 8001520:	2200      	movs	r2, #0
 8001522:	601a      	str	r2, [r3, #0]
 8001524:	605a      	str	r2, [r3, #4]
 8001526:	609a      	str	r2, [r3, #8]
 8001528:	60da      	str	r2, [r3, #12]
  if(spiHandle->Instance==SPI2)
 800152a:	687b      	ldr	r3, [r7, #4]
 800152c:	681b      	ldr	r3, [r3, #0]
 800152e:	4a1c      	ldr	r2, [pc, #112]	; (80015a0 <HAL_SPI_MspInit+0x8c>)
 8001530:	4293      	cmp	r3, r2
 8001532:	d131      	bne.n	8001598 <HAL_SPI_MspInit+0x84>
  {
  /* USER CODE BEGIN SPI2_MspInit 0 */

  /* USER CODE END SPI2_MspInit 0 */
    /* SPI2 clock enable */
    __HAL_RCC_SPI2_CLK_ENABLE();
 8001534:	4b1b      	ldr	r3, [pc, #108]	; (80015a4 <HAL_SPI_MspInit+0x90>)
 8001536:	69db      	ldr	r3, [r3, #28]
 8001538:	4a1a      	ldr	r2, [pc, #104]	; (80015a4 <HAL_SPI_MspInit+0x90>)
 800153a:	f443 4380 	orr.w	r3, r3, #16384	; 0x4000
 800153e:	61d3      	str	r3, [r2, #28]
 8001540:	4b18      	ldr	r3, [pc, #96]	; (80015a4 <HAL_SPI_MspInit+0x90>)
 8001542:	69db      	ldr	r3, [r3, #28]
 8001544:	f403 4380 	and.w	r3, r3, #16384	; 0x4000
 8001548:	60fb      	str	r3, [r7, #12]
 800154a:	68fb      	ldr	r3, [r7, #12]

    __HAL_RCC_GPIOB_CLK_ENABLE();
 800154c:	4b15      	ldr	r3, [pc, #84]	; (80015a4 <HAL_SPI_MspInit+0x90>)
 800154e:	699b      	ldr	r3, [r3, #24]
 8001550:	4a14      	ldr	r2, [pc, #80]	; (80015a4 <HAL_SPI_MspInit+0x90>)
 8001552:	f043 0308 	orr.w	r3, r3, #8
 8001556:	6193      	str	r3, [r2, #24]
 8001558:	4b12      	ldr	r3, [pc, #72]	; (80015a4 <HAL_SPI_MspInit+0x90>)
 800155a:	699b      	ldr	r3, [r3, #24]
 800155c:	f003 0308 	and.w	r3, r3, #8
 8001560:	60bb      	str	r3, [r7, #8]
 8001562:	68bb      	ldr	r3, [r7, #8]
    /**SPI2 GPIO Configuration
    PB13     ------> SPI2_SCK
    PB14     ------> SPI2_MISO
    PB15     ------> SPI2_MOSI
    */
    GPIO_InitStruct.Pin = GPIO_PIN_13|GPIO_PIN_15;
 8001564:	f44f 4320 	mov.w	r3, #40960	; 0xa000
 8001568:	613b      	str	r3, [r7, #16]
    GPIO_InitStruct.Mode = GPIO_MODE_AF_PP;
 800156a:	2302      	movs	r3, #2
 800156c:	617b      	str	r3, [r7, #20]
    GPIO_InitStruct.Speed = GPIO_SPEED_FREQ_HIGH;
 800156e:	2303      	movs	r3, #3
 8001570:	61fb      	str	r3, [r7, #28]
    HAL_GPIO_Init(GPIOB, &GPIO_InitStruct);
 8001572:	f107 0310 	add.w	r3, r7, #16
 8001576:	4619      	mov	r1, r3
 8001578:	480b      	ldr	r0, [pc, #44]	; (80015a8 <HAL_SPI_MspInit+0x94>)
 800157a:	f000 fddd 	bl	8002138 <HAL_GPIO_Init>

    GPIO_InitStruct.Pin = GPIO_PIN_14;
 800157e:	f44f 4380 	mov.w	r3, #16384	; 0x4000
 8001582:	613b      	str	r3, [r7, #16]
    GPIO_InitStruct.Mode = GPIO_MODE_INPUT;
 8001584:	2300      	movs	r3, #0
 8001586:	617b      	str	r3, [r7, #20]
    GPIO_InitStruct.Pull = GPIO_NOPULL;
 8001588:	2300      	movs	r3, #0
 800158a:	61bb      	str	r3, [r7, #24]
    HAL_GPIO_Init(GPIOB, &GPIO_InitStruct);
 800158c:	f107 0310 	add.w	r3, r7, #16
 8001590:	4619      	mov	r1, r3
 8001592:	4805      	ldr	r0, [pc, #20]	; (80015a8 <HAL_SPI_MspInit+0x94>)
 8001594:	f000 fdd0 	bl	8002138 <HAL_GPIO_Init>

  /* USER CODE BEGIN SPI2_MspInit 1 */

  /* USER CODE END SPI2_MspInit 1 */
  }
}
 8001598:	bf00      	nop
 800159a:	3720      	adds	r7, #32
 800159c:	46bd      	mov	sp, r7
 800159e:	bd80      	pop	{r7, pc}
 80015a0:	40003800 	.word	0x40003800
 80015a4:	40021000 	.word	0x40021000
 80015a8:	40010c00 	.word	0x40010c00

080015ac <HAL_MspInit>:
/* USER CODE END 0 */
/**
  * Initializes the Global MSP.
  */
void HAL_MspInit(void)
{
 80015ac:	b480      	push	{r7}
 80015ae:	b085      	sub	sp, #20
 80015b0:	af00      	add	r7, sp, #0
  /* USER CODE BEGIN MspInit 0 */

  /* USER CODE END MspInit 0 */

  __HAL_RCC_AFIO_CLK_ENABLE();
 80015b2:	4b15      	ldr	r3, [pc, #84]	; (8001608 <HAL_MspInit+0x5c>)
 80015b4:	699b      	ldr	r3, [r3, #24]
 80015b6:	4a14      	ldr	r2, [pc, #80]	; (8001608 <HAL_MspInit+0x5c>)
 80015b8:	f043 0301 	orr.w	r3, r3, #1
 80015bc:	6193      	str	r3, [r2, #24]
 80015be:	4b12      	ldr	r3, [pc, #72]	; (8001608 <HAL_MspInit+0x5c>)
 80015c0:	699b      	ldr	r3, [r3, #24]
 80015c2:	f003 0301 	and.w	r3, r3, #1
 80015c6:	60bb      	str	r3, [r7, #8]
 80015c8:	68bb      	ldr	r3, [r7, #8]
  __HAL_RCC_PWR_CLK_ENABLE();
 80015ca:	4b0f      	ldr	r3, [pc, #60]	; (8001608 <HAL_MspInit+0x5c>)
 80015cc:	69db      	ldr	r3, [r3, #28]
 80015ce:	4a0e      	ldr	r2, [pc, #56]	; (8001608 <HAL_MspInit+0x5c>)
 80015d0:	f043 5380 	orr.w	r3, r3, #268435456	; 0x10000000
 80015d4:	61d3      	str	r3, [r2, #28]
 80015d6:	4b0c      	ldr	r3, [pc, #48]	; (8001608 <HAL_MspInit+0x5c>)
 80015d8:	69db      	ldr	r3, [r3, #28]
 80015da:	f003 5380 	and.w	r3, r3, #268435456	; 0x10000000
 80015de:	607b      	str	r3, [r7, #4]
 80015e0:	687b      	ldr	r3, [r7, #4]

  /* System interrupt init*/

  /** NOJTAG: JTAG-DP Disabled and SW-DP Enabled
  */
  __HAL_AFIO_REMAP_SWJ_NOJTAG();
 80015e2:	4b0a      	ldr	r3, [pc, #40]	; (800160c <HAL_MspInit+0x60>)
 80015e4:	685b      	ldr	r3, [r3, #4]
 80015e6:	60fb      	str	r3, [r7, #12]
 80015e8:	68fb      	ldr	r3, [r7, #12]
 80015ea:	f023 63e0 	bic.w	r3, r3, #117440512	; 0x7000000
 80015ee:	60fb      	str	r3, [r7, #12]
 80015f0:	68fb      	ldr	r3, [r7, #12]
 80015f2:	f043 7300 	orr.w	r3, r3, #33554432	; 0x2000000
 80015f6:	60fb      	str	r3, [r7, #12]
 80015f8:	4a04      	ldr	r2, [pc, #16]	; (800160c <HAL_MspInit+0x60>)
 80015fa:	68fb      	ldr	r3, [r7, #12]
 80015fc:	6053      	str	r3, [r2, #4]

  /* USER CODE BEGIN MspInit 1 */

  /* USER CODE END MspInit 1 */
}
 80015fe:	bf00      	nop
 8001600:	3714      	adds	r7, #20
 8001602:	46bd      	mov	sp, r7
 8001604:	bc80      	pop	{r7}
 8001606:	4770      	bx	lr
 8001608:	40021000 	.word	0x40021000
 800160c:	40010000 	.word	0x40010000

08001610 <NMI_Handler>:
/******************************************************************************/
/**
  * @brief This function handles Non maskable interrupt.
  */
void NMI_Handler(void)
{
 8001610:	b480      	push	{r7}
 8001612:	af00      	add	r7, sp, #0

  /* USER CODE END NonMaskableInt_IRQn 0 */
  /* USER CODE BEGIN NonMaskableInt_IRQn 1 */

  /* USER CODE END NonMaskableInt_IRQn 1 */
}
 8001614:	bf00      	nop
 8001616:	46bd      	mov	sp, r7
 8001618:	bc80      	pop	{r7}
 800161a:	4770      	bx	lr

0800161c <HardFault_Handler>:

/**
  * @brief This function handles Hard fault interrupt.
  */
void HardFault_Handler(void)
{
 800161c:	b480      	push	{r7}
 800161e:	af00      	add	r7, sp, #0
  /* USER CODE BEGIN HardFault_IRQn 0 */

  /* USER CODE END HardFault_IRQn 0 */
  while (1)
 8001620:	e7fe      	b.n	8001620 <HardFault_Handler+0x4>

08001622 <MemManage_Handler>:

/**
  * @brief This function handles Memory management fault.
  */
void MemManage_Handler(void)
{
 8001622:	b480      	push	{r7}
 8001624:	af00      	add	r7, sp, #0
  /* USER CODE BEGIN MemoryManagement_IRQn 0 */

  /* USER CODE END MemoryManagement_IRQn 0 */
  while (1)
 8001626:	e7fe      	b.n	8001626 <MemManage_Handler+0x4>

08001628 <BusFault_Handler>:

/**
  * @brief This function handles Prefetch fault, memory access fault.
  */
void BusFault_Handler(void)
{
 8001628:	b480      	push	{r7}
 800162a:	af00      	add	r7, sp, #0
  /* USER CODE BEGIN BusFault_IRQn 0 */

  /* USER CODE END BusFault_IRQn 0 */
  while (1)
 800162c:	e7fe      	b.n	800162c <BusFault_Handler+0x4>

0800162e <UsageFault_Handler>:

/**
  * @brief This function handles Undefined instruction or illegal state.
  */
void UsageFault_Handler(void)
{
 800162e:	b480      	push	{r7}
 8001630:	af00      	add	r7, sp, #0
  /* USER CODE BEGIN UsageFault_IRQn 0 */

  /* USER CODE END UsageFault_IRQn 0 */
  while (1)
 8001632:	e7fe      	b.n	8001632 <UsageFault_Handler+0x4>

08001634 <SVC_Handler>:

/**
  * @brief This function handles System service call via SWI instruction.
  */
void SVC_Handler(void)
{
 8001634:	b480      	push	{r7}
 8001636:	af00      	add	r7, sp, #0

  /* USER CODE END SVCall_IRQn 0 */
  /* USER CODE BEGIN SVCall_IRQn 1 */

  /* USER CODE END SVCall_IRQn 1 */
}
 8001638:	bf00      	nop
 800163a:	46bd      	mov	sp, r7
 800163c:	bc80      	pop	{r7}
 800163e:	4770      	bx	lr

08001640 <DebugMon_Handler>:

/**
  * @brief This function handles Debug monitor.
  */
void DebugMon_Handler(void)
{
 8001640:	b480      	push	{r7}
 8001642:	af00      	add	r7, sp, #0

  /* USER CODE END DebugMonitor_IRQn 0 */
  /* USER CODE BEGIN DebugMonitor_IRQn 1 */

  /* USER CODE END DebugMonitor_IRQn 1 */
}
 8001644:	bf00      	nop
 8001646:	46bd      	mov	sp, r7
 8001648:	bc80      	pop	{r7}
 800164a:	4770      	bx	lr

0800164c <PendSV_Handler>:

/**
  * @brief This function handles Pendable request for system service.
  */
void PendSV_Handler(void)
{
 800164c:	b480      	push	{r7}
 800164e:	af00      	add	r7, sp, #0

  /* USER CODE END PendSV_IRQn 0 */
  /* USER CODE BEGIN PendSV_IRQn 1 */

  /* USER CODE END PendSV_IRQn 1 */
}
 8001650:	bf00      	nop
 8001652:	46bd      	mov	sp, r7
 8001654:	bc80      	pop	{r7}
 8001656:	4770      	bx	lr

08001658 <SysTick_Handler>:

/**
  * @brief This function handles System tick timer.
  */
void SysTick_Handler(void)
{
 8001658:	b580      	push	{r7, lr}
 800165a:	af00      	add	r7, sp, #0
  /* USER CODE BEGIN SysTick_IRQn 0 */

  /* USER CODE END SysTick_IRQn 0 */
  HAL_IncTick();
 800165c:	f000 fa16 	bl	8001a8c <HAL_IncTick>
  /* USER CODE BEGIN SysTick_IRQn 1 */

  /* USER CODE END SysTick_IRQn 1 */
}
 8001660:	bf00      	nop
 8001662:	bd80      	pop	{r7, pc}

08001664 <RTC_IRQHandler>:

/**
  * @brief This function handles RTC global interrupt.
  */
void RTC_IRQHandler(void)
{
 8001664:	b580      	push	{r7, lr}
 8001666:	af00      	add	r7, sp, #0
  /* USER CODE BEGIN RTC_IRQn 0 */

  /* USER CODE END RTC_IRQn 0 */
  HAL_RTCEx_RTCIRQHandler(&hrtc);
 8001668:	4802      	ldr	r0, [pc, #8]	; (8001674 <RTC_IRQHandler+0x10>)
 800166a:	f002 fb17 	bl	8003c9c <HAL_RTCEx_RTCIRQHandler>
  /* USER CODE BEGIN RTC_IRQn 1 */

  /* USER CODE END RTC_IRQn 1 */
}
 800166e:	bf00      	nop
 8001670:	bd80      	pop	{r7, pc}
 8001672:	bf00      	nop
 8001674:	20000554 	.word	0x20000554

08001678 <TIM2_IRQHandler>:

/**
  * @brief This function handles TIM2 global interrupt.
  */
void TIM2_IRQHandler(void)
{
 8001678:	b580      	push	{r7, lr}
 800167a:	af00      	add	r7, sp, #0
  /* USER CODE BEGIN TIM2_IRQn 0 */

  /* USER CODE END TIM2_IRQn 0 */
  HAL_TIM_IRQHandler(&htim2);
 800167c:	4802      	ldr	r0, [pc, #8]	; (8001688 <TIM2_IRQHandler+0x10>)
 800167e:	f003 f8de 	bl	800483e <HAL_TIM_IRQHandler>
  /* USER CODE BEGIN TIM2_IRQn 1 */

  /* USER CODE END TIM2_IRQn 1 */
}
 8001682:	bf00      	nop
 8001684:	bd80      	pop	{r7, pc}
 8001686:	bf00      	nop
 8001688:	20000600 	.word	0x20000600

0800168c <RTC_Alarm_IRQHandler>:

/**
  * @brief This function handles RTC alarm interrupt through EXTI line 17.
  */
void RTC_Alarm_IRQHandler(void)
{
 800168c:	b580      	push	{r7, lr}
 800168e:	af00      	add	r7, sp, #0
  /* USER CODE BEGIN RTC_Alarm_IRQn 0 */

  /* USER CODE END RTC_Alarm_IRQn 0 */
  HAL_RTC_AlarmIRQHandler(&hrtc);
 8001690:	4802      	ldr	r0, [pc, #8]	; (800169c <RTC_Alarm_IRQHandler+0x10>)
 8001692:	f002 f839 	bl	8003708 <HAL_RTC_AlarmIRQHandler>
  /* USER CODE BEGIN RTC_Alarm_IRQn 1 */

  /* USER CODE END RTC_Alarm_IRQn 1 */
}
 8001696:	bf00      	nop
 8001698:	bd80      	pop	{r7, pc}
 800169a:	bf00      	nop
 800169c:	20000554 	.word	0x20000554

080016a0 <SystemInit>:
  * @note   This function should be used only after reset.
  * @param  None
  * @retval None
  */
void SystemInit (void)
{
 80016a0:	b480      	push	{r7}
 80016a2:	af00      	add	r7, sp, #0
  /* Reset the RCC clock configuration to the default reset state(for debug purpose) */
  /* Set HSION bit */
  RCC->CR |= 0x00000001U;
 80016a4:	4b15      	ldr	r3, [pc, #84]	; (80016fc <SystemInit+0x5c>)
 80016a6:	681b      	ldr	r3, [r3, #0]
 80016a8:	4a14      	ldr	r2, [pc, #80]	; (80016fc <SystemInit+0x5c>)
 80016aa:	f043 0301 	orr.w	r3, r3, #1
 80016ae:	6013      	str	r3, [r2, #0]

  /* Reset SW, HPRE, PPRE1, PPRE2, ADCPRE and MCO bits */
#if !defined(STM32F105xC) && !defined(STM32F107xC)
  RCC->CFGR &= 0xF8FF0000U;
 80016b0:	4b12      	ldr	r3, [pc, #72]	; (80016fc <SystemInit+0x5c>)
 80016b2:	685a      	ldr	r2, [r3, #4]
 80016b4:	4911      	ldr	r1, [pc, #68]	; (80016fc <SystemInit+0x5c>)
 80016b6:	4b12      	ldr	r3, [pc, #72]	; (8001700 <SystemInit+0x60>)
 80016b8:	4013      	ands	r3, r2
 80016ba:	604b      	str	r3, [r1, #4]
#else
  RCC->CFGR &= 0xF0FF0000U;
#endif /* STM32F105xC */   
  
  /* Reset HSEON, CSSON and PLLON bits */
  RCC->CR &= 0xFEF6FFFFU;
 80016bc:	4b0f      	ldr	r3, [pc, #60]	; (80016fc <SystemInit+0x5c>)
 80016be:	681b      	ldr	r3, [r3, #0]
 80016c0:	4a0e      	ldr	r2, [pc, #56]	; (80016fc <SystemInit+0x5c>)
 80016c2:	f023 7384 	bic.w	r3, r3, #17301504	; 0x1080000
 80016c6:	f423 3380 	bic.w	r3, r3, #65536	; 0x10000
 80016ca:	6013      	str	r3, [r2, #0]

  /* Reset HSEBYP bit */
  RCC->CR &= 0xFFFBFFFFU;
 80016cc:	4b0b      	ldr	r3, [pc, #44]	; (80016fc <SystemInit+0x5c>)
 80016ce:	681b      	ldr	r3, [r3, #0]
 80016d0:	4a0a      	ldr	r2, [pc, #40]	; (80016fc <SystemInit+0x5c>)
 80016d2:	f423 2380 	bic.w	r3, r3, #262144	; 0x40000
 80016d6:	6013      	str	r3, [r2, #0]

  /* Reset PLLSRC, PLLXTPRE, PLLMUL and USBPRE/OTGFSPRE bits */
  RCC->CFGR &= 0xFF80FFFFU;
 80016d8:	4b08      	ldr	r3, [pc, #32]	; (80016fc <SystemInit+0x5c>)
 80016da:	685b      	ldr	r3, [r3, #4]
 80016dc:	4a07      	ldr	r2, [pc, #28]	; (80016fc <SystemInit+0x5c>)
 80016de:	f423 03fe 	bic.w	r3, r3, #8323072	; 0x7f0000
 80016e2:	6053      	str	r3, [r2, #4]

  /* Reset CFGR2 register */
  RCC->CFGR2 = 0x00000000U;      
#else
  /* Disable all interrupts and clear pending bits  */
  RCC->CIR = 0x009F0000U;
 80016e4:	4b05      	ldr	r3, [pc, #20]	; (80016fc <SystemInit+0x5c>)
 80016e6:	f44f 021f 	mov.w	r2, #10420224	; 0x9f0000
 80016ea:	609a      	str	r2, [r3, #8]
#endif 

#ifdef VECT_TAB_SRAM
  SCB->VTOR = SRAM_BASE | VECT_TAB_OFFSET; /* Vector Table Relocation in Internal SRAM. */
#else
  SCB->VTOR = FLASH_BASE | VECT_TAB_OFFSET; /* Vector Table Relocation in Internal FLASH. */
 80016ec:	4b05      	ldr	r3, [pc, #20]	; (8001704 <SystemInit+0x64>)
 80016ee:	f04f 6200 	mov.w	r2, #134217728	; 0x8000000
 80016f2:	609a      	str	r2, [r3, #8]
#endif 
}
 80016f4:	bf00      	nop
 80016f6:	46bd      	mov	sp, r7
 80016f8:	bc80      	pop	{r7}
 80016fa:	4770      	bx	lr
 80016fc:	40021000 	.word	0x40021000
 8001700:	f8ff0000 	.word	0xf8ff0000
 8001704:	e000ed00 	.word	0xe000ed00

08001708 <MX_TIM2_Init>:
TIM_HandleTypeDef htim2;
TIM_HandleTypeDef htim3;

/* TIM2 init function */
void MX_TIM2_Init(void)
{
 8001708:	b580      	push	{r7, lr}
 800170a:	b086      	sub	sp, #24
 800170c:	af00      	add	r7, sp, #0
  TIM_ClockConfigTypeDef sClockSourceConfig = {0};
 800170e:	f107 0308 	add.w	r3, r7, #8
 8001712:	2200      	movs	r2, #0
 8001714:	601a      	str	r2, [r3, #0]
 8001716:	605a      	str	r2, [r3, #4]
 8001718:	609a      	str	r2, [r3, #8]
 800171a:	60da      	str	r2, [r3, #12]
  TIM_MasterConfigTypeDef sMasterConfig = {0};
 800171c:	463b      	mov	r3, r7
 800171e:	2200      	movs	r2, #0
 8001720:	601a      	str	r2, [r3, #0]
 8001722:	605a      	str	r2, [r3, #4]

  htim2.Instance = TIM2;
 8001724:	4b1d      	ldr	r3, [pc, #116]	; (800179c <MX_TIM2_Init+0x94>)
 8001726:	f04f 4280 	mov.w	r2, #1073741824	; 0x40000000
 800172a:	601a      	str	r2, [r3, #0]
  htim2.Init.Prescaler = 7200-1;
 800172c:	4b1b      	ldr	r3, [pc, #108]	; (800179c <MX_TIM2_Init+0x94>)
 800172e:	f641 421f 	movw	r2, #7199	; 0x1c1f
 8001732:	605a      	str	r2, [r3, #4]
  htim2.Init.CounterMode = TIM_COUNTERMODE_UP;
 8001734:	4b19      	ldr	r3, [pc, #100]	; (800179c <MX_TIM2_Init+0x94>)
 8001736:	2200      	movs	r2, #0
 8001738:	609a      	str	r2, [r3, #8]
  htim2.Init.Period = 100-1;
 800173a:	4b18      	ldr	r3, [pc, #96]	; (800179c <MX_TIM2_Init+0x94>)
 800173c:	2263      	movs	r2, #99	; 0x63
 800173e:	60da      	str	r2, [r3, #12]
  htim2.Init.ClockDivision = TIM_CLOCKDIVISION_DIV1;
 8001740:	4b16      	ldr	r3, [pc, #88]	; (800179c <MX_TIM2_Init+0x94>)
 8001742:	2200      	movs	r2, #0
 8001744:	611a      	str	r2, [r3, #16]
  htim2.Init.AutoReloadPreload = TIM_AUTORELOAD_PRELOAD_DISABLE;
 8001746:	4b15      	ldr	r3, [pc, #84]	; (800179c <MX_TIM2_Init+0x94>)
 8001748:	2200      	movs	r2, #0
 800174a:	619a      	str	r2, [r3, #24]
  if (HAL_TIM_Base_Init(&htim2) != HAL_OK)
 800174c:	4813      	ldr	r0, [pc, #76]	; (800179c <MX_TIM2_Init+0x94>)
 800174e:	f003 f805 	bl	800475c <HAL_TIM_Base_Init>
 8001752:	4603      	mov	r3, r0
 8001754:	2b00      	cmp	r3, #0
 8001756:	d001      	beq.n	800175c <MX_TIM2_Init+0x54>
  {
    Error_Handler();
 8001758:	f7ff fb80 	bl	8000e5c <Error_Handler>
  }
  sClockSourceConfig.ClockSource = TIM_CLOCKSOURCE_INTERNAL;
 800175c:	f44f 5380 	mov.w	r3, #4096	; 0x1000
 8001760:	60bb      	str	r3, [r7, #8]
  if (HAL_TIM_ConfigClockSource(&htim2, &sClockSourceConfig) != HAL_OK)
 8001762:	f107 0308 	add.w	r3, r7, #8
 8001766:	4619      	mov	r1, r3
 8001768:	480c      	ldr	r0, [pc, #48]	; (800179c <MX_TIM2_Init+0x94>)
 800176a:	f003 f970 	bl	8004a4e <HAL_TIM_ConfigClockSource>
 800176e:	4603      	mov	r3, r0
 8001770:	2b00      	cmp	r3, #0
 8001772:	d001      	beq.n	8001778 <MX_TIM2_Init+0x70>
  {
    Error_Handler();
 8001774:	f7ff fb72 	bl	8000e5c <Error_Handler>
  }
  sMasterConfig.MasterOutputTrigger = TIM_TRGO_RESET;
 8001778:	2300      	movs	r3, #0
 800177a:	603b      	str	r3, [r7, #0]
  sMasterConfig.MasterSlaveMode = TIM_MASTERSLAVEMODE_DISABLE;
 800177c:	2300      	movs	r3, #0
 800177e:	607b      	str	r3, [r7, #4]
  if (HAL_TIMEx_MasterConfigSynchronization(&htim2, &sMasterConfig) != HAL_OK)
 8001780:	463b      	mov	r3, r7
 8001782:	4619      	mov	r1, r3
 8001784:	4805      	ldr	r0, [pc, #20]	; (800179c <MX_TIM2_Init+0x94>)
 8001786:	f003 fb35 	bl	8004df4 <HAL_TIMEx_MasterConfigSynchronization>
 800178a:	4603      	mov	r3, r0
 800178c:	2b00      	cmp	r3, #0
 800178e:	d001      	beq.n	8001794 <MX_TIM2_Init+0x8c>
  {
    Error_Handler();
 8001790:	f7ff fb64 	bl	8000e5c <Error_Handler>
  }

}
 8001794:	bf00      	nop
 8001796:	3718      	adds	r7, #24
 8001798:	46bd      	mov	sp, r7
 800179a:	bd80      	pop	{r7, pc}
 800179c:	20000600 	.word	0x20000600

080017a0 <MX_TIM3_Init>:
/* TIM3 init function */
void MX_TIM3_Init(void)
{
 80017a0:	b580      	push	{r7, lr}
 80017a2:	b086      	sub	sp, #24
 80017a4:	af00      	add	r7, sp, #0
  TIM_ClockConfigTypeDef sClockSourceConfig = {0};
 80017a6:	f107 0308 	add.w	r3, r7, #8
 80017aa:	2200      	movs	r2, #0
 80017ac:	601a      	str	r2, [r3, #0]
 80017ae:	605a      	str	r2, [r3, #4]
 80017b0:	609a      	str	r2, [r3, #8]
 80017b2:	60da      	str	r2, [r3, #12]
  TIM_MasterConfigTypeDef sMasterConfig = {0};
 80017b4:	463b      	mov	r3, r7
 80017b6:	2200      	movs	r2, #0
 80017b8:	601a      	str	r2, [r3, #0]
 80017ba:	605a      	str	r2, [r3, #4]

  htim3.Instance = TIM3;
 80017bc:	4b1d      	ldr	r3, [pc, #116]	; (8001834 <MX_TIM3_Init+0x94>)
 80017be:	4a1e      	ldr	r2, [pc, #120]	; (8001838 <MX_TIM3_Init+0x98>)
 80017c0:	601a      	str	r2, [r3, #0]
  htim3.Init.Prescaler = 72;
 80017c2:	4b1c      	ldr	r3, [pc, #112]	; (8001834 <MX_TIM3_Init+0x94>)
 80017c4:	2248      	movs	r2, #72	; 0x48
 80017c6:	605a      	str	r2, [r3, #4]
  htim3.Init.CounterMode = TIM_COUNTERMODE_UP;
 80017c8:	4b1a      	ldr	r3, [pc, #104]	; (8001834 <MX_TIM3_Init+0x94>)
 80017ca:	2200      	movs	r2, #0
 80017cc:	609a      	str	r2, [r3, #8]
  htim3.Init.Period = 65535;
 80017ce:	4b19      	ldr	r3, [pc, #100]	; (8001834 <MX_TIM3_Init+0x94>)
 80017d0:	f64f 72ff 	movw	r2, #65535	; 0xffff
 80017d4:	60da      	str	r2, [r3, #12]
  htim3.Init.ClockDivision = TIM_CLOCKDIVISION_DIV1;
 80017d6:	4b17      	ldr	r3, [pc, #92]	; (8001834 <MX_TIM3_Init+0x94>)
 80017d8:	2200      	movs	r2, #0
 80017da:	611a      	str	r2, [r3, #16]
  htim3.Init.AutoReloadPreload = TIM_AUTORELOAD_PRELOAD_DISABLE;
 80017dc:	4b15      	ldr	r3, [pc, #84]	; (8001834 <MX_TIM3_Init+0x94>)
 80017de:	2200      	movs	r2, #0
 80017e0:	619a      	str	r2, [r3, #24]
  if (HAL_TIM_Base_Init(&htim3) != HAL_OK)
 80017e2:	4814      	ldr	r0, [pc, #80]	; (8001834 <MX_TIM3_Init+0x94>)
 80017e4:	f002 ffba 	bl	800475c <HAL_TIM_Base_Init>
 80017e8:	4603      	mov	r3, r0
 80017ea:	2b00      	cmp	r3, #0
 80017ec:	d001      	beq.n	80017f2 <MX_TIM3_Init+0x52>
  {
    Error_Handler();
 80017ee:	f7ff fb35 	bl	8000e5c <Error_Handler>
  }
  sClockSourceConfig.ClockSource = TIM_CLOCKSOURCE_INTERNAL;
 80017f2:	f44f 5380 	mov.w	r3, #4096	; 0x1000
 80017f6:	60bb      	str	r3, [r7, #8]
  if (HAL_TIM_ConfigClockSource(&htim3, &sClockSourceConfig) != HAL_OK)
 80017f8:	f107 0308 	add.w	r3, r7, #8
 80017fc:	4619      	mov	r1, r3
 80017fe:	480d      	ldr	r0, [pc, #52]	; (8001834 <MX_TIM3_Init+0x94>)
 8001800:	f003 f925 	bl	8004a4e <HAL_TIM_ConfigClockSource>
 8001804:	4603      	mov	r3, r0
 8001806:	2b00      	cmp	r3, #0
 8001808:	d001      	beq.n	800180e <MX_TIM3_Init+0x6e>
  {
    Error_Handler();
 800180a:	f7ff fb27 	bl	8000e5c <Error_Handler>
  }
  sMasterConfig.MasterOutputTrigger = TIM_TRGO_RESET;
 800180e:	2300      	movs	r3, #0
 8001810:	603b      	str	r3, [r7, #0]
  sMasterConfig.MasterSlaveMode = TIM_MASTERSLAVEMODE_DISABLE;
 8001812:	2300      	movs	r3, #0
 8001814:	607b      	str	r3, [r7, #4]
  if (HAL_TIMEx_MasterConfigSynchronization(&htim3, &sMasterConfig) != HAL_OK)
 8001816:	463b      	mov	r3, r7
 8001818:	4619      	mov	r1, r3
 800181a:	4806      	ldr	r0, [pc, #24]	; (8001834 <MX_TIM3_Init+0x94>)
 800181c:	f003 faea 	bl	8004df4 <HAL_TIMEx_MasterConfigSynchronization>
 8001820:	4603      	mov	r3, r0
 8001822:	2b00      	cmp	r3, #0
 8001824:	d001      	beq.n	800182a <MX_TIM3_Init+0x8a>
  {
    Error_Handler();
 8001826:	f7ff fb19 	bl	8000e5c <Error_Handler>
  }

}
 800182a:	bf00      	nop
 800182c:	3718      	adds	r7, #24
 800182e:	46bd      	mov	sp, r7
 8001830:	bd80      	pop	{r7, pc}
 8001832:	bf00      	nop
 8001834:	200005c0 	.word	0x200005c0
 8001838:	40000400 	.word	0x40000400

0800183c <HAL_TIM_Base_MspInit>:

void HAL_TIM_Base_MspInit(TIM_HandleTypeDef* tim_baseHandle)
{
 800183c:	b580      	push	{r7, lr}
 800183e:	b084      	sub	sp, #16
 8001840:	af00      	add	r7, sp, #0
 8001842:	6078      	str	r0, [r7, #4]

  if(tim_baseHandle->Instance==TIM2)
 8001844:	687b      	ldr	r3, [r7, #4]
 8001846:	681b      	ldr	r3, [r3, #0]
 8001848:	f1b3 4f80 	cmp.w	r3, #1073741824	; 0x40000000
 800184c:	d114      	bne.n	8001878 <HAL_TIM_Base_MspInit+0x3c>
  {
  /* USER CODE BEGIN TIM2_MspInit 0 */

  /* USER CODE END TIM2_MspInit 0 */
    /* TIM2 clock enable */
    __HAL_RCC_TIM2_CLK_ENABLE();
 800184e:	4b15      	ldr	r3, [pc, #84]	; (80018a4 <HAL_TIM_Base_MspInit+0x68>)
 8001850:	69db      	ldr	r3, [r3, #28]
 8001852:	4a14      	ldr	r2, [pc, #80]	; (80018a4 <HAL_TIM_Base_MspInit+0x68>)
 8001854:	f043 0301 	orr.w	r3, r3, #1
 8001858:	61d3      	str	r3, [r2, #28]
 800185a:	4b12      	ldr	r3, [pc, #72]	; (80018a4 <HAL_TIM_Base_MspInit+0x68>)
 800185c:	69db      	ldr	r3, [r3, #28]
 800185e:	f003 0301 	and.w	r3, r3, #1
 8001862:	60fb      	str	r3, [r7, #12]
 8001864:	68fb      	ldr	r3, [r7, #12]

    /* TIM2 interrupt Init */
    HAL_NVIC_SetPriority(TIM2_IRQn, 0, 0);
 8001866:	2200      	movs	r2, #0
 8001868:	2100      	movs	r1, #0
 800186a:	201c      	movs	r0, #28
 800186c:	f000 fc2d 	bl	80020ca <HAL_NVIC_SetPriority>
    HAL_NVIC_EnableIRQ(TIM2_IRQn);
 8001870:	201c      	movs	r0, #28
 8001872:	f000 fc46 	bl	8002102 <HAL_NVIC_EnableIRQ>
    __HAL_RCC_TIM3_CLK_ENABLE();
  /* USER CODE BEGIN TIM3_MspInit 1 */

  /* USER CODE END TIM3_MspInit 1 */
  }
}
 8001876:	e010      	b.n	800189a <HAL_TIM_Base_MspInit+0x5e>
  else if(tim_baseHandle->Instance==TIM3)
 8001878:	687b      	ldr	r3, [r7, #4]
 800187a:	681b      	ldr	r3, [r3, #0]
 800187c:	4a0a      	ldr	r2, [pc, #40]	; (80018a8 <HAL_TIM_Base_MspInit+0x6c>)
 800187e:	4293      	cmp	r3, r2
 8001880:	d10b      	bne.n	800189a <HAL_TIM_Base_MspInit+0x5e>
    __HAL_RCC_TIM3_CLK_ENABLE();
 8001882:	4b08      	ldr	r3, [pc, #32]	; (80018a4 <HAL_TIM_Base_MspInit+0x68>)
 8001884:	69db      	ldr	r3, [r3, #28]
 8001886:	4a07      	ldr	r2, [pc, #28]	; (80018a4 <HAL_TIM_Base_MspInit+0x68>)
 8001888:	f043 0302 	orr.w	r3, r3, #2
 800188c:	61d3      	str	r3, [r2, #28]
 800188e:	4b05      	ldr	r3, [pc, #20]	; (80018a4 <HAL_TIM_Base_MspInit+0x68>)
 8001890:	69db      	ldr	r3, [r3, #28]
 8001892:	f003 0302 	and.w	r3, r3, #2
 8001896:	60bb      	str	r3, [r7, #8]
 8001898:	68bb      	ldr	r3, [r7, #8]
}
 800189a:	bf00      	nop
 800189c:	3710      	adds	r7, #16
 800189e:	46bd      	mov	sp, r7
 80018a0:	bd80      	pop	{r7, pc}
 80018a2:	bf00      	nop
 80018a4:	40021000 	.word	0x40021000
 80018a8:	40000400 	.word	0x40000400

080018ac <MX_USART1_UART_Init>:
UART_HandleTypeDef huart1;

/* USART1 init function */

void MX_USART1_UART_Init(void)
{
 80018ac:	b580      	push	{r7, lr}
 80018ae:	af00      	add	r7, sp, #0

  huart1.Instance = USART1;
 80018b0:	4b11      	ldr	r3, [pc, #68]	; (80018f8 <MX_USART1_UART_Init+0x4c>)
 80018b2:	4a12      	ldr	r2, [pc, #72]	; (80018fc <MX_USART1_UART_Init+0x50>)
 80018b4:	601a      	str	r2, [r3, #0]
  huart1.Init.BaudRate = 115200;
 80018b6:	4b10      	ldr	r3, [pc, #64]	; (80018f8 <MX_USART1_UART_Init+0x4c>)
 80018b8:	f44f 32e1 	mov.w	r2, #115200	; 0x1c200
 80018bc:	605a      	str	r2, [r3, #4]
  huart1.Init.WordLength = UART_WORDLENGTH_8B;
 80018be:	4b0e      	ldr	r3, [pc, #56]	; (80018f8 <MX_USART1_UART_Init+0x4c>)
 80018c0:	2200      	movs	r2, #0
 80018c2:	609a      	str	r2, [r3, #8]
  huart1.Init.StopBits = UART_STOPBITS_1;
 80018c4:	4b0c      	ldr	r3, [pc, #48]	; (80018f8 <MX_USART1_UART_Init+0x4c>)
 80018c6:	2200      	movs	r2, #0
 80018c8:	60da      	str	r2, [r3, #12]
  huart1.Init.Parity = UART_PARITY_NONE;
 80018ca:	4b0b      	ldr	r3, [pc, #44]	; (80018f8 <MX_USART1_UART_Init+0x4c>)
 80018cc:	2200      	movs	r2, #0
 80018ce:	611a      	str	r2, [r3, #16]
  huart1.Init.Mode = UART_MODE_TX_RX;
 80018d0:	4b09      	ldr	r3, [pc, #36]	; (80018f8 <MX_USART1_UART_Init+0x4c>)
 80018d2:	220c      	movs	r2, #12
 80018d4:	615a      	str	r2, [r3, #20]
  huart1.Init.HwFlowCtl = UART_HWCONTROL_NONE;
 80018d6:	4b08      	ldr	r3, [pc, #32]	; (80018f8 <MX_USART1_UART_Init+0x4c>)
 80018d8:	2200      	movs	r2, #0
 80018da:	619a      	str	r2, [r3, #24]
  huart1.Init.OverSampling = UART_OVERSAMPLING_16;
 80018dc:	4b06      	ldr	r3, [pc, #24]	; (80018f8 <MX_USART1_UART_Init+0x4c>)
 80018de:	2200      	movs	r2, #0
 80018e0:	61da      	str	r2, [r3, #28]
  if (HAL_UART_Init(&huart1) != HAL_OK)
 80018e2:	4805      	ldr	r0, [pc, #20]	; (80018f8 <MX_USART1_UART_Init+0x4c>)
 80018e4:	f003 fadc 	bl	8004ea0 <HAL_UART_Init>
 80018e8:	4603      	mov	r3, r0
 80018ea:	2b00      	cmp	r3, #0
 80018ec:	d001      	beq.n	80018f2 <MX_USART1_UART_Init+0x46>
  {
    Error_Handler();
 80018ee:	f7ff fab5 	bl	8000e5c <Error_Handler>
  }

}
 80018f2:	bf00      	nop
 80018f4:	bd80      	pop	{r7, pc}
 80018f6:	bf00      	nop
 80018f8:	20000640 	.word	0x20000640
 80018fc:	40013800 	.word	0x40013800

08001900 <HAL_UART_MspInit>:

void HAL_UART_MspInit(UART_HandleTypeDef* uartHandle)
{
 8001900:	b580      	push	{r7, lr}
 8001902:	b08a      	sub	sp, #40	; 0x28
 8001904:	af00      	add	r7, sp, #0
 8001906:	6078      	str	r0, [r7, #4]

  GPIO_InitTypeDef GPIO_InitStruct = {0};
 8001908:	f107 0314 	add.w	r3, r7, #20
 800190c:	2200      	movs	r2, #0
 800190e:	601a      	str	r2, [r3, #0]
 8001910:	605a      	str	r2, [r3, #4]
 8001912:	609a      	str	r2, [r3, #8]
 8001914:	60da      	str	r2, [r3, #12]
  if(uartHandle->Instance==USART1)
 8001916:	687b      	ldr	r3, [r7, #4]
 8001918:	681b      	ldr	r3, [r3, #0]
 800191a:	4a22      	ldr	r2, [pc, #136]	; (80019a4 <HAL_UART_MspInit+0xa4>)
 800191c:	4293      	cmp	r3, r2
 800191e:	d13d      	bne.n	800199c <HAL_UART_MspInit+0x9c>
  {
  /* USER CODE BEGIN USART1_MspInit 0 */

  /* USER CODE END USART1_MspInit 0 */
    /* USART1 clock enable */
    __HAL_RCC_USART1_CLK_ENABLE();
 8001920:	4b21      	ldr	r3, [pc, #132]	; (80019a8 <HAL_UART_MspInit+0xa8>)
 8001922:	699b      	ldr	r3, [r3, #24]
 8001924:	4a20      	ldr	r2, [pc, #128]	; (80019a8 <HAL_UART_MspInit+0xa8>)
 8001926:	f443 4380 	orr.w	r3, r3, #16384	; 0x4000
 800192a:	6193      	str	r3, [r2, #24]
 800192c:	4b1e      	ldr	r3, [pc, #120]	; (80019a8 <HAL_UART_MspInit+0xa8>)
 800192e:	699b      	ldr	r3, [r3, #24]
 8001930:	f403 4380 	and.w	r3, r3, #16384	; 0x4000
 8001934:	613b      	str	r3, [r7, #16]
 8001936:	693b      	ldr	r3, [r7, #16]

    __HAL_RCC_GPIOB_CLK_ENABLE();
 8001938:	4b1b      	ldr	r3, [pc, #108]	; (80019a8 <HAL_UART_MspInit+0xa8>)
 800193a:	699b      	ldr	r3, [r3, #24]
 800193c:	4a1a      	ldr	r2, [pc, #104]	; (80019a8 <HAL_UART_MspInit+0xa8>)
 800193e:	f043 0308 	orr.w	r3, r3, #8
 8001942:	6193      	str	r3, [r2, #24]
 8001944:	4b18      	ldr	r3, [pc, #96]	; (80019a8 <HAL_UART_MspInit+0xa8>)
 8001946:	699b      	ldr	r3, [r3, #24]
 8001948:	f003 0308 	and.w	r3, r3, #8
 800194c:	60fb      	str	r3, [r7, #12]
 800194e:	68fb      	ldr	r3, [r7, #12]
    /**USART1 GPIO Configuration
    PB6     ------> USART1_TX
    PB7     ------> USART1_RX
    */
    GPIO_InitStruct.Pin = GPIO_PIN_6;
 8001950:	2340      	movs	r3, #64	; 0x40
 8001952:	617b      	str	r3, [r7, #20]
    GPIO_InitStruct.Mode = GPIO_MODE_AF_PP;
 8001954:	2302      	movs	r3, #2
 8001956:	61bb      	str	r3, [r7, #24]
    GPIO_InitStruct.Speed = GPIO_SPEED_FREQ_HIGH;
 8001958:	2303      	movs	r3, #3
 800195a:	623b      	str	r3, [r7, #32]
    HAL_GPIO_Init(GPIOB, &GPIO_InitStruct);
 800195c:	f107 0314 	add.w	r3, r7, #20
 8001960:	4619      	mov	r1, r3
 8001962:	4812      	ldr	r0, [pc, #72]	; (80019ac <HAL_UART_MspInit+0xac>)
 8001964:	f000 fbe8 	bl	8002138 <HAL_GPIO_Init>

    GPIO_InitStruct.Pin = GPIO_PIN_7;
 8001968:	2380      	movs	r3, #128	; 0x80
 800196a:	617b      	str	r3, [r7, #20]
    GPIO_InitStruct.Mode = GPIO_MODE_INPUT;
 800196c:	2300      	movs	r3, #0
 800196e:	61bb      	str	r3, [r7, #24]
    GPIO_InitStruct.Pull = GPIO_NOPULL;
 8001970:	2300      	movs	r3, #0
 8001972:	61fb      	str	r3, [r7, #28]
    HAL_GPIO_Init(GPIOB, &GPIO_InitStruct);
 8001974:	f107 0314 	add.w	r3, r7, #20
 8001978:	4619      	mov	r1, r3
 800197a:	480c      	ldr	r0, [pc, #48]	; (80019ac <HAL_UART_MspInit+0xac>)
 800197c:	f000 fbdc 	bl	8002138 <HAL_GPIO_Init>

    __HAL_AFIO_REMAP_USART1_ENABLE();
 8001980:	4b0b      	ldr	r3, [pc, #44]	; (80019b0 <HAL_UART_MspInit+0xb0>)
 8001982:	685b      	ldr	r3, [r3, #4]
 8001984:	627b      	str	r3, [r7, #36]	; 0x24
 8001986:	6a7b      	ldr	r3, [r7, #36]	; 0x24
 8001988:	f043 63e0 	orr.w	r3, r3, #117440512	; 0x7000000
 800198c:	627b      	str	r3, [r7, #36]	; 0x24
 800198e:	6a7b      	ldr	r3, [r7, #36]	; 0x24
 8001990:	f043 0304 	orr.w	r3, r3, #4
 8001994:	627b      	str	r3, [r7, #36]	; 0x24
 8001996:	4a06      	ldr	r2, [pc, #24]	; (80019b0 <HAL_UART_MspInit+0xb0>)
 8001998:	6a7b      	ldr	r3, [r7, #36]	; 0x24
 800199a:	6053      	str	r3, [r2, #4]

  /* USER CODE BEGIN USART1_MspInit 1 */

  /* USER CODE END USART1_MspInit 1 */
  }
}
 800199c:	bf00      	nop
 800199e:	3728      	adds	r7, #40	; 0x28
 80019a0:	46bd      	mov	sp, r7
 80019a2:	bd80      	pop	{r7, pc}
 80019a4:	40013800 	.word	0x40013800
 80019a8:	40021000 	.word	0x40021000
 80019ac:	40010c00 	.word	0x40010c00
 80019b0:	40010000 	.word	0x40010000

080019b4 <Reset_Handler>:
  .weak Reset_Handler
  .type Reset_Handler, %function
Reset_Handler:

/* Copy the data segment initializers from flash to SRAM */
  movs r1, #0
 80019b4:	2100      	movs	r1, #0
  b LoopCopyDataInit
 80019b6:	e003      	b.n	80019c0 <LoopCopyDataInit>

080019b8 <CopyDataInit>:

CopyDataInit:
  ldr r3, =_sidata
 80019b8:	4b0b      	ldr	r3, [pc, #44]	; (80019e8 <LoopFillZerobss+0x14>)
  ldr r3, [r3, r1]
 80019ba:	585b      	ldr	r3, [r3, r1]
  str r3, [r0, r1]
 80019bc:	5043      	str	r3, [r0, r1]
  adds r1, r1, #4
 80019be:	3104      	adds	r1, #4

080019c0 <LoopCopyDataInit>:

LoopCopyDataInit:
  ldr r0, =_sdata
 80019c0:	480a      	ldr	r0, [pc, #40]	; (80019ec <LoopFillZerobss+0x18>)
  ldr r3, =_edata
 80019c2:	4b0b      	ldr	r3, [pc, #44]	; (80019f0 <LoopFillZerobss+0x1c>)
  adds r2, r0, r1
 80019c4:	1842      	adds	r2, r0, r1
  cmp r2, r3
 80019c6:	429a      	cmp	r2, r3
  bcc CopyDataInit
 80019c8:	d3f6      	bcc.n	80019b8 <CopyDataInit>
  ldr r2, =_sbss
 80019ca:	4a0a      	ldr	r2, [pc, #40]	; (80019f4 <LoopFillZerobss+0x20>)
  b LoopFillZerobss
 80019cc:	e002      	b.n	80019d4 <LoopFillZerobss>

080019ce <FillZerobss>:
/* Zero fill the bss segment. */
FillZerobss:
  movs r3, #0
 80019ce:	2300      	movs	r3, #0
  str r3, [r2], #4
 80019d0:	f842 3b04 	str.w	r3, [r2], #4

080019d4 <LoopFillZerobss>:

LoopFillZerobss:
  ldr r3, = _ebss
 80019d4:	4b08      	ldr	r3, [pc, #32]	; (80019f8 <LoopFillZerobss+0x24>)
  cmp r2, r3
 80019d6:	429a      	cmp	r2, r3
  bcc FillZerobss
 80019d8:	d3f9      	bcc.n	80019ce <FillZerobss>

/* Call the clock system intitialization function.*/
    bl  SystemInit
 80019da:	f7ff fe61 	bl	80016a0 <SystemInit>
/* Call static constructors */
    bl __libc_init_array
 80019de:	f003 fb87 	bl	80050f0 <__libc_init_array>
/* Call the application's entry point.*/
  bl main
 80019e2:	f7ff f937 	bl	8000c54 <main>
  bx lr
 80019e6:	4770      	bx	lr
  ldr r3, =_sidata
 80019e8:	08005380 	.word	0x08005380
  ldr r0, =_sdata
 80019ec:	20000000 	.word	0x20000000
  ldr r3, =_edata
 80019f0:	20000084 	.word	0x20000084
  ldr r2, =_sbss
 80019f4:	20000084 	.word	0x20000084
  ldr r3, = _ebss
 80019f8:	20000684 	.word	0x20000684

080019fc <ADC1_2_IRQHandler>:
 * @retval : None
*/
    .section .text.Default_Handler,"ax",%progbits
Default_Handler:
Infinite_Loop:
  b Infinite_Loop
 80019fc:	e7fe      	b.n	80019fc <ADC1_2_IRQHandler>
	...

08001a00 <HAL_Init>:
  *         need to ensure that the SysTick time base is always set to 1 millisecond
  *         to have correct HAL operation.
  * @retval HAL status
  */
HAL_StatusTypeDef HAL_Init(void)
{
 8001a00:	b580      	push	{r7, lr}
 8001a02:	af00      	add	r7, sp, #0
    defined(STM32F102x6) || defined(STM32F102xB) || \
    defined(STM32F103x6) || defined(STM32F103xB) || defined(STM32F103xE) || defined(STM32F103xG) || \
    defined(STM32F105xC) || defined(STM32F107xC)

  /* Prefetch buffer is not available on value line devices */
  __HAL_FLASH_PREFETCH_BUFFER_ENABLE();
 8001a04:	4b08      	ldr	r3, [pc, #32]	; (8001a28 <HAL_Init+0x28>)
 8001a06:	681b      	ldr	r3, [r3, #0]
 8001a08:	4a07      	ldr	r2, [pc, #28]	; (8001a28 <HAL_Init+0x28>)
 8001a0a:	f043 0310 	orr.w	r3, r3, #16
 8001a0e:	6013      	str	r3, [r2, #0]
#endif
#endif /* PREFETCH_ENABLE */

  /* Set Interrupt Group Priority */
  HAL_NVIC_SetPriorityGrouping(NVIC_PRIORITYGROUP_4);
 8001a10:	2003      	movs	r0, #3
 8001a12:	f000 fb4f 	bl	80020b4 <HAL_NVIC_SetPriorityGrouping>

  /* Use systick as time base source and configure 1ms tick (default clock after Reset is HSI) */
  HAL_InitTick(TICK_INT_PRIORITY);
 8001a16:	2000      	movs	r0, #0
 8001a18:	f000 f808 	bl	8001a2c <HAL_InitTick>

  /* Init the low level hardware */
  HAL_MspInit();
 8001a1c:	f7ff fdc6 	bl	80015ac <HAL_MspInit>

  /* Return function status */
  return HAL_OK;
 8001a20:	2300      	movs	r3, #0
}
 8001a22:	4618      	mov	r0, r3
 8001a24:	bd80      	pop	{r7, pc}
 8001a26:	bf00      	nop
 8001a28:	40022000 	.word	0x40022000

08001a2c <HAL_InitTick>:
  *       implementation  in user file.
  * @param TickPriority Tick interrupt priority.
  * @retval HAL status
  */
__weak HAL_StatusTypeDef HAL_InitTick(uint32_t TickPriority)
{
 8001a2c:	b580      	push	{r7, lr}
 8001a2e:	b082      	sub	sp, #8
 8001a30:	af00      	add	r7, sp, #0
 8001a32:	6078      	str	r0, [r7, #4]
  /* Configure the SysTick to have interrupt in 1ms time basis*/
  if (HAL_SYSTICK_Config(SystemCoreClock / (1000U / uwTickFreq)) > 0U)
 8001a34:	4b12      	ldr	r3, [pc, #72]	; (8001a80 <HAL_InitTick+0x54>)
 8001a36:	681a      	ldr	r2, [r3, #0]
 8001a38:	4b12      	ldr	r3, [pc, #72]	; (8001a84 <HAL_InitTick+0x58>)
 8001a3a:	781b      	ldrb	r3, [r3, #0]
 8001a3c:	4619      	mov	r1, r3
 8001a3e:	f44f 737a 	mov.w	r3, #1000	; 0x3e8
 8001a42:	fbb3 f3f1 	udiv	r3, r3, r1
 8001a46:	fbb2 f3f3 	udiv	r3, r2, r3
 8001a4a:	4618      	mov	r0, r3
 8001a4c:	f000 fb67 	bl	800211e <HAL_SYSTICK_Config>
 8001a50:	4603      	mov	r3, r0
 8001a52:	2b00      	cmp	r3, #0
 8001a54:	d001      	beq.n	8001a5a <HAL_InitTick+0x2e>
  {
    return HAL_ERROR;
 8001a56:	2301      	movs	r3, #1
 8001a58:	e00e      	b.n	8001a78 <HAL_InitTick+0x4c>
  }

  /* Configure the SysTick IRQ priority */
  if (TickPriority < (1UL << __NVIC_PRIO_BITS))
 8001a5a:	687b      	ldr	r3, [r7, #4]
 8001a5c:	2b0f      	cmp	r3, #15
 8001a5e:	d80a      	bhi.n	8001a76 <HAL_InitTick+0x4a>
  {
    HAL_NVIC_SetPriority(SysTick_IRQn, TickPriority, 0U);
 8001a60:	2200      	movs	r2, #0
 8001a62:	6879      	ldr	r1, [r7, #4]
 8001a64:	f04f 30ff 	mov.w	r0, #4294967295	; 0xffffffff
 8001a68:	f000 fb2f 	bl	80020ca <HAL_NVIC_SetPriority>
    uwTickPrio = TickPriority;
 8001a6c:	4a06      	ldr	r2, [pc, #24]	; (8001a88 <HAL_InitTick+0x5c>)
 8001a6e:	687b      	ldr	r3, [r7, #4]
 8001a70:	6013      	str	r3, [r2, #0]
  {
    return HAL_ERROR;
  }

  /* Return function status */
  return HAL_OK;
 8001a72:	2300      	movs	r3, #0
 8001a74:	e000      	b.n	8001a78 <HAL_InitTick+0x4c>
    return HAL_ERROR;
 8001a76:	2301      	movs	r3, #1
}
 8001a78:	4618      	mov	r0, r3
 8001a7a:	3708      	adds	r7, #8
 8001a7c:	46bd      	mov	sp, r7
 8001a7e:	bd80      	pop	{r7, pc}
 8001a80:	20000078 	.word	0x20000078
 8001a84:	20000080 	.word	0x20000080
 8001a88:	2000007c 	.word	0x2000007c

08001a8c <HAL_IncTick>:
  * @note This function is declared as __weak to be overwritten in case of other
  *      implementations in user file.
  * @retval None
  */
__weak void HAL_IncTick(void)
{
 8001a8c:	b480      	push	{r7}
 8001a8e:	af00      	add	r7, sp, #0
  uwTick += uwTickFreq;
 8001a90:	4b05      	ldr	r3, [pc, #20]	; (8001aa8 <HAL_IncTick+0x1c>)
 8001a92:	781b      	ldrb	r3, [r3, #0]
 8001a94:	461a      	mov	r2, r3
 8001a96:	4b05      	ldr	r3, [pc, #20]	; (8001aac <HAL_IncTick+0x20>)
 8001a98:	681b      	ldr	r3, [r3, #0]
 8001a9a:	4413      	add	r3, r2
 8001a9c:	4a03      	ldr	r2, [pc, #12]	; (8001aac <HAL_IncTick+0x20>)
 8001a9e:	6013      	str	r3, [r2, #0]
}
 8001aa0:	bf00      	nop
 8001aa2:	46bd      	mov	sp, r7
 8001aa4:	bc80      	pop	{r7}
 8001aa6:	4770      	bx	lr
 8001aa8:	20000080 	.word	0x20000080
 8001aac:	20000680 	.word	0x20000680

08001ab0 <HAL_GetTick>:
  * @note  This function is declared as __weak to be overwritten in case of other
  *       implementations in user file.
  * @retval tick value
  */
__weak uint32_t HAL_GetTick(void)
{
 8001ab0:	b480      	push	{r7}
 8001ab2:	af00      	add	r7, sp, #0
  return uwTick;
 8001ab4:	4b02      	ldr	r3, [pc, #8]	; (8001ac0 <HAL_GetTick+0x10>)
 8001ab6:	681b      	ldr	r3, [r3, #0]
}
 8001ab8:	4618      	mov	r0, r3
 8001aba:	46bd      	mov	sp, r7
 8001abc:	bc80      	pop	{r7}
 8001abe:	4770      	bx	lr
 8001ac0:	20000680 	.word	0x20000680

08001ac4 <HAL_Delay>:
  *       implementations in user file.
  * @param Delay specifies the delay time length, in milliseconds.
  * @retval None
  */
__weak void HAL_Delay(uint32_t Delay)
{
 8001ac4:	b580      	push	{r7, lr}
 8001ac6:	b084      	sub	sp, #16
 8001ac8:	af00      	add	r7, sp, #0
 8001aca:	6078      	str	r0, [r7, #4]
  uint32_t tickstart = HAL_GetTick();
 8001acc:	f7ff fff0 	bl	8001ab0 <HAL_GetTick>
 8001ad0:	60b8      	str	r0, [r7, #8]
  uint32_t wait = Delay;
 8001ad2:	687b      	ldr	r3, [r7, #4]
 8001ad4:	60fb      	str	r3, [r7, #12]

  /* Add a freq to guarantee minimum wait */
  if (wait < HAL_MAX_DELAY)
 8001ad6:	68fb      	ldr	r3, [r7, #12]
 8001ad8:	f1b3 3fff 	cmp.w	r3, #4294967295	; 0xffffffff
 8001adc:	d005      	beq.n	8001aea <HAL_Delay+0x26>
  {
    wait += (uint32_t)(uwTickFreq);
 8001ade:	4b09      	ldr	r3, [pc, #36]	; (8001b04 <HAL_Delay+0x40>)
 8001ae0:	781b      	ldrb	r3, [r3, #0]
 8001ae2:	461a      	mov	r2, r3
 8001ae4:	68fb      	ldr	r3, [r7, #12]
 8001ae6:	4413      	add	r3, r2
 8001ae8:	60fb      	str	r3, [r7, #12]
  }

  while ((HAL_GetTick() - tickstart) < wait)
 8001aea:	bf00      	nop
 8001aec:	f7ff ffe0 	bl	8001ab0 <HAL_GetTick>
 8001af0:	4602      	mov	r2, r0
 8001af2:	68bb      	ldr	r3, [r7, #8]
 8001af4:	1ad3      	subs	r3, r2, r3
 8001af6:	68fa      	ldr	r2, [r7, #12]
 8001af8:	429a      	cmp	r2, r3
 8001afa:	d8f7      	bhi.n	8001aec <HAL_Delay+0x28>
  {
  }
}
 8001afc:	bf00      	nop
 8001afe:	3710      	adds	r7, #16
 8001b00:	46bd      	mov	sp, r7
 8001b02:	bd80      	pop	{r7, pc}
 8001b04:	20000080 	.word	0x20000080

08001b08 <HAL_ADC_Init>:
  *         of structure "ADC_InitTypeDef".
  * @param  hadc: ADC handle
  * @retval HAL status
  */
HAL_StatusTypeDef HAL_ADC_Init(ADC_HandleTypeDef* hadc)
{
 8001b08:	b580      	push	{r7, lr}
 8001b0a:	b086      	sub	sp, #24
 8001b0c:	af00      	add	r7, sp, #0
 8001b0e:	6078      	str	r0, [r7, #4]
  HAL_StatusTypeDef tmp_hal_status = HAL_OK;
 8001b10:	2300      	movs	r3, #0
 8001b12:	75fb      	strb	r3, [r7, #23]
  uint32_t tmp_cr1 = 0U;
 8001b14:	2300      	movs	r3, #0
 8001b16:	613b      	str	r3, [r7, #16]
  uint32_t tmp_cr2 = 0U;
 8001b18:	2300      	movs	r3, #0
 8001b1a:	60bb      	str	r3, [r7, #8]
  uint32_t tmp_sqr1 = 0U;
 8001b1c:	2300      	movs	r3, #0
 8001b1e:	60fb      	str	r3, [r7, #12]
  
  /* Check ADC handle */
  if(hadc == NULL)
 8001b20:	687b      	ldr	r3, [r7, #4]
 8001b22:	2b00      	cmp	r3, #0
 8001b24:	d101      	bne.n	8001b2a <HAL_ADC_Init+0x22>
  {
    return HAL_ERROR;
 8001b26:	2301      	movs	r3, #1
 8001b28:	e0be      	b.n	8001ca8 <HAL_ADC_Init+0x1a0>
  assert_param(IS_ADC_DATA_ALIGN(hadc->Init.DataAlign));
  assert_param(IS_ADC_SCAN_MODE(hadc->Init.ScanConvMode));
  assert_param(IS_FUNCTIONAL_STATE(hadc->Init.ContinuousConvMode));
  assert_param(IS_ADC_EXTTRIG(hadc->Init.ExternalTrigConv));
  
  if(hadc->Init.ScanConvMode != ADC_SCAN_DISABLE)
 8001b2a:	687b      	ldr	r3, [r7, #4]
 8001b2c:	689b      	ldr	r3, [r3, #8]
 8001b2e:	2b00      	cmp	r3, #0
  /* Refer to header of this file for more details on clock enabling          */
  /* procedure.                                                               */

  /* Actions performed only if ADC is coming from state reset:                */
  /* - Initialization of ADC MSP                                              */
  if (hadc->State == HAL_ADC_STATE_RESET)
 8001b30:	687b      	ldr	r3, [r7, #4]
 8001b32:	6a9b      	ldr	r3, [r3, #40]	; 0x28
 8001b34:	2b00      	cmp	r3, #0
 8001b36:	d109      	bne.n	8001b4c <HAL_ADC_Init+0x44>
  {
    /* Initialize ADC error code */
    ADC_CLEAR_ERRORCODE(hadc);
 8001b38:	687b      	ldr	r3, [r7, #4]
 8001b3a:	2200      	movs	r2, #0
 8001b3c:	62da      	str	r2, [r3, #44]	; 0x2c
    
    /* Allocate lock resource and initialize it */
    hadc->Lock = HAL_UNLOCKED;
 8001b3e:	687b      	ldr	r3, [r7, #4]
 8001b40:	2200      	movs	r2, #0
 8001b42:	f883 2024 	strb.w	r2, [r3, #36]	; 0x24
    
    /* Init the low level hardware */
    hadc->MspInitCallback(hadc);
#else
    /* Init the low level hardware */
    HAL_ADC_MspInit(hadc);
 8001b46:	6878      	ldr	r0, [r7, #4]
 8001b48:	f7fe ff1a 	bl	8000980 <HAL_ADC_MspInit>
  /* Stop potential conversion on going, on regular and injected groups */
  /* Disable ADC peripheral */
  /* Note: In case of ADC already enabled, precaution to not launch an        */
  /*       unwanted conversion while modifying register CR2 by writing 1 to   */
  /*       bit ADON.                                                          */
  tmp_hal_status = ADC_ConversionStop_Disable(hadc);
 8001b4c:	6878      	ldr	r0, [r7, #4]
 8001b4e:	f000 f9ab 	bl	8001ea8 <ADC_ConversionStop_Disable>
 8001b52:	4603      	mov	r3, r0
 8001b54:	75fb      	strb	r3, [r7, #23]
  
  
  /* Configuration of ADC parameters if previous preliminary actions are      */ 
  /* correctly completed.                                                     */
  if (HAL_IS_BIT_CLR(hadc->State, HAL_ADC_STATE_ERROR_INTERNAL) &&
 8001b56:	687b      	ldr	r3, [r7, #4]
 8001b58:	6a9b      	ldr	r3, [r3, #40]	; 0x28
 8001b5a:	f003 0310 	and.w	r3, r3, #16
 8001b5e:	2b00      	cmp	r3, #0
 8001b60:	f040 8099 	bne.w	8001c96 <HAL_ADC_Init+0x18e>
 8001b64:	7dfb      	ldrb	r3, [r7, #23]
 8001b66:	2b00      	cmp	r3, #0
 8001b68:	f040 8095 	bne.w	8001c96 <HAL_ADC_Init+0x18e>
      (tmp_hal_status == HAL_OK)                                  )
  {
    /* Set ADC state */
    ADC_STATE_CLR_SET(hadc->State,
 8001b6c:	687b      	ldr	r3, [r7, #4]
 8001b6e:	6a9b      	ldr	r3, [r3, #40]	; 0x28
 8001b70:	f423 5388 	bic.w	r3, r3, #4352	; 0x1100
 8001b74:	f023 0302 	bic.w	r3, r3, #2
 8001b78:	f043 0202 	orr.w	r2, r3, #2
 8001b7c:	687b      	ldr	r3, [r7, #4]
 8001b7e:	629a      	str	r2, [r3, #40]	; 0x28
    /*  - continuous conversion mode                                          */
    /* Note: External trigger polarity (ADC_CR2_EXTTRIG) is set into          */
    /*       HAL_ADC_Start_xxx functions because if set in this function,     */
    /*       a conversion on injected group would start a conversion also on  */
    /*       regular group after ADC enabling.                                */
    tmp_cr2 |= (hadc->Init.DataAlign                                          |
 8001b80:	687b      	ldr	r3, [r7, #4]
 8001b82:	685a      	ldr	r2, [r3, #4]
                ADC_CFGR_EXTSEL(hadc, hadc->Init.ExternalTrigConv)            |
 8001b84:	687b      	ldr	r3, [r7, #4]
 8001b86:	69db      	ldr	r3, [r3, #28]
    tmp_cr2 |= (hadc->Init.DataAlign                                          |
 8001b88:	431a      	orrs	r2, r3
                ADC_CR2_CONTINUOUS((uint32_t)hadc->Init.ContinuousConvMode)   );
 8001b8a:	687b      	ldr	r3, [r7, #4]
 8001b8c:	7b1b      	ldrb	r3, [r3, #12]
 8001b8e:	005b      	lsls	r3, r3, #1
                ADC_CFGR_EXTSEL(hadc, hadc->Init.ExternalTrigConv)            |
 8001b90:	4313      	orrs	r3, r2
    tmp_cr2 |= (hadc->Init.DataAlign                                          |
 8001b92:	68ba      	ldr	r2, [r7, #8]
 8001b94:	4313      	orrs	r3, r2
 8001b96:	60bb      	str	r3, [r7, #8]

    /* Configuration of ADC:                                                  */
    /*  - scan mode                                                           */
    /*  - discontinuous mode disable/enable                                   */
    /*  - discontinuous mode number of conversions                            */
    tmp_cr1 |= (ADC_CR1_SCAN_SET(hadc->Init.ScanConvMode));
 8001b98:	687b      	ldr	r3, [r7, #4]
 8001b9a:	689b      	ldr	r3, [r3, #8]
 8001b9c:	f5b3 7f80 	cmp.w	r3, #256	; 0x100
 8001ba0:	d003      	beq.n	8001baa <HAL_ADC_Init+0xa2>
 8001ba2:	687b      	ldr	r3, [r7, #4]
 8001ba4:	689b      	ldr	r3, [r3, #8]
 8001ba6:	2b01      	cmp	r3, #1
 8001ba8:	d102      	bne.n	8001bb0 <HAL_ADC_Init+0xa8>
 8001baa:	f44f 7380 	mov.w	r3, #256	; 0x100
 8001bae:	e000      	b.n	8001bb2 <HAL_ADC_Init+0xaa>
 8001bb0:	2300      	movs	r3, #0
 8001bb2:	693a      	ldr	r2, [r7, #16]
 8001bb4:	4313      	orrs	r3, r2
 8001bb6:	613b      	str	r3, [r7, #16]
    
    /* Enable discontinuous mode only if continuous mode is disabled */
    /* Note: If parameter "Init.ScanConvMode" is set to disable, parameter    */
    /*       discontinuous is set anyway, but will have no effect on ADC HW.  */
    if (hadc->Init.DiscontinuousConvMode == ENABLE)
 8001bb8:	687b      	ldr	r3, [r7, #4]
 8001bba:	7d1b      	ldrb	r3, [r3, #20]
 8001bbc:	2b01      	cmp	r3, #1
 8001bbe:	d119      	bne.n	8001bf4 <HAL_ADC_Init+0xec>
    {
      if (hadc->Init.ContinuousConvMode == DISABLE)
 8001bc0:	687b      	ldr	r3, [r7, #4]
 8001bc2:	7b1b      	ldrb	r3, [r3, #12]
 8001bc4:	2b00      	cmp	r3, #0
 8001bc6:	d109      	bne.n	8001bdc <HAL_ADC_Init+0xd4>
      {
        /* Enable the selected ADC regular discontinuous mode */
        /* Set the number of channels to be converted in discontinuous mode */
        SET_BIT(tmp_cr1, ADC_CR1_DISCEN                                            |
 8001bc8:	687b      	ldr	r3, [r7, #4]
 8001bca:	699b      	ldr	r3, [r3, #24]
 8001bcc:	3b01      	subs	r3, #1
 8001bce:	035a      	lsls	r2, r3, #13
 8001bd0:	693b      	ldr	r3, [r7, #16]
 8001bd2:	4313      	orrs	r3, r2
 8001bd4:	f443 6300 	orr.w	r3, r3, #2048	; 0x800
 8001bd8:	613b      	str	r3, [r7, #16]
 8001bda:	e00b      	b.n	8001bf4 <HAL_ADC_Init+0xec>
      {
        /* ADC regular group settings continuous and sequencer discontinuous*/
        /* cannot be enabled simultaneously.                                */
        
        /* Update ADC state machine to error */
        SET_BIT(hadc->State, HAL_ADC_STATE_ERROR_CONFIG);
 8001bdc:	687b      	ldr	r3, [r7, #4]
 8001bde:	6a9b      	ldr	r3, [r3, #40]	; 0x28
 8001be0:	f043 0220 	orr.w	r2, r3, #32
 8001be4:	687b      	ldr	r3, [r7, #4]
 8001be6:	629a      	str	r2, [r3, #40]	; 0x28
        
        /* Set ADC error code to ADC IP internal error */
        SET_BIT(hadc->ErrorCode, HAL_ADC_ERROR_INTERNAL);
 8001be8:	687b      	ldr	r3, [r7, #4]
 8001bea:	6adb      	ldr	r3, [r3, #44]	; 0x2c
 8001bec:	f043 0201 	orr.w	r2, r3, #1
 8001bf0:	687b      	ldr	r3, [r7, #4]
 8001bf2:	62da      	str	r2, [r3, #44]	; 0x2c
      }
    }
    
    /* Update ADC configuration register CR1 with previous settings */
      MODIFY_REG(hadc->Instance->CR1,
 8001bf4:	687b      	ldr	r3, [r7, #4]
 8001bf6:	681b      	ldr	r3, [r3, #0]
 8001bf8:	685b      	ldr	r3, [r3, #4]
 8001bfa:	f423 4169 	bic.w	r1, r3, #59648	; 0xe900
 8001bfe:	687b      	ldr	r3, [r7, #4]
 8001c00:	681b      	ldr	r3, [r3, #0]
 8001c02:	693a      	ldr	r2, [r7, #16]
 8001c04:	430a      	orrs	r2, r1
 8001c06:	605a      	str	r2, [r3, #4]
                 ADC_CR1_DISCEN  |
                 ADC_CR1_DISCNUM    ,
                 tmp_cr1             );
    
    /* Update ADC configuration register CR2 with previous settings */
      MODIFY_REG(hadc->Instance->CR2,
 8001c08:	687b      	ldr	r3, [r7, #4]
 8001c0a:	681b      	ldr	r3, [r3, #0]
 8001c0c:	689a      	ldr	r2, [r3, #8]
 8001c0e:	4b28      	ldr	r3, [pc, #160]	; (8001cb0 <HAL_ADC_Init+0x1a8>)
 8001c10:	4013      	ands	r3, r2
 8001c12:	687a      	ldr	r2, [r7, #4]
 8001c14:	6812      	ldr	r2, [r2, #0]
 8001c16:	68b9      	ldr	r1, [r7, #8]
 8001c18:	430b      	orrs	r3, r1
 8001c1a:	6093      	str	r3, [r2, #8]
    /*   Note: Scan mode is present by hardware on this device and, if        */
    /*   disabled, discards automatically nb of conversions. Anyway, nb of    */
    /*   conversions is forced to 0x00 for alignment over all STM32 devices.  */
    /* - if scan mode is enabled, regular channels sequence length is set to  */
    /*   parameter "NbrOfConversion"                                          */
    if (ADC_CR1_SCAN_SET(hadc->Init.ScanConvMode) == ADC_SCAN_ENABLE)
 8001c1c:	687b      	ldr	r3, [r7, #4]
 8001c1e:	689b      	ldr	r3, [r3, #8]
 8001c20:	f5b3 7f80 	cmp.w	r3, #256	; 0x100
 8001c24:	d003      	beq.n	8001c2e <HAL_ADC_Init+0x126>
 8001c26:	687b      	ldr	r3, [r7, #4]
 8001c28:	689b      	ldr	r3, [r3, #8]
 8001c2a:	2b01      	cmp	r3, #1
 8001c2c:	d104      	bne.n	8001c38 <HAL_ADC_Init+0x130>
    {
      tmp_sqr1 = ADC_SQR1_L_SHIFT(hadc->Init.NbrOfConversion);
 8001c2e:	687b      	ldr	r3, [r7, #4]
 8001c30:	691b      	ldr	r3, [r3, #16]
 8001c32:	3b01      	subs	r3, #1
 8001c34:	051b      	lsls	r3, r3, #20
 8001c36:	60fb      	str	r3, [r7, #12]
    }
      
    MODIFY_REG(hadc->Instance->SQR1,
 8001c38:	687b      	ldr	r3, [r7, #4]
 8001c3a:	681b      	ldr	r3, [r3, #0]
 8001c3c:	6adb      	ldr	r3, [r3, #44]	; 0x2c
 8001c3e:	f423 0170 	bic.w	r1, r3, #15728640	; 0xf00000
 8001c42:	687b      	ldr	r3, [r7, #4]
 8001c44:	681b      	ldr	r3, [r3, #0]
 8001c46:	68fa      	ldr	r2, [r7, #12]
 8001c48:	430a      	orrs	r2, r1
 8001c4a:	62da      	str	r2, [r3, #44]	; 0x2c
    /* ensure of no potential problem of ADC core IP clocking.                */
    /* Check through register CR2 (excluding bits set in other functions:     */
    /* execution control bits (ADON, JSWSTART, SWSTART), regular group bits   */
    /* (DMA), injected group bits (JEXTTRIG and JEXTSEL), channel internal    */
    /* measurement path bit (TSVREFE).                                        */
    if (READ_BIT(hadc->Instance->CR2, ~(ADC_CR2_ADON | ADC_CR2_DMA |
 8001c4c:	687b      	ldr	r3, [r7, #4]
 8001c4e:	681b      	ldr	r3, [r3, #0]
 8001c50:	689a      	ldr	r2, [r3, #8]
 8001c52:	4b18      	ldr	r3, [pc, #96]	; (8001cb4 <HAL_ADC_Init+0x1ac>)
 8001c54:	4013      	ands	r3, r2
 8001c56:	68ba      	ldr	r2, [r7, #8]
 8001c58:	429a      	cmp	r2, r3
 8001c5a:	d10b      	bne.n	8001c74 <HAL_ADC_Init+0x16c>
                                        ADC_CR2_JEXTTRIG | ADC_CR2_JEXTSEL |
                                        ADC_CR2_TSVREFE                     ))
         == tmp_cr2)
    {
      /* Set ADC error code to none */
      ADC_CLEAR_ERRORCODE(hadc);
 8001c5c:	687b      	ldr	r3, [r7, #4]
 8001c5e:	2200      	movs	r2, #0
 8001c60:	62da      	str	r2, [r3, #44]	; 0x2c
      
      /* Set the ADC state */
      ADC_STATE_CLR_SET(hadc->State,
 8001c62:	687b      	ldr	r3, [r7, #4]
 8001c64:	6a9b      	ldr	r3, [r3, #40]	; 0x28
 8001c66:	f023 0303 	bic.w	r3, r3, #3
 8001c6a:	f043 0201 	orr.w	r2, r3, #1
 8001c6e:	687b      	ldr	r3, [r7, #4]
 8001c70:	629a      	str	r2, [r3, #40]	; 0x28
    if (READ_BIT(hadc->Instance->CR2, ~(ADC_CR2_ADON | ADC_CR2_DMA |
 8001c72:	e018      	b.n	8001ca6 <HAL_ADC_Init+0x19e>
                        HAL_ADC_STATE_READY);
    }
    else
    {
      /* Update ADC state machine to error */
      ADC_STATE_CLR_SET(hadc->State,
 8001c74:	687b      	ldr	r3, [r7, #4]
 8001c76:	6a9b      	ldr	r3, [r3, #40]	; 0x28
 8001c78:	f023 0312 	bic.w	r3, r3, #18
 8001c7c:	f043 0210 	orr.w	r2, r3, #16
 8001c80:	687b      	ldr	r3, [r7, #4]
 8001c82:	629a      	str	r2, [r3, #40]	; 0x28
                        HAL_ADC_STATE_BUSY_INTERNAL,
                        HAL_ADC_STATE_ERROR_INTERNAL);
      
      /* Set ADC error code to ADC IP internal error */
      SET_BIT(hadc->ErrorCode, HAL_ADC_ERROR_INTERNAL);
 8001c84:	687b      	ldr	r3, [r7, #4]
 8001c86:	6adb      	ldr	r3, [r3, #44]	; 0x2c
 8001c88:	f043 0201 	orr.w	r2, r3, #1
 8001c8c:	687b      	ldr	r3, [r7, #4]
 8001c8e:	62da      	str	r2, [r3, #44]	; 0x2c
      
      tmp_hal_status = HAL_ERROR;
 8001c90:	2301      	movs	r3, #1
 8001c92:	75fb      	strb	r3, [r7, #23]
    if (READ_BIT(hadc->Instance->CR2, ~(ADC_CR2_ADON | ADC_CR2_DMA |
 8001c94:	e007      	b.n	8001ca6 <HAL_ADC_Init+0x19e>
  
  }
  else
  {
    /* Update ADC state machine to error */
    SET_BIT(hadc->State, HAL_ADC_STATE_ERROR_INTERNAL);
 8001c96:	687b      	ldr	r3, [r7, #4]
 8001c98:	6a9b      	ldr	r3, [r3, #40]	; 0x28
 8001c9a:	f043 0210 	orr.w	r2, r3, #16
 8001c9e:	687b      	ldr	r3, [r7, #4]
 8001ca0:	629a      	str	r2, [r3, #40]	; 0x28
        
    tmp_hal_status = HAL_ERROR;
 8001ca2:	2301      	movs	r3, #1
 8001ca4:	75fb      	strb	r3, [r7, #23]
  }
  
  /* Return function status */
  return tmp_hal_status;
 8001ca6:	7dfb      	ldrb	r3, [r7, #23]
}
 8001ca8:	4618      	mov	r0, r3
 8001caa:	3718      	adds	r7, #24
 8001cac:	46bd      	mov	sp, r7
 8001cae:	bd80      	pop	{r7, pc}
 8001cb0:	ffe1f7fd 	.word	0xffe1f7fd
 8001cb4:	ff1f0efe 	.word	0xff1f0efe

08001cb8 <HAL_ADC_ConfigChannel>:
  * @param  hadc: ADC handle
  * @param  sConfig: Structure of ADC channel for regular group.
  * @retval HAL status
  */
HAL_StatusTypeDef HAL_ADC_ConfigChannel(ADC_HandleTypeDef* hadc, ADC_ChannelConfTypeDef* sConfig)
{ 
 8001cb8:	b480      	push	{r7}
 8001cba:	b085      	sub	sp, #20
 8001cbc:	af00      	add	r7, sp, #0
 8001cbe:	6078      	str	r0, [r7, #4]
 8001cc0:	6039      	str	r1, [r7, #0]
  HAL_StatusTypeDef tmp_hal_status = HAL_OK;
 8001cc2:	2300      	movs	r3, #0
 8001cc4:	73fb      	strb	r3, [r7, #15]
  __IO uint32_t wait_loop_index = 0U;
 8001cc6:	2300      	movs	r3, #0
 8001cc8:	60bb      	str	r3, [r7, #8]
  assert_param(IS_ADC_CHANNEL(sConfig->Channel));
  assert_param(IS_ADC_REGULAR_RANK(sConfig->Rank));
  assert_param(IS_ADC_SAMPLE_TIME(sConfig->SamplingTime));
  
  /* Process locked */
  __HAL_LOCK(hadc);
 8001cca:	687b      	ldr	r3, [r7, #4]
 8001ccc:	f893 3024 	ldrb.w	r3, [r3, #36]	; 0x24
 8001cd0:	2b01      	cmp	r3, #1
 8001cd2:	d101      	bne.n	8001cd8 <HAL_ADC_ConfigChannel+0x20>
 8001cd4:	2302      	movs	r3, #2
 8001cd6:	e0dc      	b.n	8001e92 <HAL_ADC_ConfigChannel+0x1da>
 8001cd8:	687b      	ldr	r3, [r7, #4]
 8001cda:	2201      	movs	r2, #1
 8001cdc:	f883 2024 	strb.w	r2, [r3, #36]	; 0x24
  
  
  /* Regular sequence configuration */
  /* For Rank 1 to 6 */
  if (sConfig->Rank < 7U)
 8001ce0:	683b      	ldr	r3, [r7, #0]
 8001ce2:	685b      	ldr	r3, [r3, #4]
 8001ce4:	2b06      	cmp	r3, #6
 8001ce6:	d81c      	bhi.n	8001d22 <HAL_ADC_ConfigChannel+0x6a>
  {
    MODIFY_REG(hadc->Instance->SQR3                        ,
 8001ce8:	687b      	ldr	r3, [r7, #4]
 8001cea:	681b      	ldr	r3, [r3, #0]
 8001cec:	6b59      	ldr	r1, [r3, #52]	; 0x34
 8001cee:	683b      	ldr	r3, [r7, #0]
 8001cf0:	685a      	ldr	r2, [r3, #4]
 8001cf2:	4613      	mov	r3, r2
 8001cf4:	009b      	lsls	r3, r3, #2
 8001cf6:	4413      	add	r3, r2
 8001cf8:	3b05      	subs	r3, #5
 8001cfa:	221f      	movs	r2, #31
 8001cfc:	fa02 f303 	lsl.w	r3, r2, r3
 8001d00:	43db      	mvns	r3, r3
 8001d02:	4019      	ands	r1, r3
 8001d04:	683b      	ldr	r3, [r7, #0]
 8001d06:	6818      	ldr	r0, [r3, #0]
 8001d08:	683b      	ldr	r3, [r7, #0]
 8001d0a:	685a      	ldr	r2, [r3, #4]
 8001d0c:	4613      	mov	r3, r2
 8001d0e:	009b      	lsls	r3, r3, #2
 8001d10:	4413      	add	r3, r2
 8001d12:	3b05      	subs	r3, #5
 8001d14:	fa00 f203 	lsl.w	r2, r0, r3
 8001d18:	687b      	ldr	r3, [r7, #4]
 8001d1a:	681b      	ldr	r3, [r3, #0]
 8001d1c:	430a      	orrs	r2, r1
 8001d1e:	635a      	str	r2, [r3, #52]	; 0x34
 8001d20:	e03c      	b.n	8001d9c <HAL_ADC_ConfigChannel+0xe4>
               ADC_SQR3_RK(ADC_SQR3_SQ1, sConfig->Rank)    ,
               ADC_SQR3_RK(sConfig->Channel, sConfig->Rank) );
  }
  /* For Rank 7 to 12 */
  else if (sConfig->Rank < 13U)
 8001d22:	683b      	ldr	r3, [r7, #0]
 8001d24:	685b      	ldr	r3, [r3, #4]
 8001d26:	2b0c      	cmp	r3, #12
 8001d28:	d81c      	bhi.n	8001d64 <HAL_ADC_ConfigChannel+0xac>
  {
    MODIFY_REG(hadc->Instance->SQR2                        ,
 8001d2a:	687b      	ldr	r3, [r7, #4]
 8001d2c:	681b      	ldr	r3, [r3, #0]
 8001d2e:	6b19      	ldr	r1, [r3, #48]	; 0x30
 8001d30:	683b      	ldr	r3, [r7, #0]
 8001d32:	685a      	ldr	r2, [r3, #4]
 8001d34:	4613      	mov	r3, r2
 8001d36:	009b      	lsls	r3, r3, #2
 8001d38:	4413      	add	r3, r2
 8001d3a:	3b23      	subs	r3, #35	; 0x23
 8001d3c:	221f      	movs	r2, #31
 8001d3e:	fa02 f303 	lsl.w	r3, r2, r3
 8001d42:	43db      	mvns	r3, r3
 8001d44:	4019      	ands	r1, r3
 8001d46:	683b      	ldr	r3, [r7, #0]
 8001d48:	6818      	ldr	r0, [r3, #0]
 8001d4a:	683b      	ldr	r3, [r7, #0]
 8001d4c:	685a      	ldr	r2, [r3, #4]
 8001d4e:	4613      	mov	r3, r2
 8001d50:	009b      	lsls	r3, r3, #2
 8001d52:	4413      	add	r3, r2
 8001d54:	3b23      	subs	r3, #35	; 0x23
 8001d56:	fa00 f203 	lsl.w	r2, r0, r3
 8001d5a:	687b      	ldr	r3, [r7, #4]
 8001d5c:	681b      	ldr	r3, [r3, #0]
 8001d5e:	430a      	orrs	r2, r1
 8001d60:	631a      	str	r2, [r3, #48]	; 0x30
 8001d62:	e01b      	b.n	8001d9c <HAL_ADC_ConfigChannel+0xe4>
               ADC_SQR2_RK(sConfig->Channel, sConfig->Rank) );
  }
  /* For Rank 13 to 16 */
  else
  {
    MODIFY_REG(hadc->Instance->SQR1                        ,
 8001d64:	687b      	ldr	r3, [r7, #4]
 8001d66:	681b      	ldr	r3, [r3, #0]
 8001d68:	6ad9      	ldr	r1, [r3, #44]	; 0x2c
 8001d6a:	683b      	ldr	r3, [r7, #0]
 8001d6c:	685a      	ldr	r2, [r3, #4]
 8001d6e:	4613      	mov	r3, r2
 8001d70:	009b      	lsls	r3, r3, #2
 8001d72:	4413      	add	r3, r2
 8001d74:	3b41      	subs	r3, #65	; 0x41
 8001d76:	221f      	movs	r2, #31
 8001d78:	fa02 f303 	lsl.w	r3, r2, r3
 8001d7c:	43db      	mvns	r3, r3
 8001d7e:	4019      	ands	r1, r3
 8001d80:	683b      	ldr	r3, [r7, #0]
 8001d82:	6818      	ldr	r0, [r3, #0]
 8001d84:	683b      	ldr	r3, [r7, #0]
 8001d86:	685a      	ldr	r2, [r3, #4]
 8001d88:	4613      	mov	r3, r2
 8001d8a:	009b      	lsls	r3, r3, #2
 8001d8c:	4413      	add	r3, r2
 8001d8e:	3b41      	subs	r3, #65	; 0x41
 8001d90:	fa00 f203 	lsl.w	r2, r0, r3
 8001d94:	687b      	ldr	r3, [r7, #4]
 8001d96:	681b      	ldr	r3, [r3, #0]
 8001d98:	430a      	orrs	r2, r1
 8001d9a:	62da      	str	r2, [r3, #44]	; 0x2c
  }
  
  
  /* Channel sampling time configuration */
  /* For channels 10 to 17 */
  if (sConfig->Channel >= ADC_CHANNEL_10)
 8001d9c:	683b      	ldr	r3, [r7, #0]
 8001d9e:	681b      	ldr	r3, [r3, #0]
 8001da0:	2b09      	cmp	r3, #9
 8001da2:	d91c      	bls.n	8001dde <HAL_ADC_ConfigChannel+0x126>
  {
    MODIFY_REG(hadc->Instance->SMPR1                             ,
 8001da4:	687b      	ldr	r3, [r7, #4]
 8001da6:	681b      	ldr	r3, [r3, #0]
 8001da8:	68d9      	ldr	r1, [r3, #12]
 8001daa:	683b      	ldr	r3, [r7, #0]
 8001dac:	681a      	ldr	r2, [r3, #0]
 8001dae:	4613      	mov	r3, r2
 8001db0:	005b      	lsls	r3, r3, #1
 8001db2:	4413      	add	r3, r2
 8001db4:	3b1e      	subs	r3, #30
 8001db6:	2207      	movs	r2, #7
 8001db8:	fa02 f303 	lsl.w	r3, r2, r3
 8001dbc:	43db      	mvns	r3, r3
 8001dbe:	4019      	ands	r1, r3
 8001dc0:	683b      	ldr	r3, [r7, #0]
 8001dc2:	6898      	ldr	r0, [r3, #8]
 8001dc4:	683b      	ldr	r3, [r7, #0]
 8001dc6:	681a      	ldr	r2, [r3, #0]
 8001dc8:	4613      	mov	r3, r2
 8001dca:	005b      	lsls	r3, r3, #1
 8001dcc:	4413      	add	r3, r2
 8001dce:	3b1e      	subs	r3, #30
 8001dd0:	fa00 f203 	lsl.w	r2, r0, r3
 8001dd4:	687b      	ldr	r3, [r7, #4]
 8001dd6:	681b      	ldr	r3, [r3, #0]
 8001dd8:	430a      	orrs	r2, r1
 8001dda:	60da      	str	r2, [r3, #12]
 8001ddc:	e019      	b.n	8001e12 <HAL_ADC_ConfigChannel+0x15a>
               ADC_SMPR1(ADC_SMPR1_SMP10, sConfig->Channel)      ,
               ADC_SMPR1(sConfig->SamplingTime, sConfig->Channel) );
  }
  else /* For channels 0 to 9 */
  {
    MODIFY_REG(hadc->Instance->SMPR2                             ,
 8001dde:	687b      	ldr	r3, [r7, #4]
 8001de0:	681b      	ldr	r3, [r3, #0]
 8001de2:	6919      	ldr	r1, [r3, #16]
 8001de4:	683b      	ldr	r3, [r7, #0]
 8001de6:	681a      	ldr	r2, [r3, #0]
 8001de8:	4613      	mov	r3, r2
 8001dea:	005b      	lsls	r3, r3, #1
 8001dec:	4413      	add	r3, r2
 8001dee:	2207      	movs	r2, #7
 8001df0:	fa02 f303 	lsl.w	r3, r2, r3
 8001df4:	43db      	mvns	r3, r3
 8001df6:	4019      	ands	r1, r3
 8001df8:	683b      	ldr	r3, [r7, #0]
 8001dfa:	6898      	ldr	r0, [r3, #8]
 8001dfc:	683b      	ldr	r3, [r7, #0]
 8001dfe:	681a      	ldr	r2, [r3, #0]
 8001e00:	4613      	mov	r3, r2
 8001e02:	005b      	lsls	r3, r3, #1
 8001e04:	4413      	add	r3, r2
 8001e06:	fa00 f203 	lsl.w	r2, r0, r3
 8001e0a:	687b      	ldr	r3, [r7, #4]
 8001e0c:	681b      	ldr	r3, [r3, #0]
 8001e0e:	430a      	orrs	r2, r1
 8001e10:	611a      	str	r2, [r3, #16]
               ADC_SMPR2(sConfig->SamplingTime, sConfig->Channel) );
  }
  
  /* If ADC1 Channel_16 or Channel_17 is selected, enable Temperature sensor  */
  /* and VREFINT measurement path.                                            */
  if ((sConfig->Channel == ADC_CHANNEL_TEMPSENSOR) ||
 8001e12:	683b      	ldr	r3, [r7, #0]
 8001e14:	681b      	ldr	r3, [r3, #0]
 8001e16:	2b10      	cmp	r3, #16
 8001e18:	d003      	beq.n	8001e22 <HAL_ADC_ConfigChannel+0x16a>
      (sConfig->Channel == ADC_CHANNEL_VREFINT)      )
 8001e1a:	683b      	ldr	r3, [r7, #0]
 8001e1c:	681b      	ldr	r3, [r3, #0]
  if ((sConfig->Channel == ADC_CHANNEL_TEMPSENSOR) ||
 8001e1e:	2b11      	cmp	r3, #17
 8001e20:	d132      	bne.n	8001e88 <HAL_ADC_ConfigChannel+0x1d0>
  {
    /* For STM32F1 devices with several ADC: Only ADC1 can access internal    */
    /* measurement channels (VrefInt/TempSensor). If these channels are       */
    /* intended to be set on other ADC instances, an error is reported.       */
    if (hadc->Instance == ADC1)
 8001e22:	687b      	ldr	r3, [r7, #4]
 8001e24:	681b      	ldr	r3, [r3, #0]
 8001e26:	4a1d      	ldr	r2, [pc, #116]	; (8001e9c <HAL_ADC_ConfigChannel+0x1e4>)
 8001e28:	4293      	cmp	r3, r2
 8001e2a:	d125      	bne.n	8001e78 <HAL_ADC_ConfigChannel+0x1c0>
    {
      if (READ_BIT(hadc->Instance->CR2, ADC_CR2_TSVREFE) == RESET)
 8001e2c:	687b      	ldr	r3, [r7, #4]
 8001e2e:	681b      	ldr	r3, [r3, #0]
 8001e30:	689b      	ldr	r3, [r3, #8]
 8001e32:	f403 0300 	and.w	r3, r3, #8388608	; 0x800000
 8001e36:	2b00      	cmp	r3, #0
 8001e38:	d126      	bne.n	8001e88 <HAL_ADC_ConfigChannel+0x1d0>
      {
        SET_BIT(hadc->Instance->CR2, ADC_CR2_TSVREFE);
 8001e3a:	687b      	ldr	r3, [r7, #4]
 8001e3c:	681b      	ldr	r3, [r3, #0]
 8001e3e:	689a      	ldr	r2, [r3, #8]
 8001e40:	687b      	ldr	r3, [r7, #4]
 8001e42:	681b      	ldr	r3, [r3, #0]
 8001e44:	f442 0200 	orr.w	r2, r2, #8388608	; 0x800000
 8001e48:	609a      	str	r2, [r3, #8]
        
        if ((sConfig->Channel == ADC_CHANNEL_TEMPSENSOR))
 8001e4a:	683b      	ldr	r3, [r7, #0]
 8001e4c:	681b      	ldr	r3, [r3, #0]
 8001e4e:	2b10      	cmp	r3, #16
 8001e50:	d11a      	bne.n	8001e88 <HAL_ADC_ConfigChannel+0x1d0>
        {
          /* Delay for temperature sensor stabilization time */
          /* Compute number of CPU cycles to wait for */
          wait_loop_index = (ADC_TEMPSENSOR_DELAY_US * (SystemCoreClock / 1000000U));
 8001e52:	4b13      	ldr	r3, [pc, #76]	; (8001ea0 <HAL_ADC_ConfigChannel+0x1e8>)
 8001e54:	681b      	ldr	r3, [r3, #0]
 8001e56:	4a13      	ldr	r2, [pc, #76]	; (8001ea4 <HAL_ADC_ConfigChannel+0x1ec>)
 8001e58:	fba2 2303 	umull	r2, r3, r2, r3
 8001e5c:	0c9a      	lsrs	r2, r3, #18
 8001e5e:	4613      	mov	r3, r2
 8001e60:	009b      	lsls	r3, r3, #2
 8001e62:	4413      	add	r3, r2
 8001e64:	005b      	lsls	r3, r3, #1
 8001e66:	60bb      	str	r3, [r7, #8]
          while(wait_loop_index != 0U)
 8001e68:	e002      	b.n	8001e70 <HAL_ADC_ConfigChannel+0x1b8>
          {
            wait_loop_index--;
 8001e6a:	68bb      	ldr	r3, [r7, #8]
 8001e6c:	3b01      	subs	r3, #1
 8001e6e:	60bb      	str	r3, [r7, #8]
          while(wait_loop_index != 0U)
 8001e70:	68bb      	ldr	r3, [r7, #8]
 8001e72:	2b00      	cmp	r3, #0
 8001e74:	d1f9      	bne.n	8001e6a <HAL_ADC_ConfigChannel+0x1b2>
 8001e76:	e007      	b.n	8001e88 <HAL_ADC_ConfigChannel+0x1d0>
      }
    }
    else
    {
      /* Update ADC state machine to error */
      SET_BIT(hadc->State, HAL_ADC_STATE_ERROR_CONFIG);
 8001e78:	687b      	ldr	r3, [r7, #4]
 8001e7a:	6a9b      	ldr	r3, [r3, #40]	; 0x28
 8001e7c:	f043 0220 	orr.w	r2, r3, #32
 8001e80:	687b      	ldr	r3, [r7, #4]
 8001e82:	629a      	str	r2, [r3, #40]	; 0x28
      
      tmp_hal_status = HAL_ERROR;
 8001e84:	2301      	movs	r3, #1
 8001e86:	73fb      	strb	r3, [r7, #15]
    }
  }
  
  /* Process unlocked */
  __HAL_UNLOCK(hadc);
 8001e88:	687b      	ldr	r3, [r7, #4]
 8001e8a:	2200      	movs	r2, #0
 8001e8c:	f883 2024 	strb.w	r2, [r3, #36]	; 0x24
  
  /* Return function status */
  return tmp_hal_status;
 8001e90:	7bfb      	ldrb	r3, [r7, #15]
}
 8001e92:	4618      	mov	r0, r3
 8001e94:	3714      	adds	r7, #20
 8001e96:	46bd      	mov	sp, r7
 8001e98:	bc80      	pop	{r7}
 8001e9a:	4770      	bx	lr
 8001e9c:	40012400 	.word	0x40012400
 8001ea0:	20000078 	.word	0x20000078
 8001ea4:	431bde83 	.word	0x431bde83

08001ea8 <ADC_ConversionStop_Disable>:
  *         stopped to disable the ADC.
  * @param  hadc: ADC handle
  * @retval HAL status.
  */
HAL_StatusTypeDef ADC_ConversionStop_Disable(ADC_HandleTypeDef* hadc)
{
 8001ea8:	b580      	push	{r7, lr}
 8001eaa:	b084      	sub	sp, #16
 8001eac:	af00      	add	r7, sp, #0
 8001eae:	6078      	str	r0, [r7, #4]
  uint32_t tickstart = 0U;
 8001eb0:	2300      	movs	r3, #0
 8001eb2:	60fb      	str	r3, [r7, #12]
  
  /* Verification if ADC is not already disabled */
  if (ADC_IS_ENABLE(hadc) != RESET)
 8001eb4:	687b      	ldr	r3, [r7, #4]
 8001eb6:	681b      	ldr	r3, [r3, #0]
 8001eb8:	689b      	ldr	r3, [r3, #8]
 8001eba:	f003 0301 	and.w	r3, r3, #1
 8001ebe:	2b01      	cmp	r3, #1
 8001ec0:	d127      	bne.n	8001f12 <ADC_ConversionStop_Disable+0x6a>
  {
    /* Disable the ADC peripheral */
    __HAL_ADC_DISABLE(hadc);
 8001ec2:	687b      	ldr	r3, [r7, #4]
 8001ec4:	681b      	ldr	r3, [r3, #0]
 8001ec6:	689a      	ldr	r2, [r3, #8]
 8001ec8:	687b      	ldr	r3, [r7, #4]
 8001eca:	681b      	ldr	r3, [r3, #0]
 8001ecc:	f022 0201 	bic.w	r2, r2, #1
 8001ed0:	609a      	str	r2, [r3, #8]
     
    /* Get tick count */
    tickstart = HAL_GetTick();
 8001ed2:	f7ff fded 	bl	8001ab0 <HAL_GetTick>
 8001ed6:	60f8      	str	r0, [r7, #12]
    
    /* Wait for ADC effectively disabled */
    while(ADC_IS_ENABLE(hadc) != RESET)
 8001ed8:	e014      	b.n	8001f04 <ADC_ConversionStop_Disable+0x5c>
    {
      if((HAL_GetTick() - tickstart) > ADC_DISABLE_TIMEOUT)
 8001eda:	f7ff fde9 	bl	8001ab0 <HAL_GetTick>
 8001ede:	4602      	mov	r2, r0
 8001ee0:	68fb      	ldr	r3, [r7, #12]
 8001ee2:	1ad3      	subs	r3, r2, r3
 8001ee4:	2b02      	cmp	r3, #2
 8001ee6:	d90d      	bls.n	8001f04 <ADC_ConversionStop_Disable+0x5c>
      {
        /* Update ADC state machine to error */
        SET_BIT(hadc->State, HAL_ADC_STATE_ERROR_INTERNAL);
 8001ee8:	687b      	ldr	r3, [r7, #4]
 8001eea:	6a9b      	ldr	r3, [r3, #40]	; 0x28
 8001eec:	f043 0210 	orr.w	r2, r3, #16
 8001ef0:	687b      	ldr	r3, [r7, #4]
 8001ef2:	629a      	str	r2, [r3, #40]	; 0x28
        
        /* Set ADC error code to ADC IP internal error */
        SET_BIT(hadc->ErrorCode, HAL_ADC_ERROR_INTERNAL);
 8001ef4:	687b      	ldr	r3, [r7, #4]
 8001ef6:	6adb      	ldr	r3, [r3, #44]	; 0x2c
 8001ef8:	f043 0201 	orr.w	r2, r3, #1
 8001efc:	687b      	ldr	r3, [r7, #4]
 8001efe:	62da      	str	r2, [r3, #44]	; 0x2c
        
        return HAL_ERROR;
 8001f00:	2301      	movs	r3, #1
 8001f02:	e007      	b.n	8001f14 <ADC_ConversionStop_Disable+0x6c>
    while(ADC_IS_ENABLE(hadc) != RESET)
 8001f04:	687b      	ldr	r3, [r7, #4]
 8001f06:	681b      	ldr	r3, [r3, #0]
 8001f08:	689b      	ldr	r3, [r3, #8]
 8001f0a:	f003 0301 	and.w	r3, r3, #1
 8001f0e:	2b01      	cmp	r3, #1
 8001f10:	d0e3      	beq.n	8001eda <ADC_ConversionStop_Disable+0x32>
      }
    }
  }
  
  /* Return HAL status */
  return HAL_OK;
 8001f12:	2300      	movs	r3, #0
}
 8001f14:	4618      	mov	r0, r3
 8001f16:	3710      	adds	r7, #16
 8001f18:	46bd      	mov	sp, r7
 8001f1a:	bd80      	pop	{r7, pc}

08001f1c <__NVIC_SetPriorityGrouping>:
           In case of a conflict between priority grouping and available
           priority bits (__NVIC_PRIO_BITS), the smallest possible priority group is set.
  \param [in]      PriorityGroup  Priority grouping field.
 */
__STATIC_INLINE void __NVIC_SetPriorityGrouping(uint32_t PriorityGroup)
{
 8001f1c:	b480      	push	{r7}
 8001f1e:	b085      	sub	sp, #20
 8001f20:	af00      	add	r7, sp, #0
 8001f22:	6078      	str	r0, [r7, #4]
  uint32_t reg_value;
  uint32_t PriorityGroupTmp = (PriorityGroup & (uint32_t)0x07UL);             /* only values 0..7 are used          */
 8001f24:	687b      	ldr	r3, [r7, #4]
 8001f26:	f003 0307 	and.w	r3, r3, #7
 8001f2a:	60fb      	str	r3, [r7, #12]

  reg_value  =  SCB->AIRCR;                                                   /* read old register configuration    */
 8001f2c:	4b0c      	ldr	r3, [pc, #48]	; (8001f60 <__NVIC_SetPriorityGrouping+0x44>)
 8001f2e:	68db      	ldr	r3, [r3, #12]
 8001f30:	60bb      	str	r3, [r7, #8]
  reg_value &= ~((uint32_t)(SCB_AIRCR_VECTKEY_Msk | SCB_AIRCR_PRIGROUP_Msk)); /* clear bits to change               */
 8001f32:	68ba      	ldr	r2, [r7, #8]
 8001f34:	f64f 03ff 	movw	r3, #63743	; 0xf8ff
 8001f38:	4013      	ands	r3, r2
 8001f3a:	60bb      	str	r3, [r7, #8]
  reg_value  =  (reg_value                                   |
                ((uint32_t)0x5FAUL << SCB_AIRCR_VECTKEY_Pos) |
                (PriorityGroupTmp << SCB_AIRCR_PRIGROUP_Pos) );               /* Insert write key and priority group */
 8001f3c:	68fb      	ldr	r3, [r7, #12]
 8001f3e:	021a      	lsls	r2, r3, #8
                ((uint32_t)0x5FAUL << SCB_AIRCR_VECTKEY_Pos) |
 8001f40:	68bb      	ldr	r3, [r7, #8]
 8001f42:	4313      	orrs	r3, r2
  reg_value  =  (reg_value                                   |
 8001f44:	f043 63bf 	orr.w	r3, r3, #100139008	; 0x5f80000
 8001f48:	f443 3300 	orr.w	r3, r3, #131072	; 0x20000
 8001f4c:	60bb      	str	r3, [r7, #8]
  SCB->AIRCR =  reg_value;
 8001f4e:	4a04      	ldr	r2, [pc, #16]	; (8001f60 <__NVIC_SetPriorityGrouping+0x44>)
 8001f50:	68bb      	ldr	r3, [r7, #8]
 8001f52:	60d3      	str	r3, [r2, #12]
}
 8001f54:	bf00      	nop
 8001f56:	3714      	adds	r7, #20
 8001f58:	46bd      	mov	sp, r7
 8001f5a:	bc80      	pop	{r7}
 8001f5c:	4770      	bx	lr
 8001f5e:	bf00      	nop
 8001f60:	e000ed00 	.word	0xe000ed00

08001f64 <__NVIC_GetPriorityGrouping>:
  \brief   Get Priority Grouping
  \details Reads the priority grouping field from the NVIC Interrupt Controller.
  \return                Priority grouping field (SCB->AIRCR [10:8] PRIGROUP field).
 */
__STATIC_INLINE uint32_t __NVIC_GetPriorityGrouping(void)
{
 8001f64:	b480      	push	{r7}
 8001f66:	af00      	add	r7, sp, #0
  return ((uint32_t)((SCB->AIRCR & SCB_AIRCR_PRIGROUP_Msk) >> SCB_AIRCR_PRIGROUP_Pos));
 8001f68:	4b04      	ldr	r3, [pc, #16]	; (8001f7c <__NVIC_GetPriorityGrouping+0x18>)
 8001f6a:	68db      	ldr	r3, [r3, #12]
 8001f6c:	0a1b      	lsrs	r3, r3, #8
 8001f6e:	f003 0307 	and.w	r3, r3, #7
}
 8001f72:	4618      	mov	r0, r3
 8001f74:	46bd      	mov	sp, r7
 8001f76:	bc80      	pop	{r7}
 8001f78:	4770      	bx	lr
 8001f7a:	bf00      	nop
 8001f7c:	e000ed00 	.word	0xe000ed00

08001f80 <__NVIC_EnableIRQ>:
  \details Enables a device specific interrupt in the NVIC interrupt controller.
  \param [in]      IRQn  Device specific interrupt number.
  \note    IRQn must not be negative.
 */
__STATIC_INLINE void __NVIC_EnableIRQ(IRQn_Type IRQn)
{
 8001f80:	b480      	push	{r7}
 8001f82:	b083      	sub	sp, #12
 8001f84:	af00      	add	r7, sp, #0
 8001f86:	4603      	mov	r3, r0
 8001f88:	71fb      	strb	r3, [r7, #7]
  if ((int32_t)(IRQn) >= 0)
 8001f8a:	f997 3007 	ldrsb.w	r3, [r7, #7]
 8001f8e:	2b00      	cmp	r3, #0
 8001f90:	db0b      	blt.n	8001faa <__NVIC_EnableIRQ+0x2a>
  {
    NVIC->ISER[(((uint32_t)IRQn) >> 5UL)] = (uint32_t)(1UL << (((uint32_t)IRQn) & 0x1FUL));
 8001f92:	79fb      	ldrb	r3, [r7, #7]
 8001f94:	f003 021f 	and.w	r2, r3, #31
 8001f98:	4906      	ldr	r1, [pc, #24]	; (8001fb4 <__NVIC_EnableIRQ+0x34>)
 8001f9a:	f997 3007 	ldrsb.w	r3, [r7, #7]
 8001f9e:	095b      	lsrs	r3, r3, #5
 8001fa0:	2001      	movs	r0, #1
 8001fa2:	fa00 f202 	lsl.w	r2, r0, r2
 8001fa6:	f841 2023 	str.w	r2, [r1, r3, lsl #2]
  }
}
 8001faa:	bf00      	nop
 8001fac:	370c      	adds	r7, #12
 8001fae:	46bd      	mov	sp, r7
 8001fb0:	bc80      	pop	{r7}
 8001fb2:	4770      	bx	lr
 8001fb4:	e000e100 	.word	0xe000e100

08001fb8 <__NVIC_SetPriority>:
  \param [in]      IRQn  Interrupt number.
  \param [in]  priority  Priority to set.
  \note    The priority cannot be set for every processor exception.
 */
__STATIC_INLINE void __NVIC_SetPriority(IRQn_Type IRQn, uint32_t priority)
{
 8001fb8:	b480      	push	{r7}
 8001fba:	b083      	sub	sp, #12
 8001fbc:	af00      	add	r7, sp, #0
 8001fbe:	4603      	mov	r3, r0
 8001fc0:	6039      	str	r1, [r7, #0]
 8001fc2:	71fb      	strb	r3, [r7, #7]
  if ((int32_t)(IRQn) >= 0)
 8001fc4:	f997 3007 	ldrsb.w	r3, [r7, #7]
 8001fc8:	2b00      	cmp	r3, #0
 8001fca:	db0a      	blt.n	8001fe2 <__NVIC_SetPriority+0x2a>
  {
    NVIC->IP[((uint32_t)IRQn)]               = (uint8_t)((priority << (8U - __NVIC_PRIO_BITS)) & (uint32_t)0xFFUL);
 8001fcc:	683b      	ldr	r3, [r7, #0]
 8001fce:	b2da      	uxtb	r2, r3
 8001fd0:	490c      	ldr	r1, [pc, #48]	; (8002004 <__NVIC_SetPriority+0x4c>)
 8001fd2:	f997 3007 	ldrsb.w	r3, [r7, #7]
 8001fd6:	0112      	lsls	r2, r2, #4
 8001fd8:	b2d2      	uxtb	r2, r2
 8001fda:	440b      	add	r3, r1
 8001fdc:	f883 2300 	strb.w	r2, [r3, #768]	; 0x300
  }
  else
  {
    SCB->SHP[(((uint32_t)IRQn) & 0xFUL)-4UL] = (uint8_t)((priority << (8U - __NVIC_PRIO_BITS)) & (uint32_t)0xFFUL);
  }
}
 8001fe0:	e00a      	b.n	8001ff8 <__NVIC_SetPriority+0x40>
    SCB->SHP[(((uint32_t)IRQn) & 0xFUL)-4UL] = (uint8_t)((priority << (8U - __NVIC_PRIO_BITS)) & (uint32_t)0xFFUL);
 8001fe2:	683b      	ldr	r3, [r7, #0]
 8001fe4:	b2da      	uxtb	r2, r3
 8001fe6:	4908      	ldr	r1, [pc, #32]	; (8002008 <__NVIC_SetPriority+0x50>)
 8001fe8:	79fb      	ldrb	r3, [r7, #7]
 8001fea:	f003 030f 	and.w	r3, r3, #15
 8001fee:	3b04      	subs	r3, #4
 8001ff0:	0112      	lsls	r2, r2, #4
 8001ff2:	b2d2      	uxtb	r2, r2
 8001ff4:	440b      	add	r3, r1
 8001ff6:	761a      	strb	r2, [r3, #24]
}
 8001ff8:	bf00      	nop
 8001ffa:	370c      	adds	r7, #12
 8001ffc:	46bd      	mov	sp, r7
 8001ffe:	bc80      	pop	{r7}
 8002000:	4770      	bx	lr
 8002002:	bf00      	nop
 8002004:	e000e100 	.word	0xe000e100
 8002008:	e000ed00 	.word	0xe000ed00

0800200c <NVIC_EncodePriority>:
  \param [in]   PreemptPriority  Preemptive priority value (starting from 0).
  \param [in]       SubPriority  Subpriority value (starting from 0).
  \return                        Encoded priority. Value can be used in the function \ref NVIC_SetPriority().
 */
__STATIC_INLINE uint32_t NVIC_EncodePriority (uint32_t PriorityGroup, uint32_t PreemptPriority, uint32_t SubPriority)
{
 800200c:	b480      	push	{r7}
 800200e:	b089      	sub	sp, #36	; 0x24
 8002010:	af00      	add	r7, sp, #0
 8002012:	60f8      	str	r0, [r7, #12]
 8002014:	60b9      	str	r1, [r7, #8]
 8002016:	607a      	str	r2, [r7, #4]
  uint32_t PriorityGroupTmp = (PriorityGroup & (uint32_t)0x07UL);   /* only values 0..7 are used          */
 8002018:	68fb      	ldr	r3, [r7, #12]
 800201a:	f003 0307 	and.w	r3, r3, #7
 800201e:	61fb      	str	r3, [r7, #28]
  uint32_t PreemptPriorityBits;
  uint32_t SubPriorityBits;

  PreemptPriorityBits = ((7UL - PriorityGroupTmp) > (uint32_t)(__NVIC_PRIO_BITS)) ? (uint32_t)(__NVIC_PRIO_BITS) : (uint32_t)(7UL - PriorityGroupTmp);
 8002020:	69fb      	ldr	r3, [r7, #28]
 8002022:	f1c3 0307 	rsb	r3, r3, #7
 8002026:	2b04      	cmp	r3, #4
 8002028:	bf28      	it	cs
 800202a:	2304      	movcs	r3, #4
 800202c:	61bb      	str	r3, [r7, #24]
  SubPriorityBits     = ((PriorityGroupTmp + (uint32_t)(__NVIC_PRIO_BITS)) < (uint32_t)7UL) ? (uint32_t)0UL : (uint32_t)((PriorityGroupTmp - 7UL) + (uint32_t)(__NVIC_PRIO_BITS));
 800202e:	69fb      	ldr	r3, [r7, #28]
 8002030:	3304      	adds	r3, #4
 8002032:	2b06      	cmp	r3, #6
 8002034:	d902      	bls.n	800203c <NVIC_EncodePriority+0x30>
 8002036:	69fb      	ldr	r3, [r7, #28]
 8002038:	3b03      	subs	r3, #3
 800203a:	e000      	b.n	800203e <NVIC_EncodePriority+0x32>
 800203c:	2300      	movs	r3, #0
 800203e:	617b      	str	r3, [r7, #20]

  return (
           ((PreemptPriority & (uint32_t)((1UL << (PreemptPriorityBits)) - 1UL)) << SubPriorityBits) |
 8002040:	f04f 32ff 	mov.w	r2, #4294967295	; 0xffffffff
 8002044:	69bb      	ldr	r3, [r7, #24]
 8002046:	fa02 f303 	lsl.w	r3, r2, r3
 800204a:	43da      	mvns	r2, r3
 800204c:	68bb      	ldr	r3, [r7, #8]
 800204e:	401a      	ands	r2, r3
 8002050:	697b      	ldr	r3, [r7, #20]
 8002052:	409a      	lsls	r2, r3
           ((SubPriority     & (uint32_t)((1UL << (SubPriorityBits    )) - 1UL)))
 8002054:	f04f 31ff 	mov.w	r1, #4294967295	; 0xffffffff
 8002058:	697b      	ldr	r3, [r7, #20]
 800205a:	fa01 f303 	lsl.w	r3, r1, r3
 800205e:	43d9      	mvns	r1, r3
 8002060:	687b      	ldr	r3, [r7, #4]
 8002062:	400b      	ands	r3, r1
           ((PreemptPriority & (uint32_t)((1UL << (PreemptPriorityBits)) - 1UL)) << SubPriorityBits) |
 8002064:	4313      	orrs	r3, r2
         );
}
 8002066:	4618      	mov	r0, r3
 8002068:	3724      	adds	r7, #36	; 0x24
 800206a:	46bd      	mov	sp, r7
 800206c:	bc80      	pop	{r7}
 800206e:	4770      	bx	lr

08002070 <SysTick_Config>:
  \note    When the variable <b>__Vendor_SysTickConfig</b> is set to 1, then the
           function <b>SysTick_Config</b> is not included. In this case, the file <b><i>device</i>.h</b>
           must contain a vendor-specific implementation of this function.
 */
__STATIC_INLINE uint32_t SysTick_Config(uint32_t ticks)
{
 8002070:	b580      	push	{r7, lr}
 8002072:	b082      	sub	sp, #8
 8002074:	af00      	add	r7, sp, #0
 8002076:	6078      	str	r0, [r7, #4]
  if ((ticks - 1UL) > SysTick_LOAD_RELOAD_Msk)
 8002078:	687b      	ldr	r3, [r7, #4]
 800207a:	3b01      	subs	r3, #1
 800207c:	f1b3 7f80 	cmp.w	r3, #16777216	; 0x1000000
 8002080:	d301      	bcc.n	8002086 <SysTick_Config+0x16>
  {
    return (1UL);                                                   /* Reload value impossible */
 8002082:	2301      	movs	r3, #1
 8002084:	e00f      	b.n	80020a6 <SysTick_Config+0x36>
  }

  SysTick->LOAD  = (uint32_t)(ticks - 1UL);                         /* set reload register */
 8002086:	4a0a      	ldr	r2, [pc, #40]	; (80020b0 <SysTick_Config+0x40>)
 8002088:	687b      	ldr	r3, [r7, #4]
 800208a:	3b01      	subs	r3, #1
 800208c:	6053      	str	r3, [r2, #4]
  NVIC_SetPriority (SysTick_IRQn, (1UL << __NVIC_PRIO_BITS) - 1UL); /* set Priority for Systick Interrupt */
 800208e:	210f      	movs	r1, #15
 8002090:	f04f 30ff 	mov.w	r0, #4294967295	; 0xffffffff
 8002094:	f7ff ff90 	bl	8001fb8 <__NVIC_SetPriority>
  SysTick->VAL   = 0UL;                                             /* Load the SysTick Counter Value */
 8002098:	4b05      	ldr	r3, [pc, #20]	; (80020b0 <SysTick_Config+0x40>)
 800209a:	2200      	movs	r2, #0
 800209c:	609a      	str	r2, [r3, #8]
  SysTick->CTRL  = SysTick_CTRL_CLKSOURCE_Msk |
 800209e:	4b04      	ldr	r3, [pc, #16]	; (80020b0 <SysTick_Config+0x40>)
 80020a0:	2207      	movs	r2, #7
 80020a2:	601a      	str	r2, [r3, #0]
                   SysTick_CTRL_TICKINT_Msk   |
                   SysTick_CTRL_ENABLE_Msk;                         /* Enable SysTick IRQ and SysTick Timer */
  return (0UL);                                                     /* Function successful */
 80020a4:	2300      	movs	r3, #0
}
 80020a6:	4618      	mov	r0, r3
 80020a8:	3708      	adds	r7, #8
 80020aa:	46bd      	mov	sp, r7
 80020ac:	bd80      	pop	{r7, pc}
 80020ae:	bf00      	nop
 80020b0:	e000e010 	.word	0xe000e010

080020b4 <HAL_NVIC_SetPriorityGrouping>:
  * @note   When the NVIC_PriorityGroup_0 is selected, IRQ preemption is no more possible. 
  *         The pending IRQ priority will be managed only by the subpriority. 
  * @retval None
  */
void HAL_NVIC_SetPriorityGrouping(uint32_t PriorityGroup)
{
 80020b4:	b580      	push	{r7, lr}
 80020b6:	b082      	sub	sp, #8
 80020b8:	af00      	add	r7, sp, #0
 80020ba:	6078      	str	r0, [r7, #4]
  /* Check the parameters */
  assert_param(IS_NVIC_PRIORITY_GROUP(PriorityGroup));
  
  /* Set the PRIGROUP[10:8] bits according to the PriorityGroup parameter value */
  NVIC_SetPriorityGrouping(PriorityGroup);
 80020bc:	6878      	ldr	r0, [r7, #4]
 80020be:	f7ff ff2d 	bl	8001f1c <__NVIC_SetPriorityGrouping>
}
 80020c2:	bf00      	nop
 80020c4:	3708      	adds	r7, #8
 80020c6:	46bd      	mov	sp, r7
 80020c8:	bd80      	pop	{r7, pc}

080020ca <HAL_NVIC_SetPriority>:
  *         This parameter can be a value between 0 and 15
  *         A lower priority value indicates a higher priority.          
  * @retval None
  */
void HAL_NVIC_SetPriority(IRQn_Type IRQn, uint32_t PreemptPriority, uint32_t SubPriority)
{ 
 80020ca:	b580      	push	{r7, lr}
 80020cc:	b086      	sub	sp, #24
 80020ce:	af00      	add	r7, sp, #0
 80020d0:	4603      	mov	r3, r0
 80020d2:	60b9      	str	r1, [r7, #8]
 80020d4:	607a      	str	r2, [r7, #4]
 80020d6:	73fb      	strb	r3, [r7, #15]
  uint32_t prioritygroup = 0x00U;
 80020d8:	2300      	movs	r3, #0
 80020da:	617b      	str	r3, [r7, #20]
  
  /* Check the parameters */
  assert_param(IS_NVIC_SUB_PRIORITY(SubPriority));
  assert_param(IS_NVIC_PREEMPTION_PRIORITY(PreemptPriority));
  
  prioritygroup = NVIC_GetPriorityGrouping();
 80020dc:	f7ff ff42 	bl	8001f64 <__NVIC_GetPriorityGrouping>
 80020e0:	6178      	str	r0, [r7, #20]
  
  NVIC_SetPriority(IRQn, NVIC_EncodePriority(prioritygroup, PreemptPriority, SubPriority));
 80020e2:	687a      	ldr	r2, [r7, #4]
 80020e4:	68b9      	ldr	r1, [r7, #8]
 80020e6:	6978      	ldr	r0, [r7, #20]
 80020e8:	f7ff ff90 	bl	800200c <NVIC_EncodePriority>
 80020ec:	4602      	mov	r2, r0
 80020ee:	f997 300f 	ldrsb.w	r3, [r7, #15]
 80020f2:	4611      	mov	r1, r2
 80020f4:	4618      	mov	r0, r3
 80020f6:	f7ff ff5f 	bl	8001fb8 <__NVIC_SetPriority>
}
 80020fa:	bf00      	nop
 80020fc:	3718      	adds	r7, #24
 80020fe:	46bd      	mov	sp, r7
 8002100:	bd80      	pop	{r7, pc}

08002102 <HAL_NVIC_EnableIRQ>:
  *         This parameter can be an enumerator of IRQn_Type enumeration
  *         (For the complete STM32 Devices IRQ Channels list, please refer to the appropriate CMSIS device file (stm32f10xxx.h))
  * @retval None
  */
void HAL_NVIC_EnableIRQ(IRQn_Type IRQn)
{
 8002102:	b580      	push	{r7, lr}
 8002104:	b082      	sub	sp, #8
 8002106:	af00      	add	r7, sp, #0
 8002108:	4603      	mov	r3, r0
 800210a:	71fb      	strb	r3, [r7, #7]
  /* Check the parameters */
  assert_param(IS_NVIC_DEVICE_IRQ(IRQn));

  /* Enable interrupt */
  NVIC_EnableIRQ(IRQn);
 800210c:	f997 3007 	ldrsb.w	r3, [r7, #7]
 8002110:	4618      	mov	r0, r3
 8002112:	f7ff ff35 	bl	8001f80 <__NVIC_EnableIRQ>
}
 8002116:	bf00      	nop
 8002118:	3708      	adds	r7, #8
 800211a:	46bd      	mov	sp, r7
 800211c:	bd80      	pop	{r7, pc}

0800211e <HAL_SYSTICK_Config>:
  * @param  TicksNumb: Specifies the ticks Number of ticks between two interrupts.
  * @retval status:  - 0  Function succeeded.
  *                  - 1  Function failed.
  */
uint32_t HAL_SYSTICK_Config(uint32_t TicksNumb)
{
 800211e:	b580      	push	{r7, lr}
 8002120:	b082      	sub	sp, #8
 8002122:	af00      	add	r7, sp, #0
 8002124:	6078      	str	r0, [r7, #4]
   return SysTick_Config(TicksNumb);
 8002126:	6878      	ldr	r0, [r7, #4]
 8002128:	f7ff ffa2 	bl	8002070 <SysTick_Config>
 800212c:	4603      	mov	r3, r0
}
 800212e:	4618      	mov	r0, r3
 8002130:	3708      	adds	r7, #8
 8002132:	46bd      	mov	sp, r7
 8002134:	bd80      	pop	{r7, pc}
	...

08002138 <HAL_GPIO_Init>:
  * @param  GPIO_Init: pointer to a GPIO_InitTypeDef structure that contains
  *         the configuration information for the specified GPIO peripheral.
  * @retval None
  */
void HAL_GPIO_Init(GPIO_TypeDef  *GPIOx, GPIO_InitTypeDef *GPIO_Init)
{
 8002138:	b480      	push	{r7}
 800213a:	b08b      	sub	sp, #44	; 0x2c
 800213c:	af00      	add	r7, sp, #0
 800213e:	6078      	str	r0, [r7, #4]
 8002140:	6039      	str	r1, [r7, #0]
  uint32_t position = 0x00u;
 8002142:	2300      	movs	r3, #0
 8002144:	627b      	str	r3, [r7, #36]	; 0x24
  uint32_t ioposition;
  uint32_t iocurrent;
  uint32_t temp;
  uint32_t config = 0x00u;
 8002146:	2300      	movs	r3, #0
 8002148:	623b      	str	r3, [r7, #32]
  assert_param(IS_GPIO_ALL_INSTANCE(GPIOx));
  assert_param(IS_GPIO_PIN(GPIO_Init->Pin));
  assert_param(IS_GPIO_MODE(GPIO_Init->Mode));

  /* Configure the port pins */
  while (((GPIO_Init->Pin) >> position) != 0x00u)
 800214a:	e127      	b.n	800239c <HAL_GPIO_Init+0x264>
  {
    /* Get the IO position */
    ioposition = (0x01uL << position);
 800214c:	2201      	movs	r2, #1
 800214e:	6a7b      	ldr	r3, [r7, #36]	; 0x24
 8002150:	fa02 f303 	lsl.w	r3, r2, r3
 8002154:	61fb      	str	r3, [r7, #28]

    /* Get the current IO position */
    iocurrent = (uint32_t)(GPIO_Init->Pin) & ioposition;
 8002156:	683b      	ldr	r3, [r7, #0]
 8002158:	681b      	ldr	r3, [r3, #0]
 800215a:	69fa      	ldr	r2, [r7, #28]
 800215c:	4013      	ands	r3, r2
 800215e:	61bb      	str	r3, [r7, #24]

    if (iocurrent == ioposition)
 8002160:	69ba      	ldr	r2, [r7, #24]
 8002162:	69fb      	ldr	r3, [r7, #28]
 8002164:	429a      	cmp	r2, r3
 8002166:	f040 8116 	bne.w	8002396 <HAL_GPIO_Init+0x25e>
    {
      /* Check the Alternate function parameters */
      assert_param(IS_GPIO_AF_INSTANCE(GPIOx));

      /* Based on the required mode, filling config variable with MODEy[1:0] and CNFy[3:2] corresponding bits */
      switch (GPIO_Init->Mode)
 800216a:	683b      	ldr	r3, [r7, #0]
 800216c:	685b      	ldr	r3, [r3, #4]
 800216e:	2b12      	cmp	r3, #18
 8002170:	d034      	beq.n	80021dc <HAL_GPIO_Init+0xa4>
 8002172:	2b12      	cmp	r3, #18
 8002174:	d80d      	bhi.n	8002192 <HAL_GPIO_Init+0x5a>
 8002176:	2b02      	cmp	r3, #2
 8002178:	d02b      	beq.n	80021d2 <HAL_GPIO_Init+0x9a>
 800217a:	2b02      	cmp	r3, #2
 800217c:	d804      	bhi.n	8002188 <HAL_GPIO_Init+0x50>
 800217e:	2b00      	cmp	r3, #0
 8002180:	d031      	beq.n	80021e6 <HAL_GPIO_Init+0xae>
 8002182:	2b01      	cmp	r3, #1
 8002184:	d01c      	beq.n	80021c0 <HAL_GPIO_Init+0x88>
          config = GPIO_CR_MODE_INPUT + GPIO_CR_CNF_ANALOG;
          break;

        /* Parameters are checked with assert_param */
        default:
          break;
 8002186:	e048      	b.n	800221a <HAL_GPIO_Init+0xe2>
      switch (GPIO_Init->Mode)
 8002188:	2b03      	cmp	r3, #3
 800218a:	d043      	beq.n	8002214 <HAL_GPIO_Init+0xdc>
 800218c:	2b11      	cmp	r3, #17
 800218e:	d01b      	beq.n	80021c8 <HAL_GPIO_Init+0x90>
          break;
 8002190:	e043      	b.n	800221a <HAL_GPIO_Init+0xe2>
      switch (GPIO_Init->Mode)
 8002192:	4a89      	ldr	r2, [pc, #548]	; (80023b8 <HAL_GPIO_Init+0x280>)
 8002194:	4293      	cmp	r3, r2
 8002196:	d026      	beq.n	80021e6 <HAL_GPIO_Init+0xae>
 8002198:	4a87      	ldr	r2, [pc, #540]	; (80023b8 <HAL_GPIO_Init+0x280>)
 800219a:	4293      	cmp	r3, r2
 800219c:	d806      	bhi.n	80021ac <HAL_GPIO_Init+0x74>
 800219e:	4a87      	ldr	r2, [pc, #540]	; (80023bc <HAL_GPIO_Init+0x284>)
 80021a0:	4293      	cmp	r3, r2
 80021a2:	d020      	beq.n	80021e6 <HAL_GPIO_Init+0xae>
 80021a4:	4a86      	ldr	r2, [pc, #536]	; (80023c0 <HAL_GPIO_Init+0x288>)
 80021a6:	4293      	cmp	r3, r2
 80021a8:	d01d      	beq.n	80021e6 <HAL_GPIO_Init+0xae>
          break;
 80021aa:	e036      	b.n	800221a <HAL_GPIO_Init+0xe2>
      switch (GPIO_Init->Mode)
 80021ac:	4a85      	ldr	r2, [pc, #532]	; (80023c4 <HAL_GPIO_Init+0x28c>)
 80021ae:	4293      	cmp	r3, r2
 80021b0:	d019      	beq.n	80021e6 <HAL_GPIO_Init+0xae>
 80021b2:	4a85      	ldr	r2, [pc, #532]	; (80023c8 <HAL_GPIO_Init+0x290>)
 80021b4:	4293      	cmp	r3, r2
 80021b6:	d016      	beq.n	80021e6 <HAL_GPIO_Init+0xae>
 80021b8:	4a84      	ldr	r2, [pc, #528]	; (80023cc <HAL_GPIO_Init+0x294>)
 80021ba:	4293      	cmp	r3, r2
 80021bc:	d013      	beq.n	80021e6 <HAL_GPIO_Init+0xae>
          break;
 80021be:	e02c      	b.n	800221a <HAL_GPIO_Init+0xe2>
          config = GPIO_Init->Speed + GPIO_CR_CNF_GP_OUTPUT_PP;
 80021c0:	683b      	ldr	r3, [r7, #0]
 80021c2:	68db      	ldr	r3, [r3, #12]
 80021c4:	623b      	str	r3, [r7, #32]
          break;
 80021c6:	e028      	b.n	800221a <HAL_GPIO_Init+0xe2>
          config = GPIO_Init->Speed + GPIO_CR_CNF_GP_OUTPUT_OD;
 80021c8:	683b      	ldr	r3, [r7, #0]
 80021ca:	68db      	ldr	r3, [r3, #12]
 80021cc:	3304      	adds	r3, #4
 80021ce:	623b      	str	r3, [r7, #32]
          break;
 80021d0:	e023      	b.n	800221a <HAL_GPIO_Init+0xe2>
          config = GPIO_Init->Speed + GPIO_CR_CNF_AF_OUTPUT_PP;
 80021d2:	683b      	ldr	r3, [r7, #0]
 80021d4:	68db      	ldr	r3, [r3, #12]
 80021d6:	3308      	adds	r3, #8
 80021d8:	623b      	str	r3, [r7, #32]
          break;
 80021da:	e01e      	b.n	800221a <HAL_GPIO_Init+0xe2>
          config = GPIO_Init->Speed + GPIO_CR_CNF_AF_OUTPUT_OD;
 80021dc:	683b      	ldr	r3, [r7, #0]
 80021de:	68db      	ldr	r3, [r3, #12]
 80021e0:	330c      	adds	r3, #12
 80021e2:	623b      	str	r3, [r7, #32]
          break;
 80021e4:	e019      	b.n	800221a <HAL_GPIO_Init+0xe2>
          if (GPIO_Init->Pull == GPIO_NOPULL)
 80021e6:	683b      	ldr	r3, [r7, #0]
 80021e8:	689b      	ldr	r3, [r3, #8]
 80021ea:	2b00      	cmp	r3, #0
 80021ec:	d102      	bne.n	80021f4 <HAL_GPIO_Init+0xbc>
            config = GPIO_CR_MODE_INPUT + GPIO_CR_CNF_INPUT_FLOATING;
 80021ee:	2304      	movs	r3, #4
 80021f0:	623b      	str	r3, [r7, #32]
          break;
 80021f2:	e012      	b.n	800221a <HAL_GPIO_Init+0xe2>
          else if (GPIO_Init->Pull == GPIO_PULLUP)
 80021f4:	683b      	ldr	r3, [r7, #0]
 80021f6:	689b      	ldr	r3, [r3, #8]
 80021f8:	2b01      	cmp	r3, #1
 80021fa:	d105      	bne.n	8002208 <HAL_GPIO_Init+0xd0>
            config = GPIO_CR_MODE_INPUT + GPIO_CR_CNF_INPUT_PU_PD;
 80021fc:	2308      	movs	r3, #8
 80021fe:	623b      	str	r3, [r7, #32]
            GPIOx->BSRR = ioposition;
 8002200:	687b      	ldr	r3, [r7, #4]
 8002202:	69fa      	ldr	r2, [r7, #28]
 8002204:	611a      	str	r2, [r3, #16]
          break;
 8002206:	e008      	b.n	800221a <HAL_GPIO_Init+0xe2>
            config = GPIO_CR_MODE_INPUT + GPIO_CR_CNF_INPUT_PU_PD;
 8002208:	2308      	movs	r3, #8
 800220a:	623b      	str	r3, [r7, #32]
            GPIOx->BRR = ioposition;
 800220c:	687b      	ldr	r3, [r7, #4]
 800220e:	69fa      	ldr	r2, [r7, #28]
 8002210:	615a      	str	r2, [r3, #20]
          break;
 8002212:	e002      	b.n	800221a <HAL_GPIO_Init+0xe2>
          config = GPIO_CR_MODE_INPUT + GPIO_CR_CNF_ANALOG;
 8002214:	2300      	movs	r3, #0
 8002216:	623b      	str	r3, [r7, #32]
          break;
 8002218:	bf00      	nop
      }

      /* Check if the current bit belongs to first half or last half of the pin count number
       in order to address CRH or CRL register*/
      configregister = (iocurrent < GPIO_PIN_8) ? &GPIOx->CRL     : &GPIOx->CRH;
 800221a:	69bb      	ldr	r3, [r7, #24]
 800221c:	2bff      	cmp	r3, #255	; 0xff
 800221e:	d801      	bhi.n	8002224 <HAL_GPIO_Init+0xec>
 8002220:	687b      	ldr	r3, [r7, #4]
 8002222:	e001      	b.n	8002228 <HAL_GPIO_Init+0xf0>
 8002224:	687b      	ldr	r3, [r7, #4]
 8002226:	3304      	adds	r3, #4
 8002228:	617b      	str	r3, [r7, #20]
      registeroffset = (iocurrent < GPIO_PIN_8) ? (position << 2u) : ((position - 8u) << 2u);
 800222a:	69bb      	ldr	r3, [r7, #24]
 800222c:	2bff      	cmp	r3, #255	; 0xff
 800222e:	d802      	bhi.n	8002236 <HAL_GPIO_Init+0xfe>
 8002230:	6a7b      	ldr	r3, [r7, #36]	; 0x24
 8002232:	009b      	lsls	r3, r3, #2
 8002234:	e002      	b.n	800223c <HAL_GPIO_Init+0x104>
 8002236:	6a7b      	ldr	r3, [r7, #36]	; 0x24
 8002238:	3b08      	subs	r3, #8
 800223a:	009b      	lsls	r3, r3, #2
 800223c:	613b      	str	r3, [r7, #16]

      /* Apply the new configuration of the pin to the register */
      MODIFY_REG((*configregister), ((GPIO_CRL_MODE0 | GPIO_CRL_CNF0) << registeroffset), (config << registeroffset));
 800223e:	697b      	ldr	r3, [r7, #20]
 8002240:	681a      	ldr	r2, [r3, #0]
 8002242:	210f      	movs	r1, #15
 8002244:	693b      	ldr	r3, [r7, #16]
 8002246:	fa01 f303 	lsl.w	r3, r1, r3
 800224a:	43db      	mvns	r3, r3
 800224c:	401a      	ands	r2, r3
 800224e:	6a39      	ldr	r1, [r7, #32]
 8002250:	693b      	ldr	r3, [r7, #16]
 8002252:	fa01 f303 	lsl.w	r3, r1, r3
 8002256:	431a      	orrs	r2, r3
 8002258:	697b      	ldr	r3, [r7, #20]
 800225a:	601a      	str	r2, [r3, #0]

      /*--------------------- EXTI Mode Configuration ------------------------*/
      /* Configure the External Interrupt or event for the current IO */
      if ((GPIO_Init->Mode & EXTI_MODE) == EXTI_MODE)
 800225c:	683b      	ldr	r3, [r7, #0]
 800225e:	685b      	ldr	r3, [r3, #4]
 8002260:	f003 5380 	and.w	r3, r3, #268435456	; 0x10000000
 8002264:	2b00      	cmp	r3, #0
 8002266:	f000 8096 	beq.w	8002396 <HAL_GPIO_Init+0x25e>
      {
        /* Enable AFIO Clock */
        __HAL_RCC_AFIO_CLK_ENABLE();
 800226a:	4b59      	ldr	r3, [pc, #356]	; (80023d0 <HAL_GPIO_Init+0x298>)
 800226c:	699b      	ldr	r3, [r3, #24]
 800226e:	4a58      	ldr	r2, [pc, #352]	; (80023d0 <HAL_GPIO_Init+0x298>)
 8002270:	f043 0301 	orr.w	r3, r3, #1
 8002274:	6193      	str	r3, [r2, #24]
 8002276:	4b56      	ldr	r3, [pc, #344]	; (80023d0 <HAL_GPIO_Init+0x298>)
 8002278:	699b      	ldr	r3, [r3, #24]
 800227a:	f003 0301 	and.w	r3, r3, #1
 800227e:	60bb      	str	r3, [r7, #8]
 8002280:	68bb      	ldr	r3, [r7, #8]
        temp = AFIO->EXTICR[position >> 2u];
 8002282:	4a54      	ldr	r2, [pc, #336]	; (80023d4 <HAL_GPIO_Init+0x29c>)
 8002284:	6a7b      	ldr	r3, [r7, #36]	; 0x24
 8002286:	089b      	lsrs	r3, r3, #2
 8002288:	3302      	adds	r3, #2
 800228a:	f852 3023 	ldr.w	r3, [r2, r3, lsl #2]
 800228e:	60fb      	str	r3, [r7, #12]
        CLEAR_BIT(temp, (0x0Fu) << (4u * (position & 0x03u)));
 8002290:	6a7b      	ldr	r3, [r7, #36]	; 0x24
 8002292:	f003 0303 	and.w	r3, r3, #3
 8002296:	009b      	lsls	r3, r3, #2
 8002298:	220f      	movs	r2, #15
 800229a:	fa02 f303 	lsl.w	r3, r2, r3
 800229e:	43db      	mvns	r3, r3
 80022a0:	68fa      	ldr	r2, [r7, #12]
 80022a2:	4013      	ands	r3, r2
 80022a4:	60fb      	str	r3, [r7, #12]
        SET_BIT(temp, (GPIO_GET_INDEX(GPIOx)) << (4u * (position & 0x03u)));
 80022a6:	687b      	ldr	r3, [r7, #4]
 80022a8:	4a4b      	ldr	r2, [pc, #300]	; (80023d8 <HAL_GPIO_Init+0x2a0>)
 80022aa:	4293      	cmp	r3, r2
 80022ac:	d013      	beq.n	80022d6 <HAL_GPIO_Init+0x19e>
 80022ae:	687b      	ldr	r3, [r7, #4]
 80022b0:	4a4a      	ldr	r2, [pc, #296]	; (80023dc <HAL_GPIO_Init+0x2a4>)
 80022b2:	4293      	cmp	r3, r2
 80022b4:	d00d      	beq.n	80022d2 <HAL_GPIO_Init+0x19a>
 80022b6:	687b      	ldr	r3, [r7, #4]
 80022b8:	4a49      	ldr	r2, [pc, #292]	; (80023e0 <HAL_GPIO_Init+0x2a8>)
 80022ba:	4293      	cmp	r3, r2
 80022bc:	d007      	beq.n	80022ce <HAL_GPIO_Init+0x196>
 80022be:	687b      	ldr	r3, [r7, #4]
 80022c0:	4a48      	ldr	r2, [pc, #288]	; (80023e4 <HAL_GPIO_Init+0x2ac>)
 80022c2:	4293      	cmp	r3, r2
 80022c4:	d101      	bne.n	80022ca <HAL_GPIO_Init+0x192>
 80022c6:	2303      	movs	r3, #3
 80022c8:	e006      	b.n	80022d8 <HAL_GPIO_Init+0x1a0>
 80022ca:	2304      	movs	r3, #4
 80022cc:	e004      	b.n	80022d8 <HAL_GPIO_Init+0x1a0>
 80022ce:	2302      	movs	r3, #2
 80022d0:	e002      	b.n	80022d8 <HAL_GPIO_Init+0x1a0>
 80022d2:	2301      	movs	r3, #1
 80022d4:	e000      	b.n	80022d8 <HAL_GPIO_Init+0x1a0>
 80022d6:	2300      	movs	r3, #0
 80022d8:	6a7a      	ldr	r2, [r7, #36]	; 0x24
 80022da:	f002 0203 	and.w	r2, r2, #3
 80022de:	0092      	lsls	r2, r2, #2
 80022e0:	4093      	lsls	r3, r2
 80022e2:	68fa      	ldr	r2, [r7, #12]
 80022e4:	4313      	orrs	r3, r2
 80022e6:	60fb      	str	r3, [r7, #12]
        AFIO->EXTICR[position >> 2u] = temp;
 80022e8:	493a      	ldr	r1, [pc, #232]	; (80023d4 <HAL_GPIO_Init+0x29c>)
 80022ea:	6a7b      	ldr	r3, [r7, #36]	; 0x24
 80022ec:	089b      	lsrs	r3, r3, #2
 80022ee:	3302      	adds	r3, #2
 80022f0:	68fa      	ldr	r2, [r7, #12]
 80022f2:	f841 2023 	str.w	r2, [r1, r3, lsl #2]


        /* Configure the interrupt mask */
        if ((GPIO_Init->Mode & GPIO_MODE_IT) == GPIO_MODE_IT)
 80022f6:	683b      	ldr	r3, [r7, #0]
 80022f8:	685b      	ldr	r3, [r3, #4]
 80022fa:	f403 3380 	and.w	r3, r3, #65536	; 0x10000
 80022fe:	2b00      	cmp	r3, #0
 8002300:	d006      	beq.n	8002310 <HAL_GPIO_Init+0x1d8>
        {
          SET_BIT(EXTI->IMR, iocurrent);
 8002302:	4b39      	ldr	r3, [pc, #228]	; (80023e8 <HAL_GPIO_Init+0x2b0>)
 8002304:	681a      	ldr	r2, [r3, #0]
 8002306:	4938      	ldr	r1, [pc, #224]	; (80023e8 <HAL_GPIO_Init+0x2b0>)
 8002308:	69bb      	ldr	r3, [r7, #24]
 800230a:	4313      	orrs	r3, r2
 800230c:	600b      	str	r3, [r1, #0]
 800230e:	e006      	b.n	800231e <HAL_GPIO_Init+0x1e6>
        }
        else
        {
          CLEAR_BIT(EXTI->IMR, iocurrent);
 8002310:	4b35      	ldr	r3, [pc, #212]	; (80023e8 <HAL_GPIO_Init+0x2b0>)
 8002312:	681a      	ldr	r2, [r3, #0]
 8002314:	69bb      	ldr	r3, [r7, #24]
 8002316:	43db      	mvns	r3, r3
 8002318:	4933      	ldr	r1, [pc, #204]	; (80023e8 <HAL_GPIO_Init+0x2b0>)
 800231a:	4013      	ands	r3, r2
 800231c:	600b      	str	r3, [r1, #0]
        }

        /* Configure the event mask */
        if ((GPIO_Init->Mode & GPIO_MODE_EVT) == GPIO_MODE_EVT)
 800231e:	683b      	ldr	r3, [r7, #0]
 8002320:	685b      	ldr	r3, [r3, #4]
 8002322:	f403 3300 	and.w	r3, r3, #131072	; 0x20000
 8002326:	2b00      	cmp	r3, #0
 8002328:	d006      	beq.n	8002338 <HAL_GPIO_Init+0x200>
        {
          SET_BIT(EXTI->EMR, iocurrent);
 800232a:	4b2f      	ldr	r3, [pc, #188]	; (80023e8 <HAL_GPIO_Init+0x2b0>)
 800232c:	685a      	ldr	r2, [r3, #4]
 800232e:	492e      	ldr	r1, [pc, #184]	; (80023e8 <HAL_GPIO_Init+0x2b0>)
 8002330:	69bb      	ldr	r3, [r7, #24]
 8002332:	4313      	orrs	r3, r2
 8002334:	604b      	str	r3, [r1, #4]
 8002336:	e006      	b.n	8002346 <HAL_GPIO_Init+0x20e>
        }
        else
        {
          CLEAR_BIT(EXTI->EMR, iocurrent);
 8002338:	4b2b      	ldr	r3, [pc, #172]	; (80023e8 <HAL_GPIO_Init+0x2b0>)
 800233a:	685a      	ldr	r2, [r3, #4]
 800233c:	69bb      	ldr	r3, [r7, #24]
 800233e:	43db      	mvns	r3, r3
 8002340:	4929      	ldr	r1, [pc, #164]	; (80023e8 <HAL_GPIO_Init+0x2b0>)
 8002342:	4013      	ands	r3, r2
 8002344:	604b      	str	r3, [r1, #4]
        }

        /* Enable or disable the rising trigger */
        if ((GPIO_Init->Mode & RISING_EDGE) == RISING_EDGE)
 8002346:	683b      	ldr	r3, [r7, #0]
 8002348:	685b      	ldr	r3, [r3, #4]
 800234a:	f403 1380 	and.w	r3, r3, #1048576	; 0x100000
 800234e:	2b00      	cmp	r3, #0
 8002350:	d006      	beq.n	8002360 <HAL_GPIO_Init+0x228>
        {
          SET_BIT(EXTI->RTSR, iocurrent);
 8002352:	4b25      	ldr	r3, [pc, #148]	; (80023e8 <HAL_GPIO_Init+0x2b0>)
 8002354:	689a      	ldr	r2, [r3, #8]
 8002356:	4924      	ldr	r1, [pc, #144]	; (80023e8 <HAL_GPIO_Init+0x2b0>)
 8002358:	69bb      	ldr	r3, [r7, #24]
 800235a:	4313      	orrs	r3, r2
 800235c:	608b      	str	r3, [r1, #8]
 800235e:	e006      	b.n	800236e <HAL_GPIO_Init+0x236>
        }
        else
        {
          CLEAR_BIT(EXTI->RTSR, iocurrent);
 8002360:	4b21      	ldr	r3, [pc, #132]	; (80023e8 <HAL_GPIO_Init+0x2b0>)
 8002362:	689a      	ldr	r2, [r3, #8]
 8002364:	69bb      	ldr	r3, [r7, #24]
 8002366:	43db      	mvns	r3, r3
 8002368:	491f      	ldr	r1, [pc, #124]	; (80023e8 <HAL_GPIO_Init+0x2b0>)
 800236a:	4013      	ands	r3, r2
 800236c:	608b      	str	r3, [r1, #8]
        }

        /* Enable or disable the falling trigger */
        if ((GPIO_Init->Mode & FALLING_EDGE) == FALLING_EDGE)
 800236e:	683b      	ldr	r3, [r7, #0]
 8002370:	685b      	ldr	r3, [r3, #4]
 8002372:	f403 1300 	and.w	r3, r3, #2097152	; 0x200000
 8002376:	2b00      	cmp	r3, #0
 8002378:	d006      	beq.n	8002388 <HAL_GPIO_Init+0x250>
        {
          SET_BIT(EXTI->FTSR, iocurrent);
 800237a:	4b1b      	ldr	r3, [pc, #108]	; (80023e8 <HAL_GPIO_Init+0x2b0>)
 800237c:	68da      	ldr	r2, [r3, #12]
 800237e:	491a      	ldr	r1, [pc, #104]	; (80023e8 <HAL_GPIO_Init+0x2b0>)
 8002380:	69bb      	ldr	r3, [r7, #24]
 8002382:	4313      	orrs	r3, r2
 8002384:	60cb      	str	r3, [r1, #12]
 8002386:	e006      	b.n	8002396 <HAL_GPIO_Init+0x25e>
        }
        else
        {
          CLEAR_BIT(EXTI->FTSR, iocurrent);
 8002388:	4b17      	ldr	r3, [pc, #92]	; (80023e8 <HAL_GPIO_Init+0x2b0>)
 800238a:	68da      	ldr	r2, [r3, #12]
 800238c:	69bb      	ldr	r3, [r7, #24]
 800238e:	43db      	mvns	r3, r3
 8002390:	4915      	ldr	r1, [pc, #84]	; (80023e8 <HAL_GPIO_Init+0x2b0>)
 8002392:	4013      	ands	r3, r2
 8002394:	60cb      	str	r3, [r1, #12]
        }
      }
    }

	position++;
 8002396:	6a7b      	ldr	r3, [r7, #36]	; 0x24
 8002398:	3301      	adds	r3, #1
 800239a:	627b      	str	r3, [r7, #36]	; 0x24
  while (((GPIO_Init->Pin) >> position) != 0x00u)
 800239c:	683b      	ldr	r3, [r7, #0]
 800239e:	681a      	ldr	r2, [r3, #0]
 80023a0:	6a7b      	ldr	r3, [r7, #36]	; 0x24
 80023a2:	fa22 f303 	lsr.w	r3, r2, r3
 80023a6:	2b00      	cmp	r3, #0
 80023a8:	f47f aed0 	bne.w	800214c <HAL_GPIO_Init+0x14>
  }
}
 80023ac:	bf00      	nop
 80023ae:	372c      	adds	r7, #44	; 0x2c
 80023b0:	46bd      	mov	sp, r7
 80023b2:	bc80      	pop	{r7}
 80023b4:	4770      	bx	lr
 80023b6:	bf00      	nop
 80023b8:	10210000 	.word	0x10210000
 80023bc:	10110000 	.word	0x10110000
 80023c0:	10120000 	.word	0x10120000
 80023c4:	10310000 	.word	0x10310000
 80023c8:	10320000 	.word	0x10320000
 80023cc:	10220000 	.word	0x10220000
 80023d0:	40021000 	.word	0x40021000
 80023d4:	40010000 	.word	0x40010000
 80023d8:	40010800 	.word	0x40010800
 80023dc:	40010c00 	.word	0x40010c00
 80023e0:	40011000 	.word	0x40011000
 80023e4:	40011400 	.word	0x40011400
 80023e8:	40010400 	.word	0x40010400

080023ec <HAL_GPIO_ReadPin>:
  * @param  GPIO_Pin: specifies the port bit to read.
  *         This parameter can be GPIO_PIN_x where x can be (0..15).
  * @retval The input port pin value.
  */
GPIO_PinState HAL_GPIO_ReadPin(GPIO_TypeDef *GPIOx, uint16_t GPIO_Pin)
{
 80023ec:	b480      	push	{r7}
 80023ee:	b085      	sub	sp, #20
 80023f0:	af00      	add	r7, sp, #0
 80023f2:	6078      	str	r0, [r7, #4]
 80023f4:	460b      	mov	r3, r1
 80023f6:	807b      	strh	r3, [r7, #2]
  GPIO_PinState bitstatus;

  /* Check the parameters */
  assert_param(IS_GPIO_PIN(GPIO_Pin));

  if ((GPIOx->IDR & GPIO_Pin) != (uint32_t)GPIO_PIN_RESET)
 80023f8:	687b      	ldr	r3, [r7, #4]
 80023fa:	689a      	ldr	r2, [r3, #8]
 80023fc:	887b      	ldrh	r3, [r7, #2]
 80023fe:	4013      	ands	r3, r2
 8002400:	2b00      	cmp	r3, #0
 8002402:	d002      	beq.n	800240a <HAL_GPIO_ReadPin+0x1e>
  {
    bitstatus = GPIO_PIN_SET;
 8002404:	2301      	movs	r3, #1
 8002406:	73fb      	strb	r3, [r7, #15]
 8002408:	e001      	b.n	800240e <HAL_GPIO_ReadPin+0x22>
  }
  else
  {
    bitstatus = GPIO_PIN_RESET;
 800240a:	2300      	movs	r3, #0
 800240c:	73fb      	strb	r3, [r7, #15]
  }
  return bitstatus;
 800240e:	7bfb      	ldrb	r3, [r7, #15]
}
 8002410:	4618      	mov	r0, r3
 8002412:	3714      	adds	r7, #20
 8002414:	46bd      	mov	sp, r7
 8002416:	bc80      	pop	{r7}
 8002418:	4770      	bx	lr

0800241a <HAL_GPIO_WritePin>:
  *            @arg GPIO_PIN_RESET: to clear the port pin
  *            @arg GPIO_PIN_SET: to set the port pin
  * @retval None
  */
void HAL_GPIO_WritePin(GPIO_TypeDef *GPIOx, uint16_t GPIO_Pin, GPIO_PinState PinState)
{
 800241a:	b480      	push	{r7}
 800241c:	b083      	sub	sp, #12
 800241e:	af00      	add	r7, sp, #0
 8002420:	6078      	str	r0, [r7, #4]
 8002422:	460b      	mov	r3, r1
 8002424:	807b      	strh	r3, [r7, #2]
 8002426:	4613      	mov	r3, r2
 8002428:	707b      	strb	r3, [r7, #1]
  /* Check the parameters */
  assert_param(IS_GPIO_PIN(GPIO_Pin));
  assert_param(IS_GPIO_PIN_ACTION(PinState));

  if (PinState != GPIO_PIN_RESET)
 800242a:	787b      	ldrb	r3, [r7, #1]
 800242c:	2b00      	cmp	r3, #0
 800242e:	d003      	beq.n	8002438 <HAL_GPIO_WritePin+0x1e>
  {
    GPIOx->BSRR = GPIO_Pin;
 8002430:	887a      	ldrh	r2, [r7, #2]
 8002432:	687b      	ldr	r3, [r7, #4]
 8002434:	611a      	str	r2, [r3, #16]
  }
  else
  {
    GPIOx->BSRR = (uint32_t)GPIO_Pin << 16u;
  }
}
 8002436:	e003      	b.n	8002440 <HAL_GPIO_WritePin+0x26>
    GPIOx->BSRR = (uint32_t)GPIO_Pin << 16u;
 8002438:	887b      	ldrh	r3, [r7, #2]
 800243a:	041a      	lsls	r2, r3, #16
 800243c:	687b      	ldr	r3, [r7, #4]
 800243e:	611a      	str	r2, [r3, #16]
}
 8002440:	bf00      	nop
 8002442:	370c      	adds	r7, #12
 8002444:	46bd      	mov	sp, r7
 8002446:	bc80      	pop	{r7}
 8002448:	4770      	bx	lr
	...

0800244c <HAL_PWR_EnableBkUpAccess>:
  * @note   If the HSE divided by 128 is used as the RTC clock, the
  *         Backup Domain Access should be kept enabled.
  * @retval None
  */
void HAL_PWR_EnableBkUpAccess(void)
{
 800244c:	b480      	push	{r7}
 800244e:	af00      	add	r7, sp, #0
  /* Enable access to RTC and backup registers */
  *(__IO uint32_t *) CR_DBP_BB = (uint32_t)ENABLE;
 8002450:	4b03      	ldr	r3, [pc, #12]	; (8002460 <HAL_PWR_EnableBkUpAccess+0x14>)
 8002452:	2201      	movs	r2, #1
 8002454:	601a      	str	r2, [r3, #0]
}
 8002456:	bf00      	nop
 8002458:	46bd      	mov	sp, r7
 800245a:	bc80      	pop	{r7}
 800245c:	4770      	bx	lr
 800245e:	bf00      	nop
 8002460:	420e0020 	.word	0x420e0020

08002464 <HAL_RCC_OscConfig>:
  *         supported by this macro. User should request a transition to HSE Off
  *         first and then HSE On or HSE Bypass.
  * @retval HAL status
  */
HAL_StatusTypeDef HAL_RCC_OscConfig(RCC_OscInitTypeDef  *RCC_OscInitStruct)
{
 8002464:	b580      	push	{r7, lr}
 8002466:	b086      	sub	sp, #24
 8002468:	af00      	add	r7, sp, #0
 800246a:	6078      	str	r0, [r7, #4]
  uint32_t tickstart;
  uint32_t pll_config;

  /* Check Null pointer */
  if (RCC_OscInitStruct == NULL)
 800246c:	687b      	ldr	r3, [r7, #4]
 800246e:	2b00      	cmp	r3, #0
 8002470:	d101      	bne.n	8002476 <HAL_RCC_OscConfig+0x12>
  {
    return HAL_ERROR;
 8002472:	2301      	movs	r3, #1
 8002474:	e26c      	b.n	8002950 <HAL_RCC_OscConfig+0x4ec>

  /* Check the parameters */
  assert_param(IS_RCC_OSCILLATORTYPE(RCC_OscInitStruct->OscillatorType));

  /*------------------------------- HSE Configuration ------------------------*/
  if (((RCC_OscInitStruct->OscillatorType) & RCC_OSCILLATORTYPE_HSE) == RCC_OSCILLATORTYPE_HSE)
 8002476:	687b      	ldr	r3, [r7, #4]
 8002478:	681b      	ldr	r3, [r3, #0]
 800247a:	f003 0301 	and.w	r3, r3, #1
 800247e:	2b00      	cmp	r3, #0
 8002480:	f000 8087 	beq.w	8002592 <HAL_RCC_OscConfig+0x12e>
  {
    /* Check the parameters */
    assert_param(IS_RCC_HSE(RCC_OscInitStruct->HSEState));

    /* When the HSE is used as system clock or clock source for PLL in these cases it is not allowed to be disabled */
    if ((__HAL_RCC_GET_SYSCLK_SOURCE() == RCC_SYSCLKSOURCE_STATUS_HSE)
 8002484:	4b92      	ldr	r3, [pc, #584]	; (80026d0 <HAL_RCC_OscConfig+0x26c>)
 8002486:	685b      	ldr	r3, [r3, #4]
 8002488:	f003 030c 	and.w	r3, r3, #12
 800248c:	2b04      	cmp	r3, #4
 800248e:	d00c      	beq.n	80024aa <HAL_RCC_OscConfig+0x46>
        || ((__HAL_RCC_GET_SYSCLK_SOURCE() == RCC_SYSCLKSOURCE_STATUS_PLLCLK) && (__HAL_RCC_GET_PLL_OSCSOURCE() == RCC_PLLSOURCE_HSE)))
 8002490:	4b8f      	ldr	r3, [pc, #572]	; (80026d0 <HAL_RCC_OscConfig+0x26c>)
 8002492:	685b      	ldr	r3, [r3, #4]
 8002494:	f003 030c 	and.w	r3, r3, #12
 8002498:	2b08      	cmp	r3, #8
 800249a:	d112      	bne.n	80024c2 <HAL_RCC_OscConfig+0x5e>
 800249c:	4b8c      	ldr	r3, [pc, #560]	; (80026d0 <HAL_RCC_OscConfig+0x26c>)
 800249e:	685b      	ldr	r3, [r3, #4]
 80024a0:	f403 3380 	and.w	r3, r3, #65536	; 0x10000
 80024a4:	f5b3 3f80 	cmp.w	r3, #65536	; 0x10000
 80024a8:	d10b      	bne.n	80024c2 <HAL_RCC_OscConfig+0x5e>
    {
      if ((__HAL_RCC_GET_FLAG(RCC_FLAG_HSERDY) != RESET) && (RCC_OscInitStruct->HSEState == RCC_HSE_OFF))
 80024aa:	4b89      	ldr	r3, [pc, #548]	; (80026d0 <HAL_RCC_OscConfig+0x26c>)
 80024ac:	681b      	ldr	r3, [r3, #0]
 80024ae:	f403 3300 	and.w	r3, r3, #131072	; 0x20000
 80024b2:	2b00      	cmp	r3, #0
 80024b4:	d06c      	beq.n	8002590 <HAL_RCC_OscConfig+0x12c>
 80024b6:	687b      	ldr	r3, [r7, #4]
 80024b8:	685b      	ldr	r3, [r3, #4]
 80024ba:	2b00      	cmp	r3, #0
 80024bc:	d168      	bne.n	8002590 <HAL_RCC_OscConfig+0x12c>
      {
        return HAL_ERROR;
 80024be:	2301      	movs	r3, #1
 80024c0:	e246      	b.n	8002950 <HAL_RCC_OscConfig+0x4ec>
      }
    }
    else
    {
      /* Set the new HSE configuration ---------------------------------------*/
      __HAL_RCC_HSE_CONFIG(RCC_OscInitStruct->HSEState);
 80024c2:	687b      	ldr	r3, [r7, #4]
 80024c4:	685b      	ldr	r3, [r3, #4]
 80024c6:	f5b3 3f80 	cmp.w	r3, #65536	; 0x10000
 80024ca:	d106      	bne.n	80024da <HAL_RCC_OscConfig+0x76>
 80024cc:	4b80      	ldr	r3, [pc, #512]	; (80026d0 <HAL_RCC_OscConfig+0x26c>)
 80024ce:	681b      	ldr	r3, [r3, #0]
 80024d0:	4a7f      	ldr	r2, [pc, #508]	; (80026d0 <HAL_RCC_OscConfig+0x26c>)
 80024d2:	f443 3380 	orr.w	r3, r3, #65536	; 0x10000
 80024d6:	6013      	str	r3, [r2, #0]
 80024d8:	e02e      	b.n	8002538 <HAL_RCC_OscConfig+0xd4>
 80024da:	687b      	ldr	r3, [r7, #4]
 80024dc:	685b      	ldr	r3, [r3, #4]
 80024de:	2b00      	cmp	r3, #0
 80024e0:	d10c      	bne.n	80024fc <HAL_RCC_OscConfig+0x98>
 80024e2:	4b7b      	ldr	r3, [pc, #492]	; (80026d0 <HAL_RCC_OscConfig+0x26c>)
 80024e4:	681b      	ldr	r3, [r3, #0]
 80024e6:	4a7a      	ldr	r2, [pc, #488]	; (80026d0 <HAL_RCC_OscConfig+0x26c>)
 80024e8:	f423 3380 	bic.w	r3, r3, #65536	; 0x10000
 80024ec:	6013      	str	r3, [r2, #0]
 80024ee:	4b78      	ldr	r3, [pc, #480]	; (80026d0 <HAL_RCC_OscConfig+0x26c>)
 80024f0:	681b      	ldr	r3, [r3, #0]
 80024f2:	4a77      	ldr	r2, [pc, #476]	; (80026d0 <HAL_RCC_OscConfig+0x26c>)
 80024f4:	f423 2380 	bic.w	r3, r3, #262144	; 0x40000
 80024f8:	6013      	str	r3, [r2, #0]
 80024fa:	e01d      	b.n	8002538 <HAL_RCC_OscConfig+0xd4>
 80024fc:	687b      	ldr	r3, [r7, #4]
 80024fe:	685b      	ldr	r3, [r3, #4]
 8002500:	f5b3 2fa0 	cmp.w	r3, #327680	; 0x50000
 8002504:	d10c      	bne.n	8002520 <HAL_RCC_OscConfig+0xbc>
 8002506:	4b72      	ldr	r3, [pc, #456]	; (80026d0 <HAL_RCC_OscConfig+0x26c>)
 8002508:	681b      	ldr	r3, [r3, #0]
 800250a:	4a71      	ldr	r2, [pc, #452]	; (80026d0 <HAL_RCC_OscConfig+0x26c>)
 800250c:	f443 2380 	orr.w	r3, r3, #262144	; 0x40000
 8002510:	6013      	str	r3, [r2, #0]
 8002512:	4b6f      	ldr	r3, [pc, #444]	; (80026d0 <HAL_RCC_OscConfig+0x26c>)
 8002514:	681b      	ldr	r3, [r3, #0]
 8002516:	4a6e      	ldr	r2, [pc, #440]	; (80026d0 <HAL_RCC_OscConfig+0x26c>)
 8002518:	f443 3380 	orr.w	r3, r3, #65536	; 0x10000
 800251c:	6013      	str	r3, [r2, #0]
 800251e:	e00b      	b.n	8002538 <HAL_RCC_OscConfig+0xd4>
 8002520:	4b6b      	ldr	r3, [pc, #428]	; (80026d0 <HAL_RCC_OscConfig+0x26c>)
 8002522:	681b      	ldr	r3, [r3, #0]
 8002524:	4a6a      	ldr	r2, [pc, #424]	; (80026d0 <HAL_RCC_OscConfig+0x26c>)
 8002526:	f423 3380 	bic.w	r3, r3, #65536	; 0x10000
 800252a:	6013      	str	r3, [r2, #0]
 800252c:	4b68      	ldr	r3, [pc, #416]	; (80026d0 <HAL_RCC_OscConfig+0x26c>)
 800252e:	681b      	ldr	r3, [r3, #0]
 8002530:	4a67      	ldr	r2, [pc, #412]	; (80026d0 <HAL_RCC_OscConfig+0x26c>)
 8002532:	f423 2380 	bic.w	r3, r3, #262144	; 0x40000
 8002536:	6013      	str	r3, [r2, #0]


      /* Check the HSE State */
      if (RCC_OscInitStruct->HSEState != RCC_HSE_OFF)
 8002538:	687b      	ldr	r3, [r7, #4]
 800253a:	685b      	ldr	r3, [r3, #4]
 800253c:	2b00      	cmp	r3, #0
 800253e:	d013      	beq.n	8002568 <HAL_RCC_OscConfig+0x104>
      {
        /* Get Start Tick */
        tickstart = HAL_GetTick();
 8002540:	f7ff fab6 	bl	8001ab0 <HAL_GetTick>
 8002544:	6138      	str	r0, [r7, #16]

        /* Wait till HSE is ready */
        while (__HAL_RCC_GET_FLAG(RCC_FLAG_HSERDY) == RESET)
 8002546:	e008      	b.n	800255a <HAL_RCC_OscConfig+0xf6>
        {
          if ((HAL_GetTick() - tickstart) > HSE_TIMEOUT_VALUE)
 8002548:	f7ff fab2 	bl	8001ab0 <HAL_GetTick>
 800254c:	4602      	mov	r2, r0
 800254e:	693b      	ldr	r3, [r7, #16]
 8002550:	1ad3      	subs	r3, r2, r3
 8002552:	2b64      	cmp	r3, #100	; 0x64
 8002554:	d901      	bls.n	800255a <HAL_RCC_OscConfig+0xf6>
          {
            return HAL_TIMEOUT;
 8002556:	2303      	movs	r3, #3
 8002558:	e1fa      	b.n	8002950 <HAL_RCC_OscConfig+0x4ec>
        while (__HAL_RCC_GET_FLAG(RCC_FLAG_HSERDY) == RESET)
 800255a:	4b5d      	ldr	r3, [pc, #372]	; (80026d0 <HAL_RCC_OscConfig+0x26c>)
 800255c:	681b      	ldr	r3, [r3, #0]
 800255e:	f403 3300 	and.w	r3, r3, #131072	; 0x20000
 8002562:	2b00      	cmp	r3, #0
 8002564:	d0f0      	beq.n	8002548 <HAL_RCC_OscConfig+0xe4>
 8002566:	e014      	b.n	8002592 <HAL_RCC_OscConfig+0x12e>
        }
      }
      else
      {
        /* Get Start Tick */
        tickstart = HAL_GetTick();
 8002568:	f7ff faa2 	bl	8001ab0 <HAL_GetTick>
 800256c:	6138      	str	r0, [r7, #16]

        /* Wait till HSE is disabled */
        while (__HAL_RCC_GET_FLAG(RCC_FLAG_HSERDY) != RESET)
 800256e:	e008      	b.n	8002582 <HAL_RCC_OscConfig+0x11e>
        {
          if ((HAL_GetTick() - tickstart) > HSE_TIMEOUT_VALUE)
 8002570:	f7ff fa9e 	bl	8001ab0 <HAL_GetTick>
 8002574:	4602      	mov	r2, r0
 8002576:	693b      	ldr	r3, [r7, #16]
 8002578:	1ad3      	subs	r3, r2, r3
 800257a:	2b64      	cmp	r3, #100	; 0x64
 800257c:	d901      	bls.n	8002582 <HAL_RCC_OscConfig+0x11e>
          {
            return HAL_TIMEOUT;
 800257e:	2303      	movs	r3, #3
 8002580:	e1e6      	b.n	8002950 <HAL_RCC_OscConfig+0x4ec>
        while (__HAL_RCC_GET_FLAG(RCC_FLAG_HSERDY) != RESET)
 8002582:	4b53      	ldr	r3, [pc, #332]	; (80026d0 <HAL_RCC_OscConfig+0x26c>)
 8002584:	681b      	ldr	r3, [r3, #0]
 8002586:	f403 3300 	and.w	r3, r3, #131072	; 0x20000
 800258a:	2b00      	cmp	r3, #0
 800258c:	d1f0      	bne.n	8002570 <HAL_RCC_OscConfig+0x10c>
 800258e:	e000      	b.n	8002592 <HAL_RCC_OscConfig+0x12e>
      if ((__HAL_RCC_GET_FLAG(RCC_FLAG_HSERDY) != RESET) && (RCC_OscInitStruct->HSEState == RCC_HSE_OFF))
 8002590:	bf00      	nop
        }
      }
    }
  }
  /*----------------------------- HSI Configuration --------------------------*/
  if (((RCC_OscInitStruct->OscillatorType) & RCC_OSCILLATORTYPE_HSI) == RCC_OSCILLATORTYPE_HSI)
 8002592:	687b      	ldr	r3, [r7, #4]
 8002594:	681b      	ldr	r3, [r3, #0]
 8002596:	f003 0302 	and.w	r3, r3, #2
 800259a:	2b00      	cmp	r3, #0
 800259c:	d063      	beq.n	8002666 <HAL_RCC_OscConfig+0x202>
    /* Check the parameters */
    assert_param(IS_RCC_HSI(RCC_OscInitStruct->HSIState));
    assert_param(IS_RCC_CALIBRATION_VALUE(RCC_OscInitStruct->HSICalibrationValue));

    /* Check if HSI is used as system clock or as PLL source when PLL is selected as system clock */
    if ((__HAL_RCC_GET_SYSCLK_SOURCE() == RCC_SYSCLKSOURCE_STATUS_HSI)
 800259e:	4b4c      	ldr	r3, [pc, #304]	; (80026d0 <HAL_RCC_OscConfig+0x26c>)
 80025a0:	685b      	ldr	r3, [r3, #4]
 80025a2:	f003 030c 	and.w	r3, r3, #12
 80025a6:	2b00      	cmp	r3, #0
 80025a8:	d00b      	beq.n	80025c2 <HAL_RCC_OscConfig+0x15e>
        || ((__HAL_RCC_GET_SYSCLK_SOURCE() == RCC_SYSCLKSOURCE_STATUS_PLLCLK) && (__HAL_RCC_GET_PLL_OSCSOURCE() == RCC_PLLSOURCE_HSI_DIV2)))
 80025aa:	4b49      	ldr	r3, [pc, #292]	; (80026d0 <HAL_RCC_OscConfig+0x26c>)
 80025ac:	685b      	ldr	r3, [r3, #4]
 80025ae:	f003 030c 	and.w	r3, r3, #12
 80025b2:	2b08      	cmp	r3, #8
 80025b4:	d11c      	bne.n	80025f0 <HAL_RCC_OscConfig+0x18c>
 80025b6:	4b46      	ldr	r3, [pc, #280]	; (80026d0 <HAL_RCC_OscConfig+0x26c>)
 80025b8:	685b      	ldr	r3, [r3, #4]
 80025ba:	f403 3380 	and.w	r3, r3, #65536	; 0x10000
 80025be:	2b00      	cmp	r3, #0
 80025c0:	d116      	bne.n	80025f0 <HAL_RCC_OscConfig+0x18c>
    {
      /* When HSI is used as system clock it will not disabled */
      if ((__HAL_RCC_GET_FLAG(RCC_FLAG_HSIRDY) != RESET) && (RCC_OscInitStruct->HSIState != RCC_HSI_ON))
 80025c2:	4b43      	ldr	r3, [pc, #268]	; (80026d0 <HAL_RCC_OscConfig+0x26c>)
 80025c4:	681b      	ldr	r3, [r3, #0]
 80025c6:	f003 0302 	and.w	r3, r3, #2
 80025ca:	2b00      	cmp	r3, #0
 80025cc:	d005      	beq.n	80025da <HAL_RCC_OscConfig+0x176>
 80025ce:	687b      	ldr	r3, [r7, #4]
 80025d0:	691b      	ldr	r3, [r3, #16]
 80025d2:	2b01      	cmp	r3, #1
 80025d4:	d001      	beq.n	80025da <HAL_RCC_OscConfig+0x176>
      {
        return HAL_ERROR;
 80025d6:	2301      	movs	r3, #1
 80025d8:	e1ba      	b.n	8002950 <HAL_RCC_OscConfig+0x4ec>
      }
      /* Otherwise, just the calibration is allowed */
      else
      {
        /* Adjusts the Internal High Speed oscillator (HSI) calibration value.*/
        __HAL_RCC_HSI_CALIBRATIONVALUE_ADJUST(RCC_OscInitStruct->HSICalibrationValue);
 80025da:	4b3d      	ldr	r3, [pc, #244]	; (80026d0 <HAL_RCC_OscConfig+0x26c>)
 80025dc:	681b      	ldr	r3, [r3, #0]
 80025de:	f023 02f8 	bic.w	r2, r3, #248	; 0xf8
 80025e2:	687b      	ldr	r3, [r7, #4]
 80025e4:	695b      	ldr	r3, [r3, #20]
 80025e6:	00db      	lsls	r3, r3, #3
 80025e8:	4939      	ldr	r1, [pc, #228]	; (80026d0 <HAL_RCC_OscConfig+0x26c>)
 80025ea:	4313      	orrs	r3, r2
 80025ec:	600b      	str	r3, [r1, #0]
      if ((__HAL_RCC_GET_FLAG(RCC_FLAG_HSIRDY) != RESET) && (RCC_OscInitStruct->HSIState != RCC_HSI_ON))
 80025ee:	e03a      	b.n	8002666 <HAL_RCC_OscConfig+0x202>
      }
    }
    else
    {
      /* Check the HSI State */
      if (RCC_OscInitStruct->HSIState != RCC_HSI_OFF)
 80025f0:	687b      	ldr	r3, [r7, #4]
 80025f2:	691b      	ldr	r3, [r3, #16]
 80025f4:	2b00      	cmp	r3, #0
 80025f6:	d020      	beq.n	800263a <HAL_RCC_OscConfig+0x1d6>
      {
        /* Enable the Internal High Speed oscillator (HSI). */
        __HAL_RCC_HSI_ENABLE();
 80025f8:	4b36      	ldr	r3, [pc, #216]	; (80026d4 <HAL_RCC_OscConfig+0x270>)
 80025fa:	2201      	movs	r2, #1
 80025fc:	601a      	str	r2, [r3, #0]

        /* Get Start Tick */
        tickstart = HAL_GetTick();
 80025fe:	f7ff fa57 	bl	8001ab0 <HAL_GetTick>
 8002602:	6138      	str	r0, [r7, #16]

        /* Wait till HSI is ready */
        while (__HAL_RCC_GET_FLAG(RCC_FLAG_HSIRDY) == RESET)
 8002604:	e008      	b.n	8002618 <HAL_RCC_OscConfig+0x1b4>
        {
          if ((HAL_GetTick() - tickstart) > HSI_TIMEOUT_VALUE)
 8002606:	f7ff fa53 	bl	8001ab0 <HAL_GetTick>
 800260a:	4602      	mov	r2, r0
 800260c:	693b      	ldr	r3, [r7, #16]
 800260e:	1ad3      	subs	r3, r2, r3
 8002610:	2b02      	cmp	r3, #2
 8002612:	d901      	bls.n	8002618 <HAL_RCC_OscConfig+0x1b4>
          {
            return HAL_TIMEOUT;
 8002614:	2303      	movs	r3, #3
 8002616:	e19b      	b.n	8002950 <HAL_RCC_OscConfig+0x4ec>
        while (__HAL_RCC_GET_FLAG(RCC_FLAG_HSIRDY) == RESET)
 8002618:	4b2d      	ldr	r3, [pc, #180]	; (80026d0 <HAL_RCC_OscConfig+0x26c>)
 800261a:	681b      	ldr	r3, [r3, #0]
 800261c:	f003 0302 	and.w	r3, r3, #2
 8002620:	2b00      	cmp	r3, #0
 8002622:	d0f0      	beq.n	8002606 <HAL_RCC_OscConfig+0x1a2>
          }
        }

        /* Adjusts the Internal High Speed oscillator (HSI) calibration value.*/
        __HAL_RCC_HSI_CALIBRATIONVALUE_ADJUST(RCC_OscInitStruct->HSICalibrationValue);
 8002624:	4b2a      	ldr	r3, [pc, #168]	; (80026d0 <HAL_RCC_OscConfig+0x26c>)
 8002626:	681b      	ldr	r3, [r3, #0]
 8002628:	f023 02f8 	bic.w	r2, r3, #248	; 0xf8
 800262c:	687b      	ldr	r3, [r7, #4]
 800262e:	695b      	ldr	r3, [r3, #20]
 8002630:	00db      	lsls	r3, r3, #3
 8002632:	4927      	ldr	r1, [pc, #156]	; (80026d0 <HAL_RCC_OscConfig+0x26c>)
 8002634:	4313      	orrs	r3, r2
 8002636:	600b      	str	r3, [r1, #0]
 8002638:	e015      	b.n	8002666 <HAL_RCC_OscConfig+0x202>
      }
      else
      {
        /* Disable the Internal High Speed oscillator (HSI). */
        __HAL_RCC_HSI_DISABLE();
 800263a:	4b26      	ldr	r3, [pc, #152]	; (80026d4 <HAL_RCC_OscConfig+0x270>)
 800263c:	2200      	movs	r2, #0
 800263e:	601a      	str	r2, [r3, #0]

        /* Get Start Tick */
        tickstart = HAL_GetTick();
 8002640:	f7ff fa36 	bl	8001ab0 <HAL_GetTick>
 8002644:	6138      	str	r0, [r7, #16]

        /* Wait till HSI is disabled */
        while (__HAL_RCC_GET_FLAG(RCC_FLAG_HSIRDY) != RESET)
 8002646:	e008      	b.n	800265a <HAL_RCC_OscConfig+0x1f6>
        {
          if ((HAL_GetTick() - tickstart) > HSI_TIMEOUT_VALUE)
 8002648:	f7ff fa32 	bl	8001ab0 <HAL_GetTick>
 800264c:	4602      	mov	r2, r0
 800264e:	693b      	ldr	r3, [r7, #16]
 8002650:	1ad3      	subs	r3, r2, r3
 8002652:	2b02      	cmp	r3, #2
 8002654:	d901      	bls.n	800265a <HAL_RCC_OscConfig+0x1f6>
          {
            return HAL_TIMEOUT;
 8002656:	2303      	movs	r3, #3
 8002658:	e17a      	b.n	8002950 <HAL_RCC_OscConfig+0x4ec>
        while (__HAL_RCC_GET_FLAG(RCC_FLAG_HSIRDY) != RESET)
 800265a:	4b1d      	ldr	r3, [pc, #116]	; (80026d0 <HAL_RCC_OscConfig+0x26c>)
 800265c:	681b      	ldr	r3, [r3, #0]
 800265e:	f003 0302 	and.w	r3, r3, #2
 8002662:	2b00      	cmp	r3, #0
 8002664:	d1f0      	bne.n	8002648 <HAL_RCC_OscConfig+0x1e4>
        }
      }
    }
  }
  /*------------------------------ LSI Configuration -------------------------*/
  if (((RCC_OscInitStruct->OscillatorType) & RCC_OSCILLATORTYPE_LSI) == RCC_OSCILLATORTYPE_LSI)
 8002666:	687b      	ldr	r3, [r7, #4]
 8002668:	681b      	ldr	r3, [r3, #0]
 800266a:	f003 0308 	and.w	r3, r3, #8
 800266e:	2b00      	cmp	r3, #0
 8002670:	d03a      	beq.n	80026e8 <HAL_RCC_OscConfig+0x284>
  {
    /* Check the parameters */
    assert_param(IS_RCC_LSI(RCC_OscInitStruct->LSIState));

    /* Check the LSI State */
    if (RCC_OscInitStruct->LSIState != RCC_LSI_OFF)
 8002672:	687b      	ldr	r3, [r7, #4]
 8002674:	699b      	ldr	r3, [r3, #24]
 8002676:	2b00      	cmp	r3, #0
 8002678:	d019      	beq.n	80026ae <HAL_RCC_OscConfig+0x24a>
    {
      /* Enable the Internal Low Speed oscillator (LSI). */
      __HAL_RCC_LSI_ENABLE();
 800267a:	4b17      	ldr	r3, [pc, #92]	; (80026d8 <HAL_RCC_OscConfig+0x274>)
 800267c:	2201      	movs	r2, #1
 800267e:	601a      	str	r2, [r3, #0]

      /* Get Start Tick */
      tickstart = HAL_GetTick();
 8002680:	f7ff fa16 	bl	8001ab0 <HAL_GetTick>
 8002684:	6138      	str	r0, [r7, #16]

      /* Wait till LSI is ready */
      while (__HAL_RCC_GET_FLAG(RCC_FLAG_LSIRDY) == RESET)
 8002686:	e008      	b.n	800269a <HAL_RCC_OscConfig+0x236>
      {
        if ((HAL_GetTick() - tickstart) > LSI_TIMEOUT_VALUE)
 8002688:	f7ff fa12 	bl	8001ab0 <HAL_GetTick>
 800268c:	4602      	mov	r2, r0
 800268e:	693b      	ldr	r3, [r7, #16]
 8002690:	1ad3      	subs	r3, r2, r3
 8002692:	2b02      	cmp	r3, #2
 8002694:	d901      	bls.n	800269a <HAL_RCC_OscConfig+0x236>
        {
          return HAL_TIMEOUT;
 8002696:	2303      	movs	r3, #3
 8002698:	e15a      	b.n	8002950 <HAL_RCC_OscConfig+0x4ec>
      while (__HAL_RCC_GET_FLAG(RCC_FLAG_LSIRDY) == RESET)
 800269a:	4b0d      	ldr	r3, [pc, #52]	; (80026d0 <HAL_RCC_OscConfig+0x26c>)
 800269c:	6a5b      	ldr	r3, [r3, #36]	; 0x24
 800269e:	f003 0302 	and.w	r3, r3, #2
 80026a2:	2b00      	cmp	r3, #0
 80026a4:	d0f0      	beq.n	8002688 <HAL_RCC_OscConfig+0x224>
        }
      }
      /*  To have a fully stabilized clock in the specified range, a software delay of 1ms
          should be added.*/
      RCC_Delay(1);
 80026a6:	2001      	movs	r0, #1
 80026a8:	f000 fada 	bl	8002c60 <RCC_Delay>
 80026ac:	e01c      	b.n	80026e8 <HAL_RCC_OscConfig+0x284>
    }
    else
    {
      /* Disable the Internal Low Speed oscillator (LSI). */
      __HAL_RCC_LSI_DISABLE();
 80026ae:	4b0a      	ldr	r3, [pc, #40]	; (80026d8 <HAL_RCC_OscConfig+0x274>)
 80026b0:	2200      	movs	r2, #0
 80026b2:	601a      	str	r2, [r3, #0]

      /* Get Start Tick */
      tickstart = HAL_GetTick();
 80026b4:	f7ff f9fc 	bl	8001ab0 <HAL_GetTick>
 80026b8:	6138      	str	r0, [r7, #16]

      /* Wait till LSI is disabled */
      while (__HAL_RCC_GET_FLAG(RCC_FLAG_LSIRDY) != RESET)
 80026ba:	e00f      	b.n	80026dc <HAL_RCC_OscConfig+0x278>
      {
        if ((HAL_GetTick() - tickstart) > LSI_TIMEOUT_VALUE)
 80026bc:	f7ff f9f8 	bl	8001ab0 <HAL_GetTick>
 80026c0:	4602      	mov	r2, r0
 80026c2:	693b      	ldr	r3, [r7, #16]
 80026c4:	1ad3      	subs	r3, r2, r3
 80026c6:	2b02      	cmp	r3, #2
 80026c8:	d908      	bls.n	80026dc <HAL_RCC_OscConfig+0x278>
        {
          return HAL_TIMEOUT;
 80026ca:	2303      	movs	r3, #3
 80026cc:	e140      	b.n	8002950 <HAL_RCC_OscConfig+0x4ec>
 80026ce:	bf00      	nop
 80026d0:	40021000 	.word	0x40021000
 80026d4:	42420000 	.word	0x42420000
 80026d8:	42420480 	.word	0x42420480
      while (__HAL_RCC_GET_FLAG(RCC_FLAG_LSIRDY) != RESET)
 80026dc:	4b9e      	ldr	r3, [pc, #632]	; (8002958 <HAL_RCC_OscConfig+0x4f4>)
 80026de:	6a5b      	ldr	r3, [r3, #36]	; 0x24
 80026e0:	f003 0302 	and.w	r3, r3, #2
 80026e4:	2b00      	cmp	r3, #0
 80026e6:	d1e9      	bne.n	80026bc <HAL_RCC_OscConfig+0x258>
        }
      }
    }
  }
  /*------------------------------ LSE Configuration -------------------------*/
  if (((RCC_OscInitStruct->OscillatorType) & RCC_OSCILLATORTYPE_LSE) == RCC_OSCILLATORTYPE_LSE)
 80026e8:	687b      	ldr	r3, [r7, #4]
 80026ea:	681b      	ldr	r3, [r3, #0]
 80026ec:	f003 0304 	and.w	r3, r3, #4
 80026f0:	2b00      	cmp	r3, #0
 80026f2:	f000 80a6 	beq.w	8002842 <HAL_RCC_OscConfig+0x3de>
  {
    FlagStatus       pwrclkchanged = RESET;
 80026f6:	2300      	movs	r3, #0
 80026f8:	75fb      	strb	r3, [r7, #23]
    /* Check the parameters */
    assert_param(IS_RCC_LSE(RCC_OscInitStruct->LSEState));

    /* Update LSE configuration in Backup Domain control register    */
    /* Requires to enable write access to Backup Domain of necessary */
    if (__HAL_RCC_PWR_IS_CLK_DISABLED())
 80026fa:	4b97      	ldr	r3, [pc, #604]	; (8002958 <HAL_RCC_OscConfig+0x4f4>)
 80026fc:	69db      	ldr	r3, [r3, #28]
 80026fe:	f003 5380 	and.w	r3, r3, #268435456	; 0x10000000
 8002702:	2b00      	cmp	r3, #0
 8002704:	d10d      	bne.n	8002722 <HAL_RCC_OscConfig+0x2be>
    {
      __HAL_RCC_PWR_CLK_ENABLE();
 8002706:	4b94      	ldr	r3, [pc, #592]	; (8002958 <HAL_RCC_OscConfig+0x4f4>)
 8002708:	69db      	ldr	r3, [r3, #28]
 800270a:	4a93      	ldr	r2, [pc, #588]	; (8002958 <HAL_RCC_OscConfig+0x4f4>)
 800270c:	f043 5380 	orr.w	r3, r3, #268435456	; 0x10000000
 8002710:	61d3      	str	r3, [r2, #28]
 8002712:	4b91      	ldr	r3, [pc, #580]	; (8002958 <HAL_RCC_OscConfig+0x4f4>)
 8002714:	69db      	ldr	r3, [r3, #28]
 8002716:	f003 5380 	and.w	r3, r3, #268435456	; 0x10000000
 800271a:	60bb      	str	r3, [r7, #8]
 800271c:	68bb      	ldr	r3, [r7, #8]
      pwrclkchanged = SET;
 800271e:	2301      	movs	r3, #1
 8002720:	75fb      	strb	r3, [r7, #23]
    }

    if (HAL_IS_BIT_CLR(PWR->CR, PWR_CR_DBP))
 8002722:	4b8e      	ldr	r3, [pc, #568]	; (800295c <HAL_RCC_OscConfig+0x4f8>)
 8002724:	681b      	ldr	r3, [r3, #0]
 8002726:	f403 7380 	and.w	r3, r3, #256	; 0x100
 800272a:	2b00      	cmp	r3, #0
 800272c:	d118      	bne.n	8002760 <HAL_RCC_OscConfig+0x2fc>
    {
      /* Enable write access to Backup domain */
      SET_BIT(PWR->CR, PWR_CR_DBP);
 800272e:	4b8b      	ldr	r3, [pc, #556]	; (800295c <HAL_RCC_OscConfig+0x4f8>)
 8002730:	681b      	ldr	r3, [r3, #0]
 8002732:	4a8a      	ldr	r2, [pc, #552]	; (800295c <HAL_RCC_OscConfig+0x4f8>)
 8002734:	f443 7380 	orr.w	r3, r3, #256	; 0x100
 8002738:	6013      	str	r3, [r2, #0]

      /* Wait for Backup domain Write protection disable */
      tickstart = HAL_GetTick();
 800273a:	f7ff f9b9 	bl	8001ab0 <HAL_GetTick>
 800273e:	6138      	str	r0, [r7, #16]

      while (HAL_IS_BIT_CLR(PWR->CR, PWR_CR_DBP))
 8002740:	e008      	b.n	8002754 <HAL_RCC_OscConfig+0x2f0>
      {
        if ((HAL_GetTick() - tickstart) > RCC_DBP_TIMEOUT_VALUE)
 8002742:	f7ff f9b5 	bl	8001ab0 <HAL_GetTick>
 8002746:	4602      	mov	r2, r0
 8002748:	693b      	ldr	r3, [r7, #16]
 800274a:	1ad3      	subs	r3, r2, r3
 800274c:	2b64      	cmp	r3, #100	; 0x64
 800274e:	d901      	bls.n	8002754 <HAL_RCC_OscConfig+0x2f0>
        {
          return HAL_TIMEOUT;
 8002750:	2303      	movs	r3, #3
 8002752:	e0fd      	b.n	8002950 <HAL_RCC_OscConfig+0x4ec>
      while (HAL_IS_BIT_CLR(PWR->CR, PWR_CR_DBP))
 8002754:	4b81      	ldr	r3, [pc, #516]	; (800295c <HAL_RCC_OscConfig+0x4f8>)
 8002756:	681b      	ldr	r3, [r3, #0]
 8002758:	f403 7380 	and.w	r3, r3, #256	; 0x100
 800275c:	2b00      	cmp	r3, #0
 800275e:	d0f0      	beq.n	8002742 <HAL_RCC_OscConfig+0x2de>
        }
      }
    }

    /* Set the new LSE configuration -----------------------------------------*/
    __HAL_RCC_LSE_CONFIG(RCC_OscInitStruct->LSEState);
 8002760:	687b      	ldr	r3, [r7, #4]
 8002762:	68db      	ldr	r3, [r3, #12]
 8002764:	2b01      	cmp	r3, #1
 8002766:	d106      	bne.n	8002776 <HAL_RCC_OscConfig+0x312>
 8002768:	4b7b      	ldr	r3, [pc, #492]	; (8002958 <HAL_RCC_OscConfig+0x4f4>)
 800276a:	6a1b      	ldr	r3, [r3, #32]
 800276c:	4a7a      	ldr	r2, [pc, #488]	; (8002958 <HAL_RCC_OscConfig+0x4f4>)
 800276e:	f043 0301 	orr.w	r3, r3, #1
 8002772:	6213      	str	r3, [r2, #32]
 8002774:	e02d      	b.n	80027d2 <HAL_RCC_OscConfig+0x36e>
 8002776:	687b      	ldr	r3, [r7, #4]
 8002778:	68db      	ldr	r3, [r3, #12]
 800277a:	2b00      	cmp	r3, #0
 800277c:	d10c      	bne.n	8002798 <HAL_RCC_OscConfig+0x334>
 800277e:	4b76      	ldr	r3, [pc, #472]	; (8002958 <HAL_RCC_OscConfig+0x4f4>)
 8002780:	6a1b      	ldr	r3, [r3, #32]
 8002782:	4a75      	ldr	r2, [pc, #468]	; (8002958 <HAL_RCC_OscConfig+0x4f4>)
 8002784:	f023 0301 	bic.w	r3, r3, #1
 8002788:	6213      	str	r3, [r2, #32]
 800278a:	4b73      	ldr	r3, [pc, #460]	; (8002958 <HAL_RCC_OscConfig+0x4f4>)
 800278c:	6a1b      	ldr	r3, [r3, #32]
 800278e:	4a72      	ldr	r2, [pc, #456]	; (8002958 <HAL_RCC_OscConfig+0x4f4>)
 8002790:	f023 0304 	bic.w	r3, r3, #4
 8002794:	6213      	str	r3, [r2, #32]
 8002796:	e01c      	b.n	80027d2 <HAL_RCC_OscConfig+0x36e>
 8002798:	687b      	ldr	r3, [r7, #4]
 800279a:	68db      	ldr	r3, [r3, #12]
 800279c:	2b05      	cmp	r3, #5
 800279e:	d10c      	bne.n	80027ba <HAL_RCC_OscConfig+0x356>
 80027a0:	4b6d      	ldr	r3, [pc, #436]	; (8002958 <HAL_RCC_OscConfig+0x4f4>)
 80027a2:	6a1b      	ldr	r3, [r3, #32]
 80027a4:	4a6c      	ldr	r2, [pc, #432]	; (8002958 <HAL_RCC_OscConfig+0x4f4>)
 80027a6:	f043 0304 	orr.w	r3, r3, #4
 80027aa:	6213      	str	r3, [r2, #32]
 80027ac:	4b6a      	ldr	r3, [pc, #424]	; (8002958 <HAL_RCC_OscConfig+0x4f4>)
 80027ae:	6a1b      	ldr	r3, [r3, #32]
 80027b0:	4a69      	ldr	r2, [pc, #420]	; (8002958 <HAL_RCC_OscConfig+0x4f4>)
 80027b2:	f043 0301 	orr.w	r3, r3, #1
 80027b6:	6213      	str	r3, [r2, #32]
 80027b8:	e00b      	b.n	80027d2 <HAL_RCC_OscConfig+0x36e>
 80027ba:	4b67      	ldr	r3, [pc, #412]	; (8002958 <HAL_RCC_OscConfig+0x4f4>)
 80027bc:	6a1b      	ldr	r3, [r3, #32]
 80027be:	4a66      	ldr	r2, [pc, #408]	; (8002958 <HAL_RCC_OscConfig+0x4f4>)
 80027c0:	f023 0301 	bic.w	r3, r3, #1
 80027c4:	6213      	str	r3, [r2, #32]
 80027c6:	4b64      	ldr	r3, [pc, #400]	; (8002958 <HAL_RCC_OscConfig+0x4f4>)
 80027c8:	6a1b      	ldr	r3, [r3, #32]
 80027ca:	4a63      	ldr	r2, [pc, #396]	; (8002958 <HAL_RCC_OscConfig+0x4f4>)
 80027cc:	f023 0304 	bic.w	r3, r3, #4
 80027d0:	6213      	str	r3, [r2, #32]
    /* Check the LSE State */
    if (RCC_OscInitStruct->LSEState != RCC_LSE_OFF)
 80027d2:	687b      	ldr	r3, [r7, #4]
 80027d4:	68db      	ldr	r3, [r3, #12]
 80027d6:	2b00      	cmp	r3, #0
 80027d8:	d015      	beq.n	8002806 <HAL_RCC_OscConfig+0x3a2>
    {
      /* Get Start Tick */
      tickstart = HAL_GetTick();
 80027da:	f7ff f969 	bl	8001ab0 <HAL_GetTick>
 80027de:	6138      	str	r0, [r7, #16]

      /* Wait till LSE is ready */
      while (__HAL_RCC_GET_FLAG(RCC_FLAG_LSERDY) == RESET)
 80027e0:	e00a      	b.n	80027f8 <HAL_RCC_OscConfig+0x394>
      {
        if ((HAL_GetTick() - tickstart) > RCC_LSE_TIMEOUT_VALUE)
 80027e2:	f7ff f965 	bl	8001ab0 <HAL_GetTick>
 80027e6:	4602      	mov	r2, r0
 80027e8:	693b      	ldr	r3, [r7, #16]
 80027ea:	1ad3      	subs	r3, r2, r3
 80027ec:	f241 3288 	movw	r2, #5000	; 0x1388
 80027f0:	4293      	cmp	r3, r2
 80027f2:	d901      	bls.n	80027f8 <HAL_RCC_OscConfig+0x394>
        {
          return HAL_TIMEOUT;
 80027f4:	2303      	movs	r3, #3
 80027f6:	e0ab      	b.n	8002950 <HAL_RCC_OscConfig+0x4ec>
      while (__HAL_RCC_GET_FLAG(RCC_FLAG_LSERDY) == RESET)
 80027f8:	4b57      	ldr	r3, [pc, #348]	; (8002958 <HAL_RCC_OscConfig+0x4f4>)
 80027fa:	6a1b      	ldr	r3, [r3, #32]
 80027fc:	f003 0302 	and.w	r3, r3, #2
 8002800:	2b00      	cmp	r3, #0
 8002802:	d0ee      	beq.n	80027e2 <HAL_RCC_OscConfig+0x37e>
 8002804:	e014      	b.n	8002830 <HAL_RCC_OscConfig+0x3cc>
      }
    }
    else
    {
      /* Get Start Tick */
      tickstart = HAL_GetTick();
 8002806:	f7ff f953 	bl	8001ab0 <HAL_GetTick>
 800280a:	6138      	str	r0, [r7, #16]

      /* Wait till LSE is disabled */
      while (__HAL_RCC_GET_FLAG(RCC_FLAG_LSERDY) != RESET)
 800280c:	e00a      	b.n	8002824 <HAL_RCC_OscConfig+0x3c0>
      {
        if ((HAL_GetTick() - tickstart) > RCC_LSE_TIMEOUT_VALUE)
 800280e:	f7ff f94f 	bl	8001ab0 <HAL_GetTick>
 8002812:	4602      	mov	r2, r0
 8002814:	693b      	ldr	r3, [r7, #16]
 8002816:	1ad3      	subs	r3, r2, r3
 8002818:	f241 3288 	movw	r2, #5000	; 0x1388
 800281c:	4293      	cmp	r3, r2
 800281e:	d901      	bls.n	8002824 <HAL_RCC_OscConfig+0x3c0>
        {
          return HAL_TIMEOUT;
 8002820:	2303      	movs	r3, #3
 8002822:	e095      	b.n	8002950 <HAL_RCC_OscConfig+0x4ec>
      while (__HAL_RCC_GET_FLAG(RCC_FLAG_LSERDY) != RESET)
 8002824:	4b4c      	ldr	r3, [pc, #304]	; (8002958 <HAL_RCC_OscConfig+0x4f4>)
 8002826:	6a1b      	ldr	r3, [r3, #32]
 8002828:	f003 0302 	and.w	r3, r3, #2
 800282c:	2b00      	cmp	r3, #0
 800282e:	d1ee      	bne.n	800280e <HAL_RCC_OscConfig+0x3aa>
        }
      }
    }

    /* Require to disable power clock if necessary */
    if (pwrclkchanged == SET)
 8002830:	7dfb      	ldrb	r3, [r7, #23]
 8002832:	2b01      	cmp	r3, #1
 8002834:	d105      	bne.n	8002842 <HAL_RCC_OscConfig+0x3de>
    {
      __HAL_RCC_PWR_CLK_DISABLE();
 8002836:	4b48      	ldr	r3, [pc, #288]	; (8002958 <HAL_RCC_OscConfig+0x4f4>)
 8002838:	69db      	ldr	r3, [r3, #28]
 800283a:	4a47      	ldr	r2, [pc, #284]	; (8002958 <HAL_RCC_OscConfig+0x4f4>)
 800283c:	f023 5380 	bic.w	r3, r3, #268435456	; 0x10000000
 8002840:	61d3      	str	r3, [r2, #28]

#endif /* RCC_CR_PLL2ON */
  /*-------------------------------- PLL Configuration -----------------------*/
  /* Check the parameters */
  assert_param(IS_RCC_PLL(RCC_OscInitStruct->PLL.PLLState));
  if ((RCC_OscInitStruct->PLL.PLLState) != RCC_PLL_NONE)
 8002842:	687b      	ldr	r3, [r7, #4]
 8002844:	69db      	ldr	r3, [r3, #28]
 8002846:	2b00      	cmp	r3, #0
 8002848:	f000 8081 	beq.w	800294e <HAL_RCC_OscConfig+0x4ea>
  {
    /* Check if the PLL is used as system clock or not */
    if (__HAL_RCC_GET_SYSCLK_SOURCE() != RCC_SYSCLKSOURCE_STATUS_PLLCLK)
 800284c:	4b42      	ldr	r3, [pc, #264]	; (8002958 <HAL_RCC_OscConfig+0x4f4>)
 800284e:	685b      	ldr	r3, [r3, #4]
 8002850:	f003 030c 	and.w	r3, r3, #12
 8002854:	2b08      	cmp	r3, #8
 8002856:	d061      	beq.n	800291c <HAL_RCC_OscConfig+0x4b8>
    {
      if ((RCC_OscInitStruct->PLL.PLLState) == RCC_PLL_ON)
 8002858:	687b      	ldr	r3, [r7, #4]
 800285a:	69db      	ldr	r3, [r3, #28]
 800285c:	2b02      	cmp	r3, #2
 800285e:	d146      	bne.n	80028ee <HAL_RCC_OscConfig+0x48a>
        /* Check the parameters */
        assert_param(IS_RCC_PLLSOURCE(RCC_OscInitStruct->PLL.PLLSource));
        assert_param(IS_RCC_PLL_MUL(RCC_OscInitStruct->PLL.PLLMUL));

        /* Disable the main PLL. */
        __HAL_RCC_PLL_DISABLE();
 8002860:	4b3f      	ldr	r3, [pc, #252]	; (8002960 <HAL_RCC_OscConfig+0x4fc>)
 8002862:	2200      	movs	r2, #0
 8002864:	601a      	str	r2, [r3, #0]

        /* Get Start Tick */
        tickstart = HAL_GetTick();
 8002866:	f7ff f923 	bl	8001ab0 <HAL_GetTick>
 800286a:	6138      	str	r0, [r7, #16]

        /* Wait till PLL is disabled */
        while (__HAL_RCC_GET_FLAG(RCC_FLAG_PLLRDY)  != RESET)
 800286c:	e008      	b.n	8002880 <HAL_RCC_OscConfig+0x41c>
        {
          if ((HAL_GetTick() - tickstart) > PLL_TIMEOUT_VALUE)
 800286e:	f7ff f91f 	bl	8001ab0 <HAL_GetTick>
 8002872:	4602      	mov	r2, r0
 8002874:	693b      	ldr	r3, [r7, #16]
 8002876:	1ad3      	subs	r3, r2, r3
 8002878:	2b02      	cmp	r3, #2
 800287a:	d901      	bls.n	8002880 <HAL_RCC_OscConfig+0x41c>
          {
            return HAL_TIMEOUT;
 800287c:	2303      	movs	r3, #3
 800287e:	e067      	b.n	8002950 <HAL_RCC_OscConfig+0x4ec>
        while (__HAL_RCC_GET_FLAG(RCC_FLAG_PLLRDY)  != RESET)
 8002880:	4b35      	ldr	r3, [pc, #212]	; (8002958 <HAL_RCC_OscConfig+0x4f4>)
 8002882:	681b      	ldr	r3, [r3, #0]
 8002884:	f003 7300 	and.w	r3, r3, #33554432	; 0x2000000
 8002888:	2b00      	cmp	r3, #0
 800288a:	d1f0      	bne.n	800286e <HAL_RCC_OscConfig+0x40a>
          }
        }

        /* Configure the HSE prediv factor --------------------------------*/
        /* It can be written only when the PLL is disabled. Not used in PLL source is different than HSE */
        if (RCC_OscInitStruct->PLL.PLLSource == RCC_PLLSOURCE_HSE)
 800288c:	687b      	ldr	r3, [r7, #4]
 800288e:	6a1b      	ldr	r3, [r3, #32]
 8002890:	f5b3 3f80 	cmp.w	r3, #65536	; 0x10000
 8002894:	d108      	bne.n	80028a8 <HAL_RCC_OscConfig+0x444>
          /* Set PREDIV1 source */
          SET_BIT(RCC->CFGR2, RCC_OscInitStruct->Prediv1Source);
#endif /* RCC_CFGR2_PREDIV1SRC */

          /* Set PREDIV1 Value */
          __HAL_RCC_HSE_PREDIV_CONFIG(RCC_OscInitStruct->HSEPredivValue);
 8002896:	4b30      	ldr	r3, [pc, #192]	; (8002958 <HAL_RCC_OscConfig+0x4f4>)
 8002898:	685b      	ldr	r3, [r3, #4]
 800289a:	f423 3200 	bic.w	r2, r3, #131072	; 0x20000
 800289e:	687b      	ldr	r3, [r7, #4]
 80028a0:	689b      	ldr	r3, [r3, #8]
 80028a2:	492d      	ldr	r1, [pc, #180]	; (8002958 <HAL_RCC_OscConfig+0x4f4>)
 80028a4:	4313      	orrs	r3, r2
 80028a6:	604b      	str	r3, [r1, #4]
        }

        /* Configure the main PLL clock source and multiplication factors. */
        __HAL_RCC_PLL_CONFIG(RCC_OscInitStruct->PLL.PLLSource,
 80028a8:	4b2b      	ldr	r3, [pc, #172]	; (8002958 <HAL_RCC_OscConfig+0x4f4>)
 80028aa:	685b      	ldr	r3, [r3, #4]
 80028ac:	f423 1274 	bic.w	r2, r3, #3997696	; 0x3d0000
 80028b0:	687b      	ldr	r3, [r7, #4]
 80028b2:	6a19      	ldr	r1, [r3, #32]
 80028b4:	687b      	ldr	r3, [r7, #4]
 80028b6:	6a5b      	ldr	r3, [r3, #36]	; 0x24
 80028b8:	430b      	orrs	r3, r1
 80028ba:	4927      	ldr	r1, [pc, #156]	; (8002958 <HAL_RCC_OscConfig+0x4f4>)
 80028bc:	4313      	orrs	r3, r2
 80028be:	604b      	str	r3, [r1, #4]
                             RCC_OscInitStruct->PLL.PLLMUL);
        /* Enable the main PLL. */
        __HAL_RCC_PLL_ENABLE();
 80028c0:	4b27      	ldr	r3, [pc, #156]	; (8002960 <HAL_RCC_OscConfig+0x4fc>)
 80028c2:	2201      	movs	r2, #1
 80028c4:	601a      	str	r2, [r3, #0]

        /* Get Start Tick */
        tickstart = HAL_GetTick();
 80028c6:	f7ff f8f3 	bl	8001ab0 <HAL_GetTick>
 80028ca:	6138      	str	r0, [r7, #16]

        /* Wait till PLL is ready */
        while (__HAL_RCC_GET_FLAG(RCC_FLAG_PLLRDY)  == RESET)
 80028cc:	e008      	b.n	80028e0 <HAL_RCC_OscConfig+0x47c>
        {
          if ((HAL_GetTick() - tickstart) > PLL_TIMEOUT_VALUE)
 80028ce:	f7ff f8ef 	bl	8001ab0 <HAL_GetTick>
 80028d2:	4602      	mov	r2, r0
 80028d4:	693b      	ldr	r3, [r7, #16]
 80028d6:	1ad3      	subs	r3, r2, r3
 80028d8:	2b02      	cmp	r3, #2
 80028da:	d901      	bls.n	80028e0 <HAL_RCC_OscConfig+0x47c>
          {
            return HAL_TIMEOUT;
 80028dc:	2303      	movs	r3, #3
 80028de:	e037      	b.n	8002950 <HAL_RCC_OscConfig+0x4ec>
        while (__HAL_RCC_GET_FLAG(RCC_FLAG_PLLRDY)  == RESET)
 80028e0:	4b1d      	ldr	r3, [pc, #116]	; (8002958 <HAL_RCC_OscConfig+0x4f4>)
 80028e2:	681b      	ldr	r3, [r3, #0]
 80028e4:	f003 7300 	and.w	r3, r3, #33554432	; 0x2000000
 80028e8:	2b00      	cmp	r3, #0
 80028ea:	d0f0      	beq.n	80028ce <HAL_RCC_OscConfig+0x46a>
 80028ec:	e02f      	b.n	800294e <HAL_RCC_OscConfig+0x4ea>
        }
      }
      else
      {
        /* Disable the main PLL. */
        __HAL_RCC_PLL_DISABLE();
 80028ee:	4b1c      	ldr	r3, [pc, #112]	; (8002960 <HAL_RCC_OscConfig+0x4fc>)
 80028f0:	2200      	movs	r2, #0
 80028f2:	601a      	str	r2, [r3, #0]

        /* Get Start Tick */
        tickstart = HAL_GetTick();
 80028f4:	f7ff f8dc 	bl	8001ab0 <HAL_GetTick>
 80028f8:	6138      	str	r0, [r7, #16]

        /* Wait till PLL is disabled */
        while (__HAL_RCC_GET_FLAG(RCC_FLAG_PLLRDY)  != RESET)
 80028fa:	e008      	b.n	800290e <HAL_RCC_OscConfig+0x4aa>
        {
          if ((HAL_GetTick() - tickstart) > PLL_TIMEOUT_VALUE)
 80028fc:	f7ff f8d8 	bl	8001ab0 <HAL_GetTick>
 8002900:	4602      	mov	r2, r0
 8002902:	693b      	ldr	r3, [r7, #16]
 8002904:	1ad3      	subs	r3, r2, r3
 8002906:	2b02      	cmp	r3, #2
 8002908:	d901      	bls.n	800290e <HAL_RCC_OscConfig+0x4aa>
          {
            return HAL_TIMEOUT;
 800290a:	2303      	movs	r3, #3
 800290c:	e020      	b.n	8002950 <HAL_RCC_OscConfig+0x4ec>
        while (__HAL_RCC_GET_FLAG(RCC_FLAG_PLLRDY)  != RESET)
 800290e:	4b12      	ldr	r3, [pc, #72]	; (8002958 <HAL_RCC_OscConfig+0x4f4>)
 8002910:	681b      	ldr	r3, [r3, #0]
 8002912:	f003 7300 	and.w	r3, r3, #33554432	; 0x2000000
 8002916:	2b00      	cmp	r3, #0
 8002918:	d1f0      	bne.n	80028fc <HAL_RCC_OscConfig+0x498>
 800291a:	e018      	b.n	800294e <HAL_RCC_OscConfig+0x4ea>
      }
    }
    else
    {
      /* Check if there is a request to disable the PLL used as System clock source */
      if ((RCC_OscInitStruct->PLL.PLLState) == RCC_PLL_OFF)
 800291c:	687b      	ldr	r3, [r7, #4]
 800291e:	69db      	ldr	r3, [r3, #28]
 8002920:	2b01      	cmp	r3, #1
 8002922:	d101      	bne.n	8002928 <HAL_RCC_OscConfig+0x4c4>
      {
        return HAL_ERROR;
 8002924:	2301      	movs	r3, #1
 8002926:	e013      	b.n	8002950 <HAL_RCC_OscConfig+0x4ec>
      }
      else
      {
        /* Do not return HAL_ERROR if request repeats the current configuration */
        pll_config = RCC->CFGR;
 8002928:	4b0b      	ldr	r3, [pc, #44]	; (8002958 <HAL_RCC_OscConfig+0x4f4>)
 800292a:	685b      	ldr	r3, [r3, #4]
 800292c:	60fb      	str	r3, [r7, #12]
        if ((READ_BIT(pll_config, RCC_CFGR_PLLSRC) != RCC_OscInitStruct->PLL.PLLSource) ||
 800292e:	68fb      	ldr	r3, [r7, #12]
 8002930:	f403 3280 	and.w	r2, r3, #65536	; 0x10000
 8002934:	687b      	ldr	r3, [r7, #4]
 8002936:	6a1b      	ldr	r3, [r3, #32]
 8002938:	429a      	cmp	r2, r3
 800293a:	d106      	bne.n	800294a <HAL_RCC_OscConfig+0x4e6>
            (READ_BIT(pll_config, RCC_CFGR_PLLMULL) != RCC_OscInitStruct->PLL.PLLMUL))
 800293c:	68fb      	ldr	r3, [r7, #12]
 800293e:	f403 1270 	and.w	r2, r3, #3932160	; 0x3c0000
 8002942:	687b      	ldr	r3, [r7, #4]
 8002944:	6a5b      	ldr	r3, [r3, #36]	; 0x24
        if ((READ_BIT(pll_config, RCC_CFGR_PLLSRC) != RCC_OscInitStruct->PLL.PLLSource) ||
 8002946:	429a      	cmp	r2, r3
 8002948:	d001      	beq.n	800294e <HAL_RCC_OscConfig+0x4ea>
        {
          return HAL_ERROR;
 800294a:	2301      	movs	r3, #1
 800294c:	e000      	b.n	8002950 <HAL_RCC_OscConfig+0x4ec>
        }
      }
    }
  }

  return HAL_OK;
 800294e:	2300      	movs	r3, #0
}
 8002950:	4618      	mov	r0, r3
 8002952:	3718      	adds	r7, #24
 8002954:	46bd      	mov	sp, r7
 8002956:	bd80      	pop	{r7, pc}
 8002958:	40021000 	.word	0x40021000
 800295c:	40007000 	.word	0x40007000
 8002960:	42420060 	.word	0x42420060

08002964 <HAL_RCC_ClockConfig>:
  *         You can use @ref HAL_RCC_GetClockConfig() function to know which clock is
  *         currently used as system clock source.
  * @retval HAL status
  */
HAL_StatusTypeDef HAL_RCC_ClockConfig(RCC_ClkInitTypeDef  *RCC_ClkInitStruct, uint32_t FLatency)
{
 8002964:	b580      	push	{r7, lr}
 8002966:	b084      	sub	sp, #16
 8002968:	af00      	add	r7, sp, #0
 800296a:	6078      	str	r0, [r7, #4]
 800296c:	6039      	str	r1, [r7, #0]
  uint32_t tickstart;

  /* Check Null pointer */
  if (RCC_ClkInitStruct == NULL)
 800296e:	687b      	ldr	r3, [r7, #4]
 8002970:	2b00      	cmp	r3, #0
 8002972:	d101      	bne.n	8002978 <HAL_RCC_ClockConfig+0x14>
  {
    return HAL_ERROR;
 8002974:	2301      	movs	r3, #1
 8002976:	e0d0      	b.n	8002b1a <HAL_RCC_ClockConfig+0x1b6>
  must be correctly programmed according to the frequency of the CPU clock
    (HCLK) of the device. */

#if defined(FLASH_ACR_LATENCY)
  /* Increasing the number of wait states because of higher CPU frequency */
  if (FLatency > __HAL_FLASH_GET_LATENCY())
 8002978:	4b6a      	ldr	r3, [pc, #424]	; (8002b24 <HAL_RCC_ClockConfig+0x1c0>)
 800297a:	681b      	ldr	r3, [r3, #0]
 800297c:	f003 0307 	and.w	r3, r3, #7
 8002980:	683a      	ldr	r2, [r7, #0]
 8002982:	429a      	cmp	r2, r3
 8002984:	d910      	bls.n	80029a8 <HAL_RCC_ClockConfig+0x44>
  {
    /* Program the new number of wait states to the LATENCY bits in the FLASH_ACR register */
    __HAL_FLASH_SET_LATENCY(FLatency);
 8002986:	4b67      	ldr	r3, [pc, #412]	; (8002b24 <HAL_RCC_ClockConfig+0x1c0>)
 8002988:	681b      	ldr	r3, [r3, #0]
 800298a:	f023 0207 	bic.w	r2, r3, #7
 800298e:	4965      	ldr	r1, [pc, #404]	; (8002b24 <HAL_RCC_ClockConfig+0x1c0>)
 8002990:	683b      	ldr	r3, [r7, #0]
 8002992:	4313      	orrs	r3, r2
 8002994:	600b      	str	r3, [r1, #0]

    /* Check that the new number of wait states is taken into account to access the Flash
    memory by reading the FLASH_ACR register */
    if (__HAL_FLASH_GET_LATENCY() != FLatency)
 8002996:	4b63      	ldr	r3, [pc, #396]	; (8002b24 <HAL_RCC_ClockConfig+0x1c0>)
 8002998:	681b      	ldr	r3, [r3, #0]
 800299a:	f003 0307 	and.w	r3, r3, #7
 800299e:	683a      	ldr	r2, [r7, #0]
 80029a0:	429a      	cmp	r2, r3
 80029a2:	d001      	beq.n	80029a8 <HAL_RCC_ClockConfig+0x44>
  {
    return HAL_ERROR;
 80029a4:	2301      	movs	r3, #1
 80029a6:	e0b8      	b.n	8002b1a <HAL_RCC_ClockConfig+0x1b6>
  }
}

#endif /* FLASH_ACR_LATENCY */
/*-------------------------- HCLK Configuration --------------------------*/
if (((RCC_ClkInitStruct->ClockType) & RCC_CLOCKTYPE_HCLK) == RCC_CLOCKTYPE_HCLK)
 80029a8:	687b      	ldr	r3, [r7, #4]
 80029aa:	681b      	ldr	r3, [r3, #0]
 80029ac:	f003 0302 	and.w	r3, r3, #2
 80029b0:	2b00      	cmp	r3, #0
 80029b2:	d020      	beq.n	80029f6 <HAL_RCC_ClockConfig+0x92>
  {
    /* Set the highest APBx dividers in order to ensure that we do not go through
    a non-spec phase whatever we decrease or increase HCLK. */
    if (((RCC_ClkInitStruct->ClockType) & RCC_CLOCKTYPE_PCLK1) == RCC_CLOCKTYPE_PCLK1)
 80029b4:	687b      	ldr	r3, [r7, #4]
 80029b6:	681b      	ldr	r3, [r3, #0]
 80029b8:	f003 0304 	and.w	r3, r3, #4
 80029bc:	2b00      	cmp	r3, #0
 80029be:	d005      	beq.n	80029cc <HAL_RCC_ClockConfig+0x68>
    {
      MODIFY_REG(RCC->CFGR, RCC_CFGR_PPRE1, RCC_HCLK_DIV16);
 80029c0:	4b59      	ldr	r3, [pc, #356]	; (8002b28 <HAL_RCC_ClockConfig+0x1c4>)
 80029c2:	685b      	ldr	r3, [r3, #4]
 80029c4:	4a58      	ldr	r2, [pc, #352]	; (8002b28 <HAL_RCC_ClockConfig+0x1c4>)
 80029c6:	f443 63e0 	orr.w	r3, r3, #1792	; 0x700
 80029ca:	6053      	str	r3, [r2, #4]
    }

    if (((RCC_ClkInitStruct->ClockType) & RCC_CLOCKTYPE_PCLK2) == RCC_CLOCKTYPE_PCLK2)
 80029cc:	687b      	ldr	r3, [r7, #4]
 80029ce:	681b      	ldr	r3, [r3, #0]
 80029d0:	f003 0308 	and.w	r3, r3, #8
 80029d4:	2b00      	cmp	r3, #0
 80029d6:	d005      	beq.n	80029e4 <HAL_RCC_ClockConfig+0x80>
    {
      MODIFY_REG(RCC->CFGR, RCC_CFGR_PPRE2, (RCC_HCLK_DIV16 << 3));
 80029d8:	4b53      	ldr	r3, [pc, #332]	; (8002b28 <HAL_RCC_ClockConfig+0x1c4>)
 80029da:	685b      	ldr	r3, [r3, #4]
 80029dc:	4a52      	ldr	r2, [pc, #328]	; (8002b28 <HAL_RCC_ClockConfig+0x1c4>)
 80029de:	f443 5360 	orr.w	r3, r3, #14336	; 0x3800
 80029e2:	6053      	str	r3, [r2, #4]
    }

    /* Set the new HCLK clock divider */
    assert_param(IS_RCC_HCLK(RCC_ClkInitStruct->AHBCLKDivider));
    MODIFY_REG(RCC->CFGR, RCC_CFGR_HPRE, RCC_ClkInitStruct->AHBCLKDivider);
 80029e4:	4b50      	ldr	r3, [pc, #320]	; (8002b28 <HAL_RCC_ClockConfig+0x1c4>)
 80029e6:	685b      	ldr	r3, [r3, #4]
 80029e8:	f023 02f0 	bic.w	r2, r3, #240	; 0xf0
 80029ec:	687b      	ldr	r3, [r7, #4]
 80029ee:	689b      	ldr	r3, [r3, #8]
 80029f0:	494d      	ldr	r1, [pc, #308]	; (8002b28 <HAL_RCC_ClockConfig+0x1c4>)
 80029f2:	4313      	orrs	r3, r2
 80029f4:	604b      	str	r3, [r1, #4]
  }

  /*------------------------- SYSCLK Configuration ---------------------------*/
  if (((RCC_ClkInitStruct->ClockType) & RCC_CLOCKTYPE_SYSCLK) == RCC_CLOCKTYPE_SYSCLK)
 80029f6:	687b      	ldr	r3, [r7, #4]
 80029f8:	681b      	ldr	r3, [r3, #0]
 80029fa:	f003 0301 	and.w	r3, r3, #1
 80029fe:	2b00      	cmp	r3, #0
 8002a00:	d040      	beq.n	8002a84 <HAL_RCC_ClockConfig+0x120>
  {
    assert_param(IS_RCC_SYSCLKSOURCE(RCC_ClkInitStruct->SYSCLKSource));

    /* HSE is selected as System Clock Source */
    if (RCC_ClkInitStruct->SYSCLKSource == RCC_SYSCLKSOURCE_HSE)
 8002a02:	687b      	ldr	r3, [r7, #4]
 8002a04:	685b      	ldr	r3, [r3, #4]
 8002a06:	2b01      	cmp	r3, #1
 8002a08:	d107      	bne.n	8002a1a <HAL_RCC_ClockConfig+0xb6>
    {
      /* Check the HSE ready flag */
      if (__HAL_RCC_GET_FLAG(RCC_FLAG_HSERDY) == RESET)
 8002a0a:	4b47      	ldr	r3, [pc, #284]	; (8002b28 <HAL_RCC_ClockConfig+0x1c4>)
 8002a0c:	681b      	ldr	r3, [r3, #0]
 8002a0e:	f403 3300 	and.w	r3, r3, #131072	; 0x20000
 8002a12:	2b00      	cmp	r3, #0
 8002a14:	d115      	bne.n	8002a42 <HAL_RCC_ClockConfig+0xde>
      {
        return HAL_ERROR;
 8002a16:	2301      	movs	r3, #1
 8002a18:	e07f      	b.n	8002b1a <HAL_RCC_ClockConfig+0x1b6>
      }
    }
    /* PLL is selected as System Clock Source */
    else if (RCC_ClkInitStruct->SYSCLKSource == RCC_SYSCLKSOURCE_PLLCLK)
 8002a1a:	687b      	ldr	r3, [r7, #4]
 8002a1c:	685b      	ldr	r3, [r3, #4]
 8002a1e:	2b02      	cmp	r3, #2
 8002a20:	d107      	bne.n	8002a32 <HAL_RCC_ClockConfig+0xce>
    {
      /* Check the PLL ready flag */
      if (__HAL_RCC_GET_FLAG(RCC_FLAG_PLLRDY) == RESET)
 8002a22:	4b41      	ldr	r3, [pc, #260]	; (8002b28 <HAL_RCC_ClockConfig+0x1c4>)
 8002a24:	681b      	ldr	r3, [r3, #0]
 8002a26:	f003 7300 	and.w	r3, r3, #33554432	; 0x2000000
 8002a2a:	2b00      	cmp	r3, #0
 8002a2c:	d109      	bne.n	8002a42 <HAL_RCC_ClockConfig+0xde>
      {
        return HAL_ERROR;
 8002a2e:	2301      	movs	r3, #1
 8002a30:	e073      	b.n	8002b1a <HAL_RCC_ClockConfig+0x1b6>
    }
    /* HSI is selected as System Clock Source */
    else
    {
      /* Check the HSI ready flag */
      if (__HAL_RCC_GET_FLAG(RCC_FLAG_HSIRDY) == RESET)
 8002a32:	4b3d      	ldr	r3, [pc, #244]	; (8002b28 <HAL_RCC_ClockConfig+0x1c4>)
 8002a34:	681b      	ldr	r3, [r3, #0]
 8002a36:	f003 0302 	and.w	r3, r3, #2
 8002a3a:	2b00      	cmp	r3, #0
 8002a3c:	d101      	bne.n	8002a42 <HAL_RCC_ClockConfig+0xde>
      {
        return HAL_ERROR;
 8002a3e:	2301      	movs	r3, #1
 8002a40:	e06b      	b.n	8002b1a <HAL_RCC_ClockConfig+0x1b6>
      }
    }
    __HAL_RCC_SYSCLK_CONFIG(RCC_ClkInitStruct->SYSCLKSource);
 8002a42:	4b39      	ldr	r3, [pc, #228]	; (8002b28 <HAL_RCC_ClockConfig+0x1c4>)
 8002a44:	685b      	ldr	r3, [r3, #4]
 8002a46:	f023 0203 	bic.w	r2, r3, #3
 8002a4a:	687b      	ldr	r3, [r7, #4]
 8002a4c:	685b      	ldr	r3, [r3, #4]
 8002a4e:	4936      	ldr	r1, [pc, #216]	; (8002b28 <HAL_RCC_ClockConfig+0x1c4>)
 8002a50:	4313      	orrs	r3, r2
 8002a52:	604b      	str	r3, [r1, #4]

    /* Get Start Tick */
    tickstart = HAL_GetTick();
 8002a54:	f7ff f82c 	bl	8001ab0 <HAL_GetTick>
 8002a58:	60f8      	str	r0, [r7, #12]

    while (__HAL_RCC_GET_SYSCLK_SOURCE() != (RCC_ClkInitStruct->SYSCLKSource << RCC_CFGR_SWS_Pos))
 8002a5a:	e00a      	b.n	8002a72 <HAL_RCC_ClockConfig+0x10e>
    {
      if ((HAL_GetTick() - tickstart) > CLOCKSWITCH_TIMEOUT_VALUE)
 8002a5c:	f7ff f828 	bl	8001ab0 <HAL_GetTick>
 8002a60:	4602      	mov	r2, r0
 8002a62:	68fb      	ldr	r3, [r7, #12]
 8002a64:	1ad3      	subs	r3, r2, r3
 8002a66:	f241 3288 	movw	r2, #5000	; 0x1388
 8002a6a:	4293      	cmp	r3, r2
 8002a6c:	d901      	bls.n	8002a72 <HAL_RCC_ClockConfig+0x10e>
      {
        return HAL_TIMEOUT;
 8002a6e:	2303      	movs	r3, #3
 8002a70:	e053      	b.n	8002b1a <HAL_RCC_ClockConfig+0x1b6>
    while (__HAL_RCC_GET_SYSCLK_SOURCE() != (RCC_ClkInitStruct->SYSCLKSource << RCC_CFGR_SWS_Pos))
 8002a72:	4b2d      	ldr	r3, [pc, #180]	; (8002b28 <HAL_RCC_ClockConfig+0x1c4>)
 8002a74:	685b      	ldr	r3, [r3, #4]
 8002a76:	f003 020c 	and.w	r2, r3, #12
 8002a7a:	687b      	ldr	r3, [r7, #4]
 8002a7c:	685b      	ldr	r3, [r3, #4]
 8002a7e:	009b      	lsls	r3, r3, #2
 8002a80:	429a      	cmp	r2, r3
 8002a82:	d1eb      	bne.n	8002a5c <HAL_RCC_ClockConfig+0xf8>
    }
  }

#if defined(FLASH_ACR_LATENCY)
  /* Decreasing the number of wait states because of lower CPU frequency */
  if (FLatency < __HAL_FLASH_GET_LATENCY())
 8002a84:	4b27      	ldr	r3, [pc, #156]	; (8002b24 <HAL_RCC_ClockConfig+0x1c0>)
 8002a86:	681b      	ldr	r3, [r3, #0]
 8002a88:	f003 0307 	and.w	r3, r3, #7
 8002a8c:	683a      	ldr	r2, [r7, #0]
 8002a8e:	429a      	cmp	r2, r3
 8002a90:	d210      	bcs.n	8002ab4 <HAL_RCC_ClockConfig+0x150>
  {
    /* Program the new number of wait states to the LATENCY bits in the FLASH_ACR register */
    __HAL_FLASH_SET_LATENCY(FLatency);
 8002a92:	4b24      	ldr	r3, [pc, #144]	; (8002b24 <HAL_RCC_ClockConfig+0x1c0>)
 8002a94:	681b      	ldr	r3, [r3, #0]
 8002a96:	f023 0207 	bic.w	r2, r3, #7
 8002a9a:	4922      	ldr	r1, [pc, #136]	; (8002b24 <HAL_RCC_ClockConfig+0x1c0>)
 8002a9c:	683b      	ldr	r3, [r7, #0]
 8002a9e:	4313      	orrs	r3, r2
 8002aa0:	600b      	str	r3, [r1, #0]

    /* Check that the new number of wait states is taken into account to access the Flash
    memory by reading the FLASH_ACR register */
    if (__HAL_FLASH_GET_LATENCY() != FLatency)
 8002aa2:	4b20      	ldr	r3, [pc, #128]	; (8002b24 <HAL_RCC_ClockConfig+0x1c0>)
 8002aa4:	681b      	ldr	r3, [r3, #0]
 8002aa6:	f003 0307 	and.w	r3, r3, #7
 8002aaa:	683a      	ldr	r2, [r7, #0]
 8002aac:	429a      	cmp	r2, r3
 8002aae:	d001      	beq.n	8002ab4 <HAL_RCC_ClockConfig+0x150>
  {
    return HAL_ERROR;
 8002ab0:	2301      	movs	r3, #1
 8002ab2:	e032      	b.n	8002b1a <HAL_RCC_ClockConfig+0x1b6>
  }
}
#endif /* FLASH_ACR_LATENCY */

/*-------------------------- PCLK1 Configuration ---------------------------*/
if (((RCC_ClkInitStruct->ClockType) & RCC_CLOCKTYPE_PCLK1) == RCC_CLOCKTYPE_PCLK1)
 8002ab4:	687b      	ldr	r3, [r7, #4]
 8002ab6:	681b      	ldr	r3, [r3, #0]
 8002ab8:	f003 0304 	and.w	r3, r3, #4
 8002abc:	2b00      	cmp	r3, #0
 8002abe:	d008      	beq.n	8002ad2 <HAL_RCC_ClockConfig+0x16e>
  {
    assert_param(IS_RCC_PCLK(RCC_ClkInitStruct->APB1CLKDivider));
    MODIFY_REG(RCC->CFGR, RCC_CFGR_PPRE1, RCC_ClkInitStruct->APB1CLKDivider);
 8002ac0:	4b19      	ldr	r3, [pc, #100]	; (8002b28 <HAL_RCC_ClockConfig+0x1c4>)
 8002ac2:	685b      	ldr	r3, [r3, #4]
 8002ac4:	f423 62e0 	bic.w	r2, r3, #1792	; 0x700
 8002ac8:	687b      	ldr	r3, [r7, #4]
 8002aca:	68db      	ldr	r3, [r3, #12]
 8002acc:	4916      	ldr	r1, [pc, #88]	; (8002b28 <HAL_RCC_ClockConfig+0x1c4>)
 8002ace:	4313      	orrs	r3, r2
 8002ad0:	604b      	str	r3, [r1, #4]
  }

  /*-------------------------- PCLK2 Configuration ---------------------------*/
  if (((RCC_ClkInitStruct->ClockType) & RCC_CLOCKTYPE_PCLK2) == RCC_CLOCKTYPE_PCLK2)
 8002ad2:	687b      	ldr	r3, [r7, #4]
 8002ad4:	681b      	ldr	r3, [r3, #0]
 8002ad6:	f003 0308 	and.w	r3, r3, #8
 8002ada:	2b00      	cmp	r3, #0
 8002adc:	d009      	beq.n	8002af2 <HAL_RCC_ClockConfig+0x18e>
  {
    assert_param(IS_RCC_PCLK(RCC_ClkInitStruct->APB2CLKDivider));
    MODIFY_REG(RCC->CFGR, RCC_CFGR_PPRE2, ((RCC_ClkInitStruct->APB2CLKDivider) << 3));
 8002ade:	4b12      	ldr	r3, [pc, #72]	; (8002b28 <HAL_RCC_ClockConfig+0x1c4>)
 8002ae0:	685b      	ldr	r3, [r3, #4]
 8002ae2:	f423 5260 	bic.w	r2, r3, #14336	; 0x3800
 8002ae6:	687b      	ldr	r3, [r7, #4]
 8002ae8:	691b      	ldr	r3, [r3, #16]
 8002aea:	00db      	lsls	r3, r3, #3
 8002aec:	490e      	ldr	r1, [pc, #56]	; (8002b28 <HAL_RCC_ClockConfig+0x1c4>)
 8002aee:	4313      	orrs	r3, r2
 8002af0:	604b      	str	r3, [r1, #4]
  }

  /* Update the SystemCoreClock global variable */
  SystemCoreClock = HAL_RCC_GetSysClockFreq() >> AHBPrescTable[(RCC->CFGR & RCC_CFGR_HPRE) >> RCC_CFGR_HPRE_Pos];
 8002af2:	f000 f821 	bl	8002b38 <HAL_RCC_GetSysClockFreq>
 8002af6:	4601      	mov	r1, r0
 8002af8:	4b0b      	ldr	r3, [pc, #44]	; (8002b28 <HAL_RCC_ClockConfig+0x1c4>)
 8002afa:	685b      	ldr	r3, [r3, #4]
 8002afc:	091b      	lsrs	r3, r3, #4
 8002afe:	f003 030f 	and.w	r3, r3, #15
 8002b02:	4a0a      	ldr	r2, [pc, #40]	; (8002b2c <HAL_RCC_ClockConfig+0x1c8>)
 8002b04:	5cd3      	ldrb	r3, [r2, r3]
 8002b06:	fa21 f303 	lsr.w	r3, r1, r3
 8002b0a:	4a09      	ldr	r2, [pc, #36]	; (8002b30 <HAL_RCC_ClockConfig+0x1cc>)
 8002b0c:	6013      	str	r3, [r2, #0]

  /* Configure the source of time base considering new system clocks settings*/
  HAL_InitTick(uwTickPrio);
 8002b0e:	4b09      	ldr	r3, [pc, #36]	; (8002b34 <HAL_RCC_ClockConfig+0x1d0>)
 8002b10:	681b      	ldr	r3, [r3, #0]
 8002b12:	4618      	mov	r0, r3
 8002b14:	f7fe ff8a 	bl	8001a2c <HAL_InitTick>

  return HAL_OK;
 8002b18:	2300      	movs	r3, #0
}
 8002b1a:	4618      	mov	r0, r3
 8002b1c:	3710      	adds	r7, #16
 8002b1e:	46bd      	mov	sp, r7
 8002b20:	bd80      	pop	{r7, pc}
 8002b22:	bf00      	nop
 8002b24:	40022000 	.word	0x40022000
 8002b28:	40021000 	.word	0x40021000
 8002b2c:	08005360 	.word	0x08005360
 8002b30:	20000078 	.word	0x20000078
 8002b34:	2000007c 	.word	0x2000007c

08002b38 <HAL_RCC_GetSysClockFreq>:
  *         right SYSCLK value. Otherwise, any configuration based on this function will be incorrect.
  *
  * @retval SYSCLK frequency
  */
uint32_t HAL_RCC_GetSysClockFreq(void)
{
 8002b38:	b490      	push	{r4, r7}
 8002b3a:	b08a      	sub	sp, #40	; 0x28
 8002b3c:	af00      	add	r7, sp, #0
#if defined(RCC_CFGR2_PREDIV1SRC)
  const uint8_t aPLLMULFactorTable[14] = {0, 0, 4, 5, 6, 7, 8, 9, 0, 0, 0, 0, 0, 13};
  const uint8_t aPredivFactorTable[16] = {1, 2, 3, 4, 5, 6, 7, 8, 9, 10, 11, 12, 13, 14, 15, 16};
#else
  const uint8_t aPLLMULFactorTable[16] = {2, 3, 4, 5, 6, 7, 8, 9, 10, 11, 12, 13, 14, 15, 16, 16};
 8002b3e:	4b2a      	ldr	r3, [pc, #168]	; (8002be8 <HAL_RCC_GetSysClockFreq+0xb0>)
 8002b40:	1d3c      	adds	r4, r7, #4
 8002b42:	cb0f      	ldmia	r3, {r0, r1, r2, r3}
 8002b44:	e884 000f 	stmia.w	r4, {r0, r1, r2, r3}
#if defined(RCC_CFGR2_PREDIV1)
  const uint8_t aPredivFactorTable[16] = {1, 2, 3, 4, 5, 6, 7, 8, 9, 10, 11, 12, 13, 14, 15, 16};
#else
  const uint8_t aPredivFactorTable[2] = {1, 2};
 8002b48:	4b28      	ldr	r3, [pc, #160]	; (8002bec <HAL_RCC_GetSysClockFreq+0xb4>)
 8002b4a:	881b      	ldrh	r3, [r3, #0]
 8002b4c:	803b      	strh	r3, [r7, #0]
#endif /*RCC_CFGR2_PREDIV1*/

#endif
  uint32_t tmpreg = 0U, prediv = 0U, pllclk = 0U, pllmul = 0U;
 8002b4e:	2300      	movs	r3, #0
 8002b50:	61fb      	str	r3, [r7, #28]
 8002b52:	2300      	movs	r3, #0
 8002b54:	61bb      	str	r3, [r7, #24]
 8002b56:	2300      	movs	r3, #0
 8002b58:	627b      	str	r3, [r7, #36]	; 0x24
 8002b5a:	2300      	movs	r3, #0
 8002b5c:	617b      	str	r3, [r7, #20]
  uint32_t sysclockfreq = 0U;
 8002b5e:	2300      	movs	r3, #0
 8002b60:	623b      	str	r3, [r7, #32]
#if defined(RCC_CFGR2_PREDIV1SRC)
  uint32_t prediv2 = 0U, pll2mul = 0U;
#endif /*RCC_CFGR2_PREDIV1SRC*/

  tmpreg = RCC->CFGR;
 8002b62:	4b23      	ldr	r3, [pc, #140]	; (8002bf0 <HAL_RCC_GetSysClockFreq+0xb8>)
 8002b64:	685b      	ldr	r3, [r3, #4]
 8002b66:	61fb      	str	r3, [r7, #28]

  /* Get SYSCLK source -------------------------------------------------------*/
  switch (tmpreg & RCC_CFGR_SWS)
 8002b68:	69fb      	ldr	r3, [r7, #28]
 8002b6a:	f003 030c 	and.w	r3, r3, #12
 8002b6e:	2b04      	cmp	r3, #4
 8002b70:	d002      	beq.n	8002b78 <HAL_RCC_GetSysClockFreq+0x40>
 8002b72:	2b08      	cmp	r3, #8
 8002b74:	d003      	beq.n	8002b7e <HAL_RCC_GetSysClockFreq+0x46>
 8002b76:	e02d      	b.n	8002bd4 <HAL_RCC_GetSysClockFreq+0x9c>
  {
    case RCC_SYSCLKSOURCE_STATUS_HSE:  /* HSE used as system clock */
    {
      sysclockfreq = HSE_VALUE;
 8002b78:	4b1e      	ldr	r3, [pc, #120]	; (8002bf4 <HAL_RCC_GetSysClockFreq+0xbc>)
 8002b7a:	623b      	str	r3, [r7, #32]
      break;
 8002b7c:	e02d      	b.n	8002bda <HAL_RCC_GetSysClockFreq+0xa2>
    }
    case RCC_SYSCLKSOURCE_STATUS_PLLCLK:  /* PLL used as system clock */
    {
      pllmul = aPLLMULFactorTable[(uint32_t)(tmpreg & RCC_CFGR_PLLMULL) >> RCC_CFGR_PLLMULL_Pos];
 8002b7e:	69fb      	ldr	r3, [r7, #28]
 8002b80:	0c9b      	lsrs	r3, r3, #18
 8002b82:	f003 030f 	and.w	r3, r3, #15
 8002b86:	f107 0228 	add.w	r2, r7, #40	; 0x28
 8002b8a:	4413      	add	r3, r2
 8002b8c:	f813 3c24 	ldrb.w	r3, [r3, #-36]
 8002b90:	617b      	str	r3, [r7, #20]
      if ((tmpreg & RCC_CFGR_PLLSRC) != RCC_PLLSOURCE_HSI_DIV2)
 8002b92:	69fb      	ldr	r3, [r7, #28]
 8002b94:	f403 3380 	and.w	r3, r3, #65536	; 0x10000
 8002b98:	2b00      	cmp	r3, #0
 8002b9a:	d013      	beq.n	8002bc4 <HAL_RCC_GetSysClockFreq+0x8c>
      {
#if defined(RCC_CFGR2_PREDIV1)
        prediv = aPredivFactorTable[(uint32_t)(RCC->CFGR2 & RCC_CFGR2_PREDIV1) >> RCC_CFGR2_PREDIV1_Pos];
#else
        prediv = aPredivFactorTable[(uint32_t)(RCC->CFGR & RCC_CFGR_PLLXTPRE) >> RCC_CFGR_PLLXTPRE_Pos];
 8002b9c:	4b14      	ldr	r3, [pc, #80]	; (8002bf0 <HAL_RCC_GetSysClockFreq+0xb8>)
 8002b9e:	685b      	ldr	r3, [r3, #4]
 8002ba0:	0c5b      	lsrs	r3, r3, #17
 8002ba2:	f003 0301 	and.w	r3, r3, #1
 8002ba6:	f107 0228 	add.w	r2, r7, #40	; 0x28
 8002baa:	4413      	add	r3, r2
 8002bac:	f813 3c28 	ldrb.w	r3, [r3, #-40]
 8002bb0:	61bb      	str	r3, [r7, #24]
        {
          pllclk = pllclk / 2;
        }
#else
        /* HSE used as PLL clock source : PLLCLK = HSE/PREDIV1 * PLLMUL */
        pllclk = (uint32_t)((HSE_VALUE  * pllmul) / prediv);
 8002bb2:	697b      	ldr	r3, [r7, #20]
 8002bb4:	4a0f      	ldr	r2, [pc, #60]	; (8002bf4 <HAL_RCC_GetSysClockFreq+0xbc>)
 8002bb6:	fb02 f203 	mul.w	r2, r2, r3
 8002bba:	69bb      	ldr	r3, [r7, #24]
 8002bbc:	fbb2 f3f3 	udiv	r3, r2, r3
 8002bc0:	627b      	str	r3, [r7, #36]	; 0x24
 8002bc2:	e004      	b.n	8002bce <HAL_RCC_GetSysClockFreq+0x96>
#endif /*RCC_CFGR2_PREDIV1SRC*/
      }
      else
      {
        /* HSI used as PLL clock source : PLLCLK = HSI/2 * PLLMUL */
        pllclk = (uint32_t)((HSI_VALUE >> 1) * pllmul);
 8002bc4:	697b      	ldr	r3, [r7, #20]
 8002bc6:	4a0c      	ldr	r2, [pc, #48]	; (8002bf8 <HAL_RCC_GetSysClockFreq+0xc0>)
 8002bc8:	fb02 f303 	mul.w	r3, r2, r3
 8002bcc:	627b      	str	r3, [r7, #36]	; 0x24
      }
      sysclockfreq = pllclk;
 8002bce:	6a7b      	ldr	r3, [r7, #36]	; 0x24
 8002bd0:	623b      	str	r3, [r7, #32]
      break;
 8002bd2:	e002      	b.n	8002bda <HAL_RCC_GetSysClockFreq+0xa2>
    }
    case RCC_SYSCLKSOURCE_STATUS_HSI:  /* HSI used as system clock source */
    default: /* HSI used as system clock */
    {
      sysclockfreq = HSI_VALUE;
 8002bd4:	4b07      	ldr	r3, [pc, #28]	; (8002bf4 <HAL_RCC_GetSysClockFreq+0xbc>)
 8002bd6:	623b      	str	r3, [r7, #32]
      break;
 8002bd8:	bf00      	nop
    }
  }
  return sysclockfreq;
 8002bda:	6a3b      	ldr	r3, [r7, #32]
}
 8002bdc:	4618      	mov	r0, r3
 8002bde:	3728      	adds	r7, #40	; 0x28
 8002be0:	46bd      	mov	sp, r7
 8002be2:	bc90      	pop	{r4, r7}
 8002be4:	4770      	bx	lr
 8002be6:	bf00      	nop
 8002be8:	08005338 	.word	0x08005338
 8002bec:	08005348 	.word	0x08005348
 8002bf0:	40021000 	.word	0x40021000
 8002bf4:	007a1200 	.word	0x007a1200
 8002bf8:	003d0900 	.word	0x003d0900

08002bfc <HAL_RCC_GetHCLKFreq>:
  * @note   The SystemCoreClock CMSIS variable is used to store System Clock Frequency
  *         and updated within this function
  * @retval HCLK frequency
  */
uint32_t HAL_RCC_GetHCLKFreq(void)
{
 8002bfc:	b480      	push	{r7}
 8002bfe:	af00      	add	r7, sp, #0
  return SystemCoreClock;
 8002c00:	4b02      	ldr	r3, [pc, #8]	; (8002c0c <HAL_RCC_GetHCLKFreq+0x10>)
 8002c02:	681b      	ldr	r3, [r3, #0]
}
 8002c04:	4618      	mov	r0, r3
 8002c06:	46bd      	mov	sp, r7
 8002c08:	bc80      	pop	{r7}
 8002c0a:	4770      	bx	lr
 8002c0c:	20000078 	.word	0x20000078

08002c10 <HAL_RCC_GetPCLK1Freq>:
  * @note   Each time PCLK1 changes, this function must be called to update the
  *         right PCLK1 value. Otherwise, any configuration based on this function will be incorrect.
  * @retval PCLK1 frequency
  */
uint32_t HAL_RCC_GetPCLK1Freq(void)
{
 8002c10:	b580      	push	{r7, lr}
 8002c12:	af00      	add	r7, sp, #0
  /* Get HCLK source and Compute PCLK1 frequency ---------------------------*/
  return (HAL_RCC_GetHCLKFreq() >> APBPrescTable[(RCC->CFGR & RCC_CFGR_PPRE1) >> RCC_CFGR_PPRE1_Pos]);
 8002c14:	f7ff fff2 	bl	8002bfc <HAL_RCC_GetHCLKFreq>
 8002c18:	4601      	mov	r1, r0
 8002c1a:	4b05      	ldr	r3, [pc, #20]	; (8002c30 <HAL_RCC_GetPCLK1Freq+0x20>)
 8002c1c:	685b      	ldr	r3, [r3, #4]
 8002c1e:	0a1b      	lsrs	r3, r3, #8
 8002c20:	f003 0307 	and.w	r3, r3, #7
 8002c24:	4a03      	ldr	r2, [pc, #12]	; (8002c34 <HAL_RCC_GetPCLK1Freq+0x24>)
 8002c26:	5cd3      	ldrb	r3, [r2, r3]
 8002c28:	fa21 f303 	lsr.w	r3, r1, r3
}
 8002c2c:	4618      	mov	r0, r3
 8002c2e:	bd80      	pop	{r7, pc}
 8002c30:	40021000 	.word	0x40021000
 8002c34:	08005370 	.word	0x08005370

08002c38 <HAL_RCC_GetPCLK2Freq>:
  * @note   Each time PCLK2 changes, this function must be called to update the
  *         right PCLK2 value. Otherwise, any configuration based on this function will be incorrect.
  * @retval PCLK2 frequency
  */
uint32_t HAL_RCC_GetPCLK2Freq(void)
{
 8002c38:	b580      	push	{r7, lr}
 8002c3a:	af00      	add	r7, sp, #0
  /* Get HCLK source and Compute PCLK2 frequency ---------------------------*/
  return (HAL_RCC_GetHCLKFreq() >> APBPrescTable[(RCC->CFGR & RCC_CFGR_PPRE2) >> RCC_CFGR_PPRE2_Pos]);
 8002c3c:	f7ff ffde 	bl	8002bfc <HAL_RCC_GetHCLKFreq>
 8002c40:	4601      	mov	r1, r0
 8002c42:	4b05      	ldr	r3, [pc, #20]	; (8002c58 <HAL_RCC_GetPCLK2Freq+0x20>)
 8002c44:	685b      	ldr	r3, [r3, #4]
 8002c46:	0adb      	lsrs	r3, r3, #11
 8002c48:	f003 0307 	and.w	r3, r3, #7
 8002c4c:	4a03      	ldr	r2, [pc, #12]	; (8002c5c <HAL_RCC_GetPCLK2Freq+0x24>)
 8002c4e:	5cd3      	ldrb	r3, [r2, r3]
 8002c50:	fa21 f303 	lsr.w	r3, r1, r3
}
 8002c54:	4618      	mov	r0, r3
 8002c56:	bd80      	pop	{r7, pc}
 8002c58:	40021000 	.word	0x40021000
 8002c5c:	08005370 	.word	0x08005370

08002c60 <RCC_Delay>:
  * @brief  This function provides delay (in milliseconds) based on CPU cycles method.
  * @param  mdelay: specifies the delay time length, in milliseconds.
  * @retval None
  */
static void RCC_Delay(uint32_t mdelay)
{
 8002c60:	b480      	push	{r7}
 8002c62:	b085      	sub	sp, #20
 8002c64:	af00      	add	r7, sp, #0
 8002c66:	6078      	str	r0, [r7, #4]
  __IO uint32_t Delay = mdelay * (SystemCoreClock / 8U / 1000U);
 8002c68:	4b0a      	ldr	r3, [pc, #40]	; (8002c94 <RCC_Delay+0x34>)
 8002c6a:	681b      	ldr	r3, [r3, #0]
 8002c6c:	4a0a      	ldr	r2, [pc, #40]	; (8002c98 <RCC_Delay+0x38>)
 8002c6e:	fba2 2303 	umull	r2, r3, r2, r3
 8002c72:	0a5b      	lsrs	r3, r3, #9
 8002c74:	687a      	ldr	r2, [r7, #4]
 8002c76:	fb02 f303 	mul.w	r3, r2, r3
 8002c7a:	60fb      	str	r3, [r7, #12]
  do
  {
    __NOP();
 8002c7c:	bf00      	nop
  }
  while (Delay --);
 8002c7e:	68fb      	ldr	r3, [r7, #12]
 8002c80:	1e5a      	subs	r2, r3, #1
 8002c82:	60fa      	str	r2, [r7, #12]
 8002c84:	2b00      	cmp	r3, #0
 8002c86:	d1f9      	bne.n	8002c7c <RCC_Delay+0x1c>
}
 8002c88:	bf00      	nop
 8002c8a:	3714      	adds	r7, #20
 8002c8c:	46bd      	mov	sp, r7
 8002c8e:	bc80      	pop	{r7}
 8002c90:	4770      	bx	lr
 8002c92:	bf00      	nop
 8002c94:	20000078 	.word	0x20000078
 8002c98:	10624dd3 	.word	0x10624dd3

08002c9c <HAL_RCCEx_PeriphCLKConfig>:
  *         manually disable it.
  *
  * @retval HAL status
  */
HAL_StatusTypeDef HAL_RCCEx_PeriphCLKConfig(RCC_PeriphCLKInitTypeDef  *PeriphClkInit)
{
 8002c9c:	b580      	push	{r7, lr}
 8002c9e:	b086      	sub	sp, #24
 8002ca0:	af00      	add	r7, sp, #0
 8002ca2:	6078      	str	r0, [r7, #4]
  uint32_t tickstart = 0U, temp_reg = 0U;
 8002ca4:	2300      	movs	r3, #0
 8002ca6:	613b      	str	r3, [r7, #16]
 8002ca8:	2300      	movs	r3, #0
 8002caa:	60fb      	str	r3, [r7, #12]

  /* Check the parameters */
  assert_param(IS_RCC_PERIPHCLOCK(PeriphClkInit->PeriphClockSelection));

  /*------------------------------- RTC/LCD Configuration ------------------------*/
  if ((((PeriphClkInit->PeriphClockSelection) & RCC_PERIPHCLK_RTC) == RCC_PERIPHCLK_RTC))
 8002cac:	687b      	ldr	r3, [r7, #4]
 8002cae:	681b      	ldr	r3, [r3, #0]
 8002cb0:	f003 0301 	and.w	r3, r3, #1
 8002cb4:	2b00      	cmp	r3, #0
 8002cb6:	d07d      	beq.n	8002db4 <HAL_RCCEx_PeriphCLKConfig+0x118>
  {
    /* check for RTC Parameters used to output RTCCLK */
    assert_param(IS_RCC_RTCCLKSOURCE(PeriphClkInit->RTCClockSelection));

    FlagStatus       pwrclkchanged = RESET;
 8002cb8:	2300      	movs	r3, #0
 8002cba:	75fb      	strb	r3, [r7, #23]

    /* As soon as function is called to change RTC clock source, activation of the
       power domain is done. */
    /* Requires to enable write access to Backup Domain of necessary */
    if (__HAL_RCC_PWR_IS_CLK_DISABLED())
 8002cbc:	4b4f      	ldr	r3, [pc, #316]	; (8002dfc <HAL_RCCEx_PeriphCLKConfig+0x160>)
 8002cbe:	69db      	ldr	r3, [r3, #28]
 8002cc0:	f003 5380 	and.w	r3, r3, #268435456	; 0x10000000
 8002cc4:	2b00      	cmp	r3, #0
 8002cc6:	d10d      	bne.n	8002ce4 <HAL_RCCEx_PeriphCLKConfig+0x48>
    {
      __HAL_RCC_PWR_CLK_ENABLE();
 8002cc8:	4b4c      	ldr	r3, [pc, #304]	; (8002dfc <HAL_RCCEx_PeriphCLKConfig+0x160>)
 8002cca:	69db      	ldr	r3, [r3, #28]
 8002ccc:	4a4b      	ldr	r2, [pc, #300]	; (8002dfc <HAL_RCCEx_PeriphCLKConfig+0x160>)
 8002cce:	f043 5380 	orr.w	r3, r3, #268435456	; 0x10000000
 8002cd2:	61d3      	str	r3, [r2, #28]
 8002cd4:	4b49      	ldr	r3, [pc, #292]	; (8002dfc <HAL_RCCEx_PeriphCLKConfig+0x160>)
 8002cd6:	69db      	ldr	r3, [r3, #28]
 8002cd8:	f003 5380 	and.w	r3, r3, #268435456	; 0x10000000
 8002cdc:	60bb      	str	r3, [r7, #8]
 8002cde:	68bb      	ldr	r3, [r7, #8]
      pwrclkchanged = SET;
 8002ce0:	2301      	movs	r3, #1
 8002ce2:	75fb      	strb	r3, [r7, #23]
    }

    if (HAL_IS_BIT_CLR(PWR->CR, PWR_CR_DBP))
 8002ce4:	4b46      	ldr	r3, [pc, #280]	; (8002e00 <HAL_RCCEx_PeriphCLKConfig+0x164>)
 8002ce6:	681b      	ldr	r3, [r3, #0]
 8002ce8:	f403 7380 	and.w	r3, r3, #256	; 0x100
 8002cec:	2b00      	cmp	r3, #0
 8002cee:	d118      	bne.n	8002d22 <HAL_RCCEx_PeriphCLKConfig+0x86>
    {
      /* Enable write access to Backup domain */
      SET_BIT(PWR->CR, PWR_CR_DBP);
 8002cf0:	4b43      	ldr	r3, [pc, #268]	; (8002e00 <HAL_RCCEx_PeriphCLKConfig+0x164>)
 8002cf2:	681b      	ldr	r3, [r3, #0]
 8002cf4:	4a42      	ldr	r2, [pc, #264]	; (8002e00 <HAL_RCCEx_PeriphCLKConfig+0x164>)
 8002cf6:	f443 7380 	orr.w	r3, r3, #256	; 0x100
 8002cfa:	6013      	str	r3, [r2, #0]

      /* Wait for Backup domain Write protection disable */
      tickstart = HAL_GetTick();
 8002cfc:	f7fe fed8 	bl	8001ab0 <HAL_GetTick>
 8002d00:	6138      	str	r0, [r7, #16]

      while (HAL_IS_BIT_CLR(PWR->CR, PWR_CR_DBP))
 8002d02:	e008      	b.n	8002d16 <HAL_RCCEx_PeriphCLKConfig+0x7a>
      {
        if ((HAL_GetTick() - tickstart) > RCC_DBP_TIMEOUT_VALUE)
 8002d04:	f7fe fed4 	bl	8001ab0 <HAL_GetTick>
 8002d08:	4602      	mov	r2, r0
 8002d0a:	693b      	ldr	r3, [r7, #16]
 8002d0c:	1ad3      	subs	r3, r2, r3
 8002d0e:	2b64      	cmp	r3, #100	; 0x64
 8002d10:	d901      	bls.n	8002d16 <HAL_RCCEx_PeriphCLKConfig+0x7a>
        {
          return HAL_TIMEOUT;
 8002d12:	2303      	movs	r3, #3
 8002d14:	e06d      	b.n	8002df2 <HAL_RCCEx_PeriphCLKConfig+0x156>
      while (HAL_IS_BIT_CLR(PWR->CR, PWR_CR_DBP))
 8002d16:	4b3a      	ldr	r3, [pc, #232]	; (8002e00 <HAL_RCCEx_PeriphCLKConfig+0x164>)
 8002d18:	681b      	ldr	r3, [r3, #0]
 8002d1a:	f403 7380 	and.w	r3, r3, #256	; 0x100
 8002d1e:	2b00      	cmp	r3, #0
 8002d20:	d0f0      	beq.n	8002d04 <HAL_RCCEx_PeriphCLKConfig+0x68>
        }
      }
    }

    /* Reset the Backup domain only if the RTC Clock source selection is modified from reset value */
    temp_reg = (RCC->BDCR & RCC_BDCR_RTCSEL);
 8002d22:	4b36      	ldr	r3, [pc, #216]	; (8002dfc <HAL_RCCEx_PeriphCLKConfig+0x160>)
 8002d24:	6a1b      	ldr	r3, [r3, #32]
 8002d26:	f403 7340 	and.w	r3, r3, #768	; 0x300
 8002d2a:	60fb      	str	r3, [r7, #12]
    if ((temp_reg != 0x00000000U) && (temp_reg != (PeriphClkInit->RTCClockSelection & RCC_BDCR_RTCSEL)))
 8002d2c:	68fb      	ldr	r3, [r7, #12]
 8002d2e:	2b00      	cmp	r3, #0
 8002d30:	d02e      	beq.n	8002d90 <HAL_RCCEx_PeriphCLKConfig+0xf4>
 8002d32:	687b      	ldr	r3, [r7, #4]
 8002d34:	685b      	ldr	r3, [r3, #4]
 8002d36:	f403 7340 	and.w	r3, r3, #768	; 0x300
 8002d3a:	68fa      	ldr	r2, [r7, #12]
 8002d3c:	429a      	cmp	r2, r3
 8002d3e:	d027      	beq.n	8002d90 <HAL_RCCEx_PeriphCLKConfig+0xf4>
    {
      /* Store the content of BDCR register before the reset of Backup Domain */
      temp_reg = (RCC->BDCR & ~(RCC_BDCR_RTCSEL));
 8002d40:	4b2e      	ldr	r3, [pc, #184]	; (8002dfc <HAL_RCCEx_PeriphCLKConfig+0x160>)
 8002d42:	6a1b      	ldr	r3, [r3, #32]
 8002d44:	f423 7340 	bic.w	r3, r3, #768	; 0x300
 8002d48:	60fb      	str	r3, [r7, #12]
      /* RTC Clock selection can be changed only if the Backup Domain is reset */
      __HAL_RCC_BACKUPRESET_FORCE();
 8002d4a:	4b2e      	ldr	r3, [pc, #184]	; (8002e04 <HAL_RCCEx_PeriphCLKConfig+0x168>)
 8002d4c:	2201      	movs	r2, #1
 8002d4e:	601a      	str	r2, [r3, #0]
      __HAL_RCC_BACKUPRESET_RELEASE();
 8002d50:	4b2c      	ldr	r3, [pc, #176]	; (8002e04 <HAL_RCCEx_PeriphCLKConfig+0x168>)
 8002d52:	2200      	movs	r2, #0
 8002d54:	601a      	str	r2, [r3, #0]
      /* Restore the Content of BDCR register */
      RCC->BDCR = temp_reg;
 8002d56:	4a29      	ldr	r2, [pc, #164]	; (8002dfc <HAL_RCCEx_PeriphCLKConfig+0x160>)
 8002d58:	68fb      	ldr	r3, [r7, #12]
 8002d5a:	6213      	str	r3, [r2, #32]

      /* Wait for LSERDY if LSE was enabled */
      if (HAL_IS_BIT_SET(temp_reg, RCC_BDCR_LSEON))
 8002d5c:	68fb      	ldr	r3, [r7, #12]
 8002d5e:	f003 0301 	and.w	r3, r3, #1
 8002d62:	2b00      	cmp	r3, #0
 8002d64:	d014      	beq.n	8002d90 <HAL_RCCEx_PeriphCLKConfig+0xf4>
      {
        /* Get Start Tick */
        tickstart = HAL_GetTick();
 8002d66:	f7fe fea3 	bl	8001ab0 <HAL_GetTick>
 8002d6a:	6138      	str	r0, [r7, #16]

        /* Wait till LSE is ready */
        while (__HAL_RCC_GET_FLAG(RCC_FLAG_LSERDY) == RESET)
 8002d6c:	e00a      	b.n	8002d84 <HAL_RCCEx_PeriphCLKConfig+0xe8>
        {
          if ((HAL_GetTick() - tickstart) > RCC_LSE_TIMEOUT_VALUE)
 8002d6e:	f7fe fe9f 	bl	8001ab0 <HAL_GetTick>
 8002d72:	4602      	mov	r2, r0
 8002d74:	693b      	ldr	r3, [r7, #16]
 8002d76:	1ad3      	subs	r3, r2, r3
 8002d78:	f241 3288 	movw	r2, #5000	; 0x1388
 8002d7c:	4293      	cmp	r3, r2
 8002d7e:	d901      	bls.n	8002d84 <HAL_RCCEx_PeriphCLKConfig+0xe8>
          {
            return HAL_TIMEOUT;
 8002d80:	2303      	movs	r3, #3
 8002d82:	e036      	b.n	8002df2 <HAL_RCCEx_PeriphCLKConfig+0x156>
        while (__HAL_RCC_GET_FLAG(RCC_FLAG_LSERDY) == RESET)
 8002d84:	4b1d      	ldr	r3, [pc, #116]	; (8002dfc <HAL_RCCEx_PeriphCLKConfig+0x160>)
 8002d86:	6a1b      	ldr	r3, [r3, #32]
 8002d88:	f003 0302 	and.w	r3, r3, #2
 8002d8c:	2b00      	cmp	r3, #0
 8002d8e:	d0ee      	beq.n	8002d6e <HAL_RCCEx_PeriphCLKConfig+0xd2>
          }
        }
      }
    }
    __HAL_RCC_RTC_CONFIG(PeriphClkInit->RTCClockSelection);
 8002d90:	4b1a      	ldr	r3, [pc, #104]	; (8002dfc <HAL_RCCEx_PeriphCLKConfig+0x160>)
 8002d92:	6a1b      	ldr	r3, [r3, #32]
 8002d94:	f423 7240 	bic.w	r2, r3, #768	; 0x300
 8002d98:	687b      	ldr	r3, [r7, #4]
 8002d9a:	685b      	ldr	r3, [r3, #4]
 8002d9c:	4917      	ldr	r1, [pc, #92]	; (8002dfc <HAL_RCCEx_PeriphCLKConfig+0x160>)
 8002d9e:	4313      	orrs	r3, r2
 8002da0:	620b      	str	r3, [r1, #32]

    /* Require to disable power clock if necessary */
    if (pwrclkchanged == SET)
 8002da2:	7dfb      	ldrb	r3, [r7, #23]
 8002da4:	2b01      	cmp	r3, #1
 8002da6:	d105      	bne.n	8002db4 <HAL_RCCEx_PeriphCLKConfig+0x118>
    {
      __HAL_RCC_PWR_CLK_DISABLE();
 8002da8:	4b14      	ldr	r3, [pc, #80]	; (8002dfc <HAL_RCCEx_PeriphCLKConfig+0x160>)
 8002daa:	69db      	ldr	r3, [r3, #28]
 8002dac:	4a13      	ldr	r2, [pc, #76]	; (8002dfc <HAL_RCCEx_PeriphCLKConfig+0x160>)
 8002dae:	f023 5380 	bic.w	r3, r3, #268435456	; 0x10000000
 8002db2:	61d3      	str	r3, [r2, #28]
    }
  }

  /*------------------------------ ADC clock Configuration ------------------*/
  if (((PeriphClkInit->PeriphClockSelection) & RCC_PERIPHCLK_ADC) == RCC_PERIPHCLK_ADC)
 8002db4:	687b      	ldr	r3, [r7, #4]
 8002db6:	681b      	ldr	r3, [r3, #0]
 8002db8:	f003 0302 	and.w	r3, r3, #2
 8002dbc:	2b00      	cmp	r3, #0
 8002dbe:	d008      	beq.n	8002dd2 <HAL_RCCEx_PeriphCLKConfig+0x136>
  {
    /* Check the parameters */
    assert_param(IS_RCC_ADCPLLCLK_DIV(PeriphClkInit->AdcClockSelection));

    /* Configure the ADC clock source */
    __HAL_RCC_ADC_CONFIG(PeriphClkInit->AdcClockSelection);
 8002dc0:	4b0e      	ldr	r3, [pc, #56]	; (8002dfc <HAL_RCCEx_PeriphCLKConfig+0x160>)
 8002dc2:	685b      	ldr	r3, [r3, #4]
 8002dc4:	f423 4240 	bic.w	r2, r3, #49152	; 0xc000
 8002dc8:	687b      	ldr	r3, [r7, #4]
 8002dca:	689b      	ldr	r3, [r3, #8]
 8002dcc:	490b      	ldr	r1, [pc, #44]	; (8002dfc <HAL_RCCEx_PeriphCLKConfig+0x160>)
 8002dce:	4313      	orrs	r3, r2
 8002dd0:	604b      	str	r3, [r1, #4]

#if defined(STM32F102x6) || defined(STM32F102xB) || defined(STM32F103x6)\
 || defined(STM32F103xB) || defined(STM32F103xE) || defined(STM32F103xG)\
 || defined(STM32F105xC) || defined(STM32F107xC)
  /*------------------------------ USB clock Configuration ------------------*/
  if (((PeriphClkInit->PeriphClockSelection) & RCC_PERIPHCLK_USB) == RCC_PERIPHCLK_USB)
 8002dd2:	687b      	ldr	r3, [r7, #4]
 8002dd4:	681b      	ldr	r3, [r3, #0]
 8002dd6:	f003 0310 	and.w	r3, r3, #16
 8002dda:	2b00      	cmp	r3, #0
 8002ddc:	d008      	beq.n	8002df0 <HAL_RCCEx_PeriphCLKConfig+0x154>
  {
    /* Check the parameters */
    assert_param(IS_RCC_USBPLLCLK_DIV(PeriphClkInit->UsbClockSelection));

    /* Configure the USB clock source */
    __HAL_RCC_USB_CONFIG(PeriphClkInit->UsbClockSelection);
 8002dde:	4b07      	ldr	r3, [pc, #28]	; (8002dfc <HAL_RCCEx_PeriphCLKConfig+0x160>)
 8002de0:	685b      	ldr	r3, [r3, #4]
 8002de2:	f423 0280 	bic.w	r2, r3, #4194304	; 0x400000
 8002de6:	687b      	ldr	r3, [r7, #4]
 8002de8:	68db      	ldr	r3, [r3, #12]
 8002dea:	4904      	ldr	r1, [pc, #16]	; (8002dfc <HAL_RCCEx_PeriphCLKConfig+0x160>)
 8002dec:	4313      	orrs	r3, r2
 8002dee:	604b      	str	r3, [r1, #4]
  }
#endif /* STM32F102x6 || STM32F102xB || STM32F103x6 || STM32F103xB || STM32F103xE || STM32F103xG || STM32F105xC || STM32F107xC */

  return HAL_OK;
 8002df0:	2300      	movs	r3, #0
}
 8002df2:	4618      	mov	r0, r3
 8002df4:	3718      	adds	r7, #24
 8002df6:	46bd      	mov	sp, r7
 8002df8:	bd80      	pop	{r7, pc}
 8002dfa:	bf00      	nop
 8002dfc:	40021000 	.word	0x40021000
 8002e00:	40007000 	.word	0x40007000
 8002e04:	42420440 	.word	0x42420440

08002e08 <HAL_RCCEx_GetPeriphCLKFreq>:
  *            @arg @ref RCC_PERIPHCLK_USB  USB peripheral clock
  @endif
  * @retval Frequency in Hz (0: means that no available frequency for the peripheral)
  */
uint32_t HAL_RCCEx_GetPeriphCLKFreq(uint32_t PeriphClk)
{
 8002e08:	b590      	push	{r4, r7, lr}
 8002e0a:	b08d      	sub	sp, #52	; 0x34
 8002e0c:	af00      	add	r7, sp, #0
 8002e0e:	6078      	str	r0, [r7, #4]
  uint32_t prediv1 = 0U, pllclk = 0U, pllmul = 0U;
  uint32_t pll2mul = 0U, pll3mul = 0U, prediv2 = 0U;
#endif /* STM32F105xC || STM32F107xC */
#if defined(STM32F102x6) || defined(STM32F102xB) || defined(STM32F103x6) || \
    defined(STM32F103xB) || defined(STM32F103xE) || defined(STM32F103xG)
  const uint8_t aPLLMULFactorTable[16] = {2, 3, 4, 5, 6, 7, 8, 9, 10, 11, 12, 13, 14, 15, 16, 16};
 8002e10:	4b55      	ldr	r3, [pc, #340]	; (8002f68 <HAL_RCCEx_GetPeriphCLKFreq+0x160>)
 8002e12:	f107 040c 	add.w	r4, r7, #12
 8002e16:	cb0f      	ldmia	r3, {r0, r1, r2, r3}
 8002e18:	e884 000f 	stmia.w	r4, {r0, r1, r2, r3}
  const uint8_t aPredivFactorTable[2] = {1, 2};
 8002e1c:	4b53      	ldr	r3, [pc, #332]	; (8002f6c <HAL_RCCEx_GetPeriphCLKFreq+0x164>)
 8002e1e:	881b      	ldrh	r3, [r3, #0]
 8002e20:	813b      	strh	r3, [r7, #8]

  uint32_t prediv1 = 0U, pllclk = 0U, pllmul = 0U;
 8002e22:	2300      	movs	r3, #0
 8002e24:	627b      	str	r3, [r7, #36]	; 0x24
 8002e26:	2300      	movs	r3, #0
 8002e28:	62fb      	str	r3, [r7, #44]	; 0x2c
 8002e2a:	2300      	movs	r3, #0
 8002e2c:	623b      	str	r3, [r7, #32]
#endif /* STM32F102x6 || STM32F102xB || STM32F103x6 || STM32F103xB || STM32F103xE || STM32F103xG */
  uint32_t temp_reg = 0U, frequency = 0U;
 8002e2e:	2300      	movs	r3, #0
 8002e30:	61fb      	str	r3, [r7, #28]
 8002e32:	2300      	movs	r3, #0
 8002e34:	62bb      	str	r3, [r7, #40]	; 0x28

  /* Check the parameters */
  assert_param(IS_RCC_PERIPHCLOCK(PeriphClk));

  switch (PeriphClk)
 8002e36:	687b      	ldr	r3, [r7, #4]
 8002e38:	2b02      	cmp	r3, #2
 8002e3a:	d07f      	beq.n	8002f3c <HAL_RCCEx_GetPeriphCLKFreq+0x134>
 8002e3c:	2b10      	cmp	r3, #16
 8002e3e:	d002      	beq.n	8002e46 <HAL_RCCEx_GetPeriphCLKFreq+0x3e>
 8002e40:	2b01      	cmp	r3, #1
 8002e42:	d048      	beq.n	8002ed6 <HAL_RCCEx_GetPeriphCLKFreq+0xce>
      frequency = HAL_RCC_GetPCLK2Freq() / (((__HAL_RCC_GET_ADC_SOURCE() >> RCC_CFGR_ADCPRE_Pos) + 1) * 2);
      break;
    }
    default:
    {
      break;
 8002e44:	e08b      	b.n	8002f5e <HAL_RCCEx_GetPeriphCLKFreq+0x156>
      temp_reg = RCC->CFGR;
 8002e46:	4b4a      	ldr	r3, [pc, #296]	; (8002f70 <HAL_RCCEx_GetPeriphCLKFreq+0x168>)
 8002e48:	685b      	ldr	r3, [r3, #4]
 8002e4a:	61fb      	str	r3, [r7, #28]
      if (HAL_IS_BIT_SET(RCC->CR, RCC_CR_PLLON))
 8002e4c:	4b48      	ldr	r3, [pc, #288]	; (8002f70 <HAL_RCCEx_GetPeriphCLKFreq+0x168>)
 8002e4e:	681b      	ldr	r3, [r3, #0]
 8002e50:	f003 7380 	and.w	r3, r3, #16777216	; 0x1000000
 8002e54:	2b00      	cmp	r3, #0
 8002e56:	d07f      	beq.n	8002f58 <HAL_RCCEx_GetPeriphCLKFreq+0x150>
        pllmul = aPLLMULFactorTable[(uint32_t)(temp_reg & RCC_CFGR_PLLMULL) >> RCC_CFGR_PLLMULL_Pos];
 8002e58:	69fb      	ldr	r3, [r7, #28]
 8002e5a:	0c9b      	lsrs	r3, r3, #18
 8002e5c:	f003 030f 	and.w	r3, r3, #15
 8002e60:	f107 0230 	add.w	r2, r7, #48	; 0x30
 8002e64:	4413      	add	r3, r2
 8002e66:	f813 3c24 	ldrb.w	r3, [r3, #-36]
 8002e6a:	623b      	str	r3, [r7, #32]
        if ((temp_reg & RCC_CFGR_PLLSRC) != RCC_PLLSOURCE_HSI_DIV2)
 8002e6c:	69fb      	ldr	r3, [r7, #28]
 8002e6e:	f403 3380 	and.w	r3, r3, #65536	; 0x10000
 8002e72:	2b00      	cmp	r3, #0
 8002e74:	d018      	beq.n	8002ea8 <HAL_RCCEx_GetPeriphCLKFreq+0xa0>
          prediv1 = aPredivFactorTable[(uint32_t)(RCC->CFGR & RCC_CFGR_PLLXTPRE) >> RCC_CFGR_PLLXTPRE_Pos];
 8002e76:	4b3e      	ldr	r3, [pc, #248]	; (8002f70 <HAL_RCCEx_GetPeriphCLKFreq+0x168>)
 8002e78:	685b      	ldr	r3, [r3, #4]
 8002e7a:	0c5b      	lsrs	r3, r3, #17
 8002e7c:	f003 0301 	and.w	r3, r3, #1
 8002e80:	f107 0230 	add.w	r2, r7, #48	; 0x30
 8002e84:	4413      	add	r3, r2
 8002e86:	f813 3c28 	ldrb.w	r3, [r3, #-40]
 8002e8a:	627b      	str	r3, [r7, #36]	; 0x24
          if ((temp_reg & RCC_CFGR_PLLSRC) != RCC_PLLSOURCE_HSI_DIV2)
 8002e8c:	69fb      	ldr	r3, [r7, #28]
 8002e8e:	f403 3380 	and.w	r3, r3, #65536	; 0x10000
 8002e92:	2b00      	cmp	r3, #0
 8002e94:	d00d      	beq.n	8002eb2 <HAL_RCCEx_GetPeriphCLKFreq+0xaa>
            pllclk = (uint32_t)((HSE_VALUE / prediv1) * pllmul);
 8002e96:	4a37      	ldr	r2, [pc, #220]	; (8002f74 <HAL_RCCEx_GetPeriphCLKFreq+0x16c>)
 8002e98:	6a7b      	ldr	r3, [r7, #36]	; 0x24
 8002e9a:	fbb2 f2f3 	udiv	r2, r2, r3
 8002e9e:	6a3b      	ldr	r3, [r7, #32]
 8002ea0:	fb02 f303 	mul.w	r3, r2, r3
 8002ea4:	62fb      	str	r3, [r7, #44]	; 0x2c
 8002ea6:	e004      	b.n	8002eb2 <HAL_RCCEx_GetPeriphCLKFreq+0xaa>
          pllclk = (uint32_t)((HSI_VALUE >> 1) * pllmul);
 8002ea8:	6a3b      	ldr	r3, [r7, #32]
 8002eaa:	4a33      	ldr	r2, [pc, #204]	; (8002f78 <HAL_RCCEx_GetPeriphCLKFreq+0x170>)
 8002eac:	fb02 f303 	mul.w	r3, r2, r3
 8002eb0:	62fb      	str	r3, [r7, #44]	; 0x2c
        if (__HAL_RCC_GET_USB_SOURCE() == RCC_USBCLKSOURCE_PLL)
 8002eb2:	4b2f      	ldr	r3, [pc, #188]	; (8002f70 <HAL_RCCEx_GetPeriphCLKFreq+0x168>)
 8002eb4:	685b      	ldr	r3, [r3, #4]
 8002eb6:	f403 0380 	and.w	r3, r3, #4194304	; 0x400000
 8002eba:	f5b3 0f80 	cmp.w	r3, #4194304	; 0x400000
 8002ebe:	d102      	bne.n	8002ec6 <HAL_RCCEx_GetPeriphCLKFreq+0xbe>
          frequency = pllclk;
 8002ec0:	6afb      	ldr	r3, [r7, #44]	; 0x2c
 8002ec2:	62bb      	str	r3, [r7, #40]	; 0x28
      break;
 8002ec4:	e048      	b.n	8002f58 <HAL_RCCEx_GetPeriphCLKFreq+0x150>
          frequency = (pllclk * 2) / 3;
 8002ec6:	6afb      	ldr	r3, [r7, #44]	; 0x2c
 8002ec8:	005b      	lsls	r3, r3, #1
 8002eca:	4a2c      	ldr	r2, [pc, #176]	; (8002f7c <HAL_RCCEx_GetPeriphCLKFreq+0x174>)
 8002ecc:	fba2 2303 	umull	r2, r3, r2, r3
 8002ed0:	085b      	lsrs	r3, r3, #1
 8002ed2:	62bb      	str	r3, [r7, #40]	; 0x28
      break;
 8002ed4:	e040      	b.n	8002f58 <HAL_RCCEx_GetPeriphCLKFreq+0x150>
      temp_reg = RCC->BDCR;
 8002ed6:	4b26      	ldr	r3, [pc, #152]	; (8002f70 <HAL_RCCEx_GetPeriphCLKFreq+0x168>)
 8002ed8:	6a1b      	ldr	r3, [r3, #32]
 8002eda:	61fb      	str	r3, [r7, #28]
      if (((temp_reg & RCC_BDCR_RTCSEL) == RCC_RTCCLKSOURCE_LSE) && (HAL_IS_BIT_SET(temp_reg, RCC_BDCR_LSERDY)))
 8002edc:	69fb      	ldr	r3, [r7, #28]
 8002ede:	f403 7340 	and.w	r3, r3, #768	; 0x300
 8002ee2:	f5b3 7f80 	cmp.w	r3, #256	; 0x100
 8002ee6:	d108      	bne.n	8002efa <HAL_RCCEx_GetPeriphCLKFreq+0xf2>
 8002ee8:	69fb      	ldr	r3, [r7, #28]
 8002eea:	f003 0302 	and.w	r3, r3, #2
 8002eee:	2b00      	cmp	r3, #0
 8002ef0:	d003      	beq.n	8002efa <HAL_RCCEx_GetPeriphCLKFreq+0xf2>
        frequency = LSE_VALUE;
 8002ef2:	f44f 4300 	mov.w	r3, #32768	; 0x8000
 8002ef6:	62bb      	str	r3, [r7, #40]	; 0x28
 8002ef8:	e01f      	b.n	8002f3a <HAL_RCCEx_GetPeriphCLKFreq+0x132>
      else if (((temp_reg & RCC_BDCR_RTCSEL) == RCC_RTCCLKSOURCE_LSI) && (HAL_IS_BIT_SET(RCC->CSR, RCC_CSR_LSIRDY)))
 8002efa:	69fb      	ldr	r3, [r7, #28]
 8002efc:	f403 7340 	and.w	r3, r3, #768	; 0x300
 8002f00:	f5b3 7f00 	cmp.w	r3, #512	; 0x200
 8002f04:	d109      	bne.n	8002f1a <HAL_RCCEx_GetPeriphCLKFreq+0x112>
 8002f06:	4b1a      	ldr	r3, [pc, #104]	; (8002f70 <HAL_RCCEx_GetPeriphCLKFreq+0x168>)
 8002f08:	6a5b      	ldr	r3, [r3, #36]	; 0x24
 8002f0a:	f003 0302 	and.w	r3, r3, #2
 8002f0e:	2b00      	cmp	r3, #0
 8002f10:	d003      	beq.n	8002f1a <HAL_RCCEx_GetPeriphCLKFreq+0x112>
        frequency = LSI_VALUE;
 8002f12:	f649 4340 	movw	r3, #40000	; 0x9c40
 8002f16:	62bb      	str	r3, [r7, #40]	; 0x28
 8002f18:	e00f      	b.n	8002f3a <HAL_RCCEx_GetPeriphCLKFreq+0x132>
      else if (((temp_reg & RCC_BDCR_RTCSEL) == RCC_RTCCLKSOURCE_HSE_DIV128) && (HAL_IS_BIT_SET(RCC->CR, RCC_CR_HSERDY)))
 8002f1a:	69fb      	ldr	r3, [r7, #28]
 8002f1c:	f403 7340 	and.w	r3, r3, #768	; 0x300
 8002f20:	f5b3 7f40 	cmp.w	r3, #768	; 0x300
 8002f24:	d11a      	bne.n	8002f5c <HAL_RCCEx_GetPeriphCLKFreq+0x154>
 8002f26:	4b12      	ldr	r3, [pc, #72]	; (8002f70 <HAL_RCCEx_GetPeriphCLKFreq+0x168>)
 8002f28:	681b      	ldr	r3, [r3, #0]
 8002f2a:	f403 3300 	and.w	r3, r3, #131072	; 0x20000
 8002f2e:	2b00      	cmp	r3, #0
 8002f30:	d014      	beq.n	8002f5c <HAL_RCCEx_GetPeriphCLKFreq+0x154>
        frequency = HSE_VALUE / 128U;
 8002f32:	f24f 4324 	movw	r3, #62500	; 0xf424
 8002f36:	62bb      	str	r3, [r7, #40]	; 0x28
      break;
 8002f38:	e010      	b.n	8002f5c <HAL_RCCEx_GetPeriphCLKFreq+0x154>
 8002f3a:	e00f      	b.n	8002f5c <HAL_RCCEx_GetPeriphCLKFreq+0x154>
      frequency = HAL_RCC_GetPCLK2Freq() / (((__HAL_RCC_GET_ADC_SOURCE() >> RCC_CFGR_ADCPRE_Pos) + 1) * 2);
 8002f3c:	f7ff fe7c 	bl	8002c38 <HAL_RCC_GetPCLK2Freq>
 8002f40:	4602      	mov	r2, r0
 8002f42:	4b0b      	ldr	r3, [pc, #44]	; (8002f70 <HAL_RCCEx_GetPeriphCLKFreq+0x168>)
 8002f44:	685b      	ldr	r3, [r3, #4]
 8002f46:	0b9b      	lsrs	r3, r3, #14
 8002f48:	f003 0303 	and.w	r3, r3, #3
 8002f4c:	3301      	adds	r3, #1
 8002f4e:	005b      	lsls	r3, r3, #1
 8002f50:	fbb2 f3f3 	udiv	r3, r2, r3
 8002f54:	62bb      	str	r3, [r7, #40]	; 0x28
      break;
 8002f56:	e002      	b.n	8002f5e <HAL_RCCEx_GetPeriphCLKFreq+0x156>
      break;
 8002f58:	bf00      	nop
 8002f5a:	e000      	b.n	8002f5e <HAL_RCCEx_GetPeriphCLKFreq+0x156>
      break;
 8002f5c:	bf00      	nop
    }
  }
  return (frequency);
 8002f5e:	6abb      	ldr	r3, [r7, #40]	; 0x28
}
 8002f60:	4618      	mov	r0, r3
 8002f62:	3734      	adds	r7, #52	; 0x34
 8002f64:	46bd      	mov	sp, r7
 8002f66:	bd90      	pop	{r4, r7, pc}
 8002f68:	0800534c 	.word	0x0800534c
 8002f6c:	0800535c 	.word	0x0800535c
 8002f70:	40021000 	.word	0x40021000
 8002f74:	007a1200 	.word	0x007a1200
 8002f78:	003d0900 	.word	0x003d0900
 8002f7c:	aaaaaaab 	.word	0xaaaaaaab

08002f80 <HAL_RTC_Init>:
  * @param  hrtc   pointer to a RTC_HandleTypeDef structure that contains
  *                the configuration information for RTC.
  * @retval HAL status
  */
HAL_StatusTypeDef HAL_RTC_Init(RTC_HandleTypeDef *hrtc)
{
 8002f80:	b580      	push	{r7, lr}
 8002f82:	b084      	sub	sp, #16
 8002f84:	af00      	add	r7, sp, #0
 8002f86:	6078      	str	r0, [r7, #4]
  uint32_t prescaler = 0U;
 8002f88:	2300      	movs	r3, #0
 8002f8a:	60fb      	str	r3, [r7, #12]
  /* Check input parameters */
  if (hrtc == NULL)
 8002f8c:	687b      	ldr	r3, [r7, #4]
 8002f8e:	2b00      	cmp	r3, #0
 8002f90:	d101      	bne.n	8002f96 <HAL_RTC_Init+0x16>
  {
    return HAL_ERROR;
 8002f92:	2301      	movs	r3, #1
 8002f94:	e084      	b.n	80030a0 <HAL_RTC_Init+0x120>
    {
      hrtc->MspDeInitCallback = HAL_RTC_MspDeInit;
    }
  }
#else
  if (hrtc->State == HAL_RTC_STATE_RESET)
 8002f96:	687b      	ldr	r3, [r7, #4]
 8002f98:	7c5b      	ldrb	r3, [r3, #17]
 8002f9a:	b2db      	uxtb	r3, r3
 8002f9c:	2b00      	cmp	r3, #0
 8002f9e:	d105      	bne.n	8002fac <HAL_RTC_Init+0x2c>
  {
    /* Allocate lock resource and initialize it */
    hrtc->Lock = HAL_UNLOCKED;
 8002fa0:	687b      	ldr	r3, [r7, #4]
 8002fa2:	2200      	movs	r2, #0
 8002fa4:	741a      	strb	r2, [r3, #16]

    /* Initialize RTC MSP */
    HAL_RTC_MspInit(hrtc);
 8002fa6:	6878      	ldr	r0, [r7, #4]
 8002fa8:	f7fe fa4a 	bl	8001440 <HAL_RTC_MspInit>
  }
#endif /* (USE_HAL_RTC_REGISTER_CALLBACKS) */

  /* Set RTC state */
  hrtc->State = HAL_RTC_STATE_BUSY;
 8002fac:	687b      	ldr	r3, [r7, #4]
 8002fae:	2202      	movs	r2, #2
 8002fb0:	745a      	strb	r2, [r3, #17]

  /* Waiting for synchro */
  if (HAL_RTC_WaitForSynchro(hrtc) != HAL_OK)
 8002fb2:	6878      	ldr	r0, [r7, #4]
 8002fb4:	f000 fbd0 	bl	8003758 <HAL_RTC_WaitForSynchro>
 8002fb8:	4603      	mov	r3, r0
 8002fba:	2b00      	cmp	r3, #0
 8002fbc:	d004      	beq.n	8002fc8 <HAL_RTC_Init+0x48>
  {
    /* Set RTC state */
    hrtc->State = HAL_RTC_STATE_ERROR;
 8002fbe:	687b      	ldr	r3, [r7, #4]
 8002fc0:	2204      	movs	r2, #4
 8002fc2:	745a      	strb	r2, [r3, #17]

    return HAL_ERROR;
 8002fc4:	2301      	movs	r3, #1
 8002fc6:	e06b      	b.n	80030a0 <HAL_RTC_Init+0x120>
  }

  /* Set Initialization mode */
  if (RTC_EnterInitMode(hrtc) != HAL_OK)
 8002fc8:	6878      	ldr	r0, [r7, #4]
 8002fca:	f000 fc89 	bl	80038e0 <RTC_EnterInitMode>
 8002fce:	4603      	mov	r3, r0
 8002fd0:	2b00      	cmp	r3, #0
 8002fd2:	d004      	beq.n	8002fde <HAL_RTC_Init+0x5e>
  {
    /* Set RTC state */
    hrtc->State = HAL_RTC_STATE_ERROR;
 8002fd4:	687b      	ldr	r3, [r7, #4]
 8002fd6:	2204      	movs	r2, #4
 8002fd8:	745a      	strb	r2, [r3, #17]

    return HAL_ERROR;
 8002fda:	2301      	movs	r3, #1
 8002fdc:	e060      	b.n	80030a0 <HAL_RTC_Init+0x120>
  }
  else
  {
    /* Clear Flags Bits */
    CLEAR_BIT(hrtc->Instance->CRL, (RTC_FLAG_OW | RTC_FLAG_ALRAF | RTC_FLAG_SEC));
 8002fde:	687b      	ldr	r3, [r7, #4]
 8002fe0:	681b      	ldr	r3, [r3, #0]
 8002fe2:	685a      	ldr	r2, [r3, #4]
 8002fe4:	687b      	ldr	r3, [r7, #4]
 8002fe6:	681b      	ldr	r3, [r3, #0]
 8002fe8:	f022 0207 	bic.w	r2, r2, #7
 8002fec:	605a      	str	r2, [r3, #4]

    if (hrtc->Init.OutPut != RTC_OUTPUTSOURCE_NONE)
 8002fee:	687b      	ldr	r3, [r7, #4]
 8002ff0:	689b      	ldr	r3, [r3, #8]
 8002ff2:	2b00      	cmp	r3, #0
 8002ff4:	d005      	beq.n	8003002 <HAL_RTC_Init+0x82>
    {
      /* Disable the selected Tamper pin */
      CLEAR_BIT(BKP->CR, BKP_CR_TPE);
 8002ff6:	4b2c      	ldr	r3, [pc, #176]	; (80030a8 <HAL_RTC_Init+0x128>)
 8002ff8:	6b1b      	ldr	r3, [r3, #48]	; 0x30
 8002ffa:	4a2b      	ldr	r2, [pc, #172]	; (80030a8 <HAL_RTC_Init+0x128>)
 8002ffc:	f023 0301 	bic.w	r3, r3, #1
 8003000:	6313      	str	r3, [r2, #48]	; 0x30
    }

    /* Set the signal which will be routed to RTC Tamper pin*/
    MODIFY_REG(BKP->RTCCR, (BKP_RTCCR_CCO | BKP_RTCCR_ASOE | BKP_RTCCR_ASOS), hrtc->Init.OutPut);
 8003002:	4b29      	ldr	r3, [pc, #164]	; (80030a8 <HAL_RTC_Init+0x128>)
 8003004:	6adb      	ldr	r3, [r3, #44]	; 0x2c
 8003006:	f423 7260 	bic.w	r2, r3, #896	; 0x380
 800300a:	687b      	ldr	r3, [r7, #4]
 800300c:	689b      	ldr	r3, [r3, #8]
 800300e:	4926      	ldr	r1, [pc, #152]	; (80030a8 <HAL_RTC_Init+0x128>)
 8003010:	4313      	orrs	r3, r2
 8003012:	62cb      	str	r3, [r1, #44]	; 0x2c

    if (hrtc->Init.AsynchPrediv != RTC_AUTO_1_SECOND)
 8003014:	687b      	ldr	r3, [r7, #4]
 8003016:	685b      	ldr	r3, [r3, #4]
 8003018:	f1b3 3fff 	cmp.w	r3, #4294967295	; 0xffffffff
 800301c:	d003      	beq.n	8003026 <HAL_RTC_Init+0xa6>
    {
      /* RTC Prescaler provided directly by end-user*/
      prescaler = hrtc->Init.AsynchPrediv;
 800301e:	687b      	ldr	r3, [r7, #4]
 8003020:	685b      	ldr	r3, [r3, #4]
 8003022:	60fb      	str	r3, [r7, #12]
 8003024:	e00e      	b.n	8003044 <HAL_RTC_Init+0xc4>
    }
    else
    {
      /* RTC Prescaler will be automatically calculated to get 1 second timebase */
      /* Get the RTCCLK frequency */
      prescaler = HAL_RCCEx_GetPeriphCLKFreq(RCC_PERIPHCLK_RTC);
 8003026:	2001      	movs	r0, #1
 8003028:	f7ff feee 	bl	8002e08 <HAL_RCCEx_GetPeriphCLKFreq>
 800302c:	60f8      	str	r0, [r7, #12]

      /* Check that RTC clock is enabled*/
      if (prescaler == 0U)
 800302e:	68fb      	ldr	r3, [r7, #12]
 8003030:	2b00      	cmp	r3, #0
 8003032:	d104      	bne.n	800303e <HAL_RTC_Init+0xbe>
      {
        /* Should not happen. Frequency is not available*/
        hrtc->State = HAL_RTC_STATE_ERROR;
 8003034:	687b      	ldr	r3, [r7, #4]
 8003036:	2204      	movs	r2, #4
 8003038:	745a      	strb	r2, [r3, #17]
        return HAL_ERROR;
 800303a:	2301      	movs	r3, #1
 800303c:	e030      	b.n	80030a0 <HAL_RTC_Init+0x120>
      }
      else
      {
        /* RTC period = RTCCLK/(RTC_PR + 1) */
        prescaler = prescaler - 1U;
 800303e:	68fb      	ldr	r3, [r7, #12]
 8003040:	3b01      	subs	r3, #1
 8003042:	60fb      	str	r3, [r7, #12]
      }
    }

    /* Configure the RTC_PRLH / RTC_PRLL */
    MODIFY_REG(hrtc->Instance->PRLH, RTC_PRLH_PRL, (prescaler >> 16U));
 8003044:	687b      	ldr	r3, [r7, #4]
 8003046:	681b      	ldr	r3, [r3, #0]
 8003048:	689b      	ldr	r3, [r3, #8]
 800304a:	f023 010f 	bic.w	r1, r3, #15
 800304e:	68fb      	ldr	r3, [r7, #12]
 8003050:	0c1a      	lsrs	r2, r3, #16
 8003052:	687b      	ldr	r3, [r7, #4]
 8003054:	681b      	ldr	r3, [r3, #0]
 8003056:	430a      	orrs	r2, r1
 8003058:	609a      	str	r2, [r3, #8]
    MODIFY_REG(hrtc->Instance->PRLL, RTC_PRLL_PRL, (prescaler & RTC_PRLL_PRL));
 800305a:	687b      	ldr	r3, [r7, #4]
 800305c:	681b      	ldr	r3, [r3, #0]
 800305e:	68db      	ldr	r3, [r3, #12]
 8003060:	0c1b      	lsrs	r3, r3, #16
 8003062:	041b      	lsls	r3, r3, #16
 8003064:	68fa      	ldr	r2, [r7, #12]
 8003066:	b291      	uxth	r1, r2
 8003068:	687a      	ldr	r2, [r7, #4]
 800306a:	6812      	ldr	r2, [r2, #0]
 800306c:	430b      	orrs	r3, r1
 800306e:	60d3      	str	r3, [r2, #12]

    /* Wait for synchro */
    if (RTC_ExitInitMode(hrtc) != HAL_OK)
 8003070:	6878      	ldr	r0, [r7, #4]
 8003072:	f000 fc5d 	bl	8003930 <RTC_ExitInitMode>
 8003076:	4603      	mov	r3, r0
 8003078:	2b00      	cmp	r3, #0
 800307a:	d004      	beq.n	8003086 <HAL_RTC_Init+0x106>
    {
      hrtc->State = HAL_RTC_STATE_ERROR;
 800307c:	687b      	ldr	r3, [r7, #4]
 800307e:	2204      	movs	r2, #4
 8003080:	745a      	strb	r2, [r3, #17]

      return HAL_ERROR;
 8003082:	2301      	movs	r3, #1
 8003084:	e00c      	b.n	80030a0 <HAL_RTC_Init+0x120>
    }

    /* Initialize date to 1st of January 2000 */
    hrtc->DateToUpdate.Year = 0x00U;
 8003086:	687b      	ldr	r3, [r7, #4]
 8003088:	2200      	movs	r2, #0
 800308a:	73da      	strb	r2, [r3, #15]
    hrtc->DateToUpdate.Month = RTC_MONTH_JANUARY;
 800308c:	687b      	ldr	r3, [r7, #4]
 800308e:	2201      	movs	r2, #1
 8003090:	735a      	strb	r2, [r3, #13]
    hrtc->DateToUpdate.Date = 0x01U;
 8003092:	687b      	ldr	r3, [r7, #4]
 8003094:	2201      	movs	r2, #1
 8003096:	739a      	strb	r2, [r3, #14]

    /* Set RTC state */
    hrtc->State = HAL_RTC_STATE_READY;
 8003098:	687b      	ldr	r3, [r7, #4]
 800309a:	2201      	movs	r2, #1
 800309c:	745a      	strb	r2, [r3, #17]

    return HAL_OK;
 800309e:	2300      	movs	r3, #0
  }
}
 80030a0:	4618      	mov	r0, r3
 80030a2:	3710      	adds	r7, #16
 80030a4:	46bd      	mov	sp, r7
 80030a6:	bd80      	pop	{r7, pc}
 80030a8:	40006c00 	.word	0x40006c00

080030ac <HAL_RTC_SetTime>:
  *            @arg RTC_FORMAT_BIN: Binary data format
  *            @arg RTC_FORMAT_BCD: BCD data format
  * @retval HAL status
  */
HAL_StatusTypeDef HAL_RTC_SetTime(RTC_HandleTypeDef *hrtc, RTC_TimeTypeDef *sTime, uint32_t Format)
{
 80030ac:	b590      	push	{r4, r7, lr}
 80030ae:	b087      	sub	sp, #28
 80030b0:	af00      	add	r7, sp, #0
 80030b2:	60f8      	str	r0, [r7, #12]
 80030b4:	60b9      	str	r1, [r7, #8]
 80030b6:	607a      	str	r2, [r7, #4]
  uint32_t counter_time = 0U, counter_alarm = 0U;
 80030b8:	2300      	movs	r3, #0
 80030ba:	617b      	str	r3, [r7, #20]
 80030bc:	2300      	movs	r3, #0
 80030be:	613b      	str	r3, [r7, #16]

  /* Check input parameters */
  if ((hrtc == NULL) || (sTime == NULL))
 80030c0:	68fb      	ldr	r3, [r7, #12]
 80030c2:	2b00      	cmp	r3, #0
 80030c4:	d002      	beq.n	80030cc <HAL_RTC_SetTime+0x20>
 80030c6:	68bb      	ldr	r3, [r7, #8]
 80030c8:	2b00      	cmp	r3, #0
 80030ca:	d101      	bne.n	80030d0 <HAL_RTC_SetTime+0x24>
  {
    return HAL_ERROR;
 80030cc:	2301      	movs	r3, #1
 80030ce:	e080      	b.n	80031d2 <HAL_RTC_SetTime+0x126>

  /* Check the parameters */
  assert_param(IS_RTC_FORMAT(Format));

  /* Process Locked */
  __HAL_LOCK(hrtc);
 80030d0:	68fb      	ldr	r3, [r7, #12]
 80030d2:	7c1b      	ldrb	r3, [r3, #16]
 80030d4:	2b01      	cmp	r3, #1
 80030d6:	d101      	bne.n	80030dc <HAL_RTC_SetTime+0x30>
 80030d8:	2302      	movs	r3, #2
 80030da:	e07a      	b.n	80031d2 <HAL_RTC_SetTime+0x126>
 80030dc:	68fb      	ldr	r3, [r7, #12]
 80030de:	2201      	movs	r2, #1
 80030e0:	741a      	strb	r2, [r3, #16]

  hrtc->State = HAL_RTC_STATE_BUSY;
 80030e2:	68fb      	ldr	r3, [r7, #12]
 80030e4:	2202      	movs	r2, #2
 80030e6:	745a      	strb	r2, [r3, #17]

  if (Format == RTC_FORMAT_BIN)
 80030e8:	687b      	ldr	r3, [r7, #4]
 80030ea:	2b00      	cmp	r3, #0
 80030ec:	d113      	bne.n	8003116 <HAL_RTC_SetTime+0x6a>
  {
    assert_param(IS_RTC_HOUR24(sTime->Hours));
    assert_param(IS_RTC_MINUTES(sTime->Minutes));
    assert_param(IS_RTC_SECONDS(sTime->Seconds));

    counter_time = (uint32_t)(((uint32_t)sTime->Hours * 3600U) + \
 80030ee:	68bb      	ldr	r3, [r7, #8]
 80030f0:	781b      	ldrb	r3, [r3, #0]
 80030f2:	461a      	mov	r2, r3
 80030f4:	f44f 6361 	mov.w	r3, #3600	; 0xe10
 80030f8:	fb03 f202 	mul.w	r2, r3, r2
                              ((uint32_t)sTime->Minutes * 60U) + \
 80030fc:	68bb      	ldr	r3, [r7, #8]
 80030fe:	785b      	ldrb	r3, [r3, #1]
 8003100:	4619      	mov	r1, r3
 8003102:	460b      	mov	r3, r1
 8003104:	011b      	lsls	r3, r3, #4
 8003106:	1a5b      	subs	r3, r3, r1
 8003108:	009b      	lsls	r3, r3, #2
    counter_time = (uint32_t)(((uint32_t)sTime->Hours * 3600U) + \
 800310a:	4413      	add	r3, r2
                              ((uint32_t)sTime->Seconds));
 800310c:	68ba      	ldr	r2, [r7, #8]
 800310e:	7892      	ldrb	r2, [r2, #2]
    counter_time = (uint32_t)(((uint32_t)sTime->Hours * 3600U) + \
 8003110:	4413      	add	r3, r2
 8003112:	617b      	str	r3, [r7, #20]
 8003114:	e01e      	b.n	8003154 <HAL_RTC_SetTime+0xa8>
  {
    assert_param(IS_RTC_HOUR24(RTC_Bcd2ToByte(sTime->Hours)));
    assert_param(IS_RTC_MINUTES(RTC_Bcd2ToByte(sTime->Minutes)));
    assert_param(IS_RTC_SECONDS(RTC_Bcd2ToByte(sTime->Seconds)));

    counter_time = (((uint32_t)(RTC_Bcd2ToByte(sTime->Hours)) * 3600U) + \
 8003116:	68bb      	ldr	r3, [r7, #8]
 8003118:	781b      	ldrb	r3, [r3, #0]
 800311a:	4618      	mov	r0, r3
 800311c:	f000 fc4d 	bl	80039ba <RTC_Bcd2ToByte>
 8003120:	4603      	mov	r3, r0
 8003122:	461a      	mov	r2, r3
 8003124:	f44f 6361 	mov.w	r3, #3600	; 0xe10
 8003128:	fb03 f402 	mul.w	r4, r3, r2
                    ((uint32_t)(RTC_Bcd2ToByte(sTime->Minutes)) * 60U) + \
 800312c:	68bb      	ldr	r3, [r7, #8]
 800312e:	785b      	ldrb	r3, [r3, #1]
 8003130:	4618      	mov	r0, r3
 8003132:	f000 fc42 	bl	80039ba <RTC_Bcd2ToByte>
 8003136:	4603      	mov	r3, r0
 8003138:	461a      	mov	r2, r3
 800313a:	4613      	mov	r3, r2
 800313c:	011b      	lsls	r3, r3, #4
 800313e:	1a9b      	subs	r3, r3, r2
 8003140:	009b      	lsls	r3, r3, #2
    counter_time = (((uint32_t)(RTC_Bcd2ToByte(sTime->Hours)) * 3600U) + \
 8003142:	441c      	add	r4, r3
                    ((uint32_t)(RTC_Bcd2ToByte(sTime->Seconds))));
 8003144:	68bb      	ldr	r3, [r7, #8]
 8003146:	789b      	ldrb	r3, [r3, #2]
 8003148:	4618      	mov	r0, r3
 800314a:	f000 fc36 	bl	80039ba <RTC_Bcd2ToByte>
 800314e:	4603      	mov	r3, r0
    counter_time = (((uint32_t)(RTC_Bcd2ToByte(sTime->Hours)) * 3600U) + \
 8003150:	4423      	add	r3, r4
 8003152:	617b      	str	r3, [r7, #20]
  }

  /* Write time counter in RTC registers */
  if (RTC_WriteTimeCounter(hrtc, counter_time) != HAL_OK)
 8003154:	6979      	ldr	r1, [r7, #20]
 8003156:	68f8      	ldr	r0, [r7, #12]
 8003158:	f000 fb5b 	bl	8003812 <RTC_WriteTimeCounter>
 800315c:	4603      	mov	r3, r0
 800315e:	2b00      	cmp	r3, #0
 8003160:	d007      	beq.n	8003172 <HAL_RTC_SetTime+0xc6>
  {
    /* Set RTC state */
    hrtc->State = HAL_RTC_STATE_ERROR;
 8003162:	68fb      	ldr	r3, [r7, #12]
 8003164:	2204      	movs	r2, #4
 8003166:	745a      	strb	r2, [r3, #17]

    /* Process Unlocked */
    __HAL_UNLOCK(hrtc);
 8003168:	68fb      	ldr	r3, [r7, #12]
 800316a:	2200      	movs	r2, #0
 800316c:	741a      	strb	r2, [r3, #16]

    return HAL_ERROR;
 800316e:	2301      	movs	r3, #1
 8003170:	e02f      	b.n	80031d2 <HAL_RTC_SetTime+0x126>
  }
  else
  {
    /* Clear Second and overflow flags */
    CLEAR_BIT(hrtc->Instance->CRL, (RTC_FLAG_SEC | RTC_FLAG_OW));
 8003172:	68fb      	ldr	r3, [r7, #12]
 8003174:	681b      	ldr	r3, [r3, #0]
 8003176:	685a      	ldr	r2, [r3, #4]
 8003178:	68fb      	ldr	r3, [r7, #12]
 800317a:	681b      	ldr	r3, [r3, #0]
 800317c:	f022 0205 	bic.w	r2, r2, #5
 8003180:	605a      	str	r2, [r3, #4]

    /* Read current Alarm counter in RTC registers */
    counter_alarm = RTC_ReadAlarmCounter(hrtc);
 8003182:	68f8      	ldr	r0, [r7, #12]
 8003184:	f000 fb6c 	bl	8003860 <RTC_ReadAlarmCounter>
 8003188:	6138      	str	r0, [r7, #16]

    /* Set again alarm to match with new time if enabled */
    if (counter_alarm != RTC_ALARM_RESETVALUE)
 800318a:	693b      	ldr	r3, [r7, #16]
 800318c:	f1b3 3fff 	cmp.w	r3, #4294967295	; 0xffffffff
 8003190:	d018      	beq.n	80031c4 <HAL_RTC_SetTime+0x118>
    {
      if (counter_alarm < counter_time)
 8003192:	693a      	ldr	r2, [r7, #16]
 8003194:	697b      	ldr	r3, [r7, #20]
 8003196:	429a      	cmp	r2, r3
 8003198:	d214      	bcs.n	80031c4 <HAL_RTC_SetTime+0x118>
      {
        /* Add 1 day to alarm counter*/
        counter_alarm += (uint32_t)(24U * 3600U);
 800319a:	693b      	ldr	r3, [r7, #16]
 800319c:	f503 33a8 	add.w	r3, r3, #86016	; 0x15000
 80031a0:	f503 73c0 	add.w	r3, r3, #384	; 0x180
 80031a4:	613b      	str	r3, [r7, #16]

        /* Write new Alarm counter in RTC registers */
        if (RTC_WriteAlarmCounter(hrtc, counter_alarm) != HAL_OK)
 80031a6:	6939      	ldr	r1, [r7, #16]
 80031a8:	68f8      	ldr	r0, [r7, #12]
 80031aa:	f000 fb72 	bl	8003892 <RTC_WriteAlarmCounter>
 80031ae:	4603      	mov	r3, r0
 80031b0:	2b00      	cmp	r3, #0
 80031b2:	d007      	beq.n	80031c4 <HAL_RTC_SetTime+0x118>
        {
          /* Set RTC state */
          hrtc->State = HAL_RTC_STATE_ERROR;
 80031b4:	68fb      	ldr	r3, [r7, #12]
 80031b6:	2204      	movs	r2, #4
 80031b8:	745a      	strb	r2, [r3, #17]

          /* Process Unlocked */
          __HAL_UNLOCK(hrtc);
 80031ba:	68fb      	ldr	r3, [r7, #12]
 80031bc:	2200      	movs	r2, #0
 80031be:	741a      	strb	r2, [r3, #16]

          return HAL_ERROR;
 80031c0:	2301      	movs	r3, #1
 80031c2:	e006      	b.n	80031d2 <HAL_RTC_SetTime+0x126>
        }
      }
    }

    hrtc->State = HAL_RTC_STATE_READY;
 80031c4:	68fb      	ldr	r3, [r7, #12]
 80031c6:	2201      	movs	r2, #1
 80031c8:	745a      	strb	r2, [r3, #17]

    __HAL_UNLOCK(hrtc);
 80031ca:	68fb      	ldr	r3, [r7, #12]
 80031cc:	2200      	movs	r2, #0
 80031ce:	741a      	strb	r2, [r3, #16]

    return HAL_OK;
 80031d0:	2300      	movs	r3, #0
  }
}
 80031d2:	4618      	mov	r0, r3
 80031d4:	371c      	adds	r7, #28
 80031d6:	46bd      	mov	sp, r7
 80031d8:	bd90      	pop	{r4, r7, pc}
	...

080031dc <HAL_RTC_GetTime>:
  *            @arg RTC_FORMAT_BIN: Binary data format
  *            @arg RTC_FORMAT_BCD: BCD data format
  * @retval HAL status
  */
HAL_StatusTypeDef HAL_RTC_GetTime(RTC_HandleTypeDef *hrtc, RTC_TimeTypeDef *sTime, uint32_t Format)
{
 80031dc:	b580      	push	{r7, lr}
 80031de:	b088      	sub	sp, #32
 80031e0:	af00      	add	r7, sp, #0
 80031e2:	60f8      	str	r0, [r7, #12]
 80031e4:	60b9      	str	r1, [r7, #8]
 80031e6:	607a      	str	r2, [r7, #4]
  uint32_t counter_time = 0U, counter_alarm = 0U, days_elapsed = 0U, hours = 0U;
 80031e8:	2300      	movs	r3, #0
 80031ea:	61bb      	str	r3, [r7, #24]
 80031ec:	2300      	movs	r3, #0
 80031ee:	61fb      	str	r3, [r7, #28]
 80031f0:	2300      	movs	r3, #0
 80031f2:	617b      	str	r3, [r7, #20]
 80031f4:	2300      	movs	r3, #0
 80031f6:	613b      	str	r3, [r7, #16]

  /* Check input parameters */
  if ((hrtc == NULL) || (sTime == NULL))
 80031f8:	68fb      	ldr	r3, [r7, #12]
 80031fa:	2b00      	cmp	r3, #0
 80031fc:	d002      	beq.n	8003204 <HAL_RTC_GetTime+0x28>
 80031fe:	68bb      	ldr	r3, [r7, #8]
 8003200:	2b00      	cmp	r3, #0
 8003202:	d101      	bne.n	8003208 <HAL_RTC_GetTime+0x2c>
  {
    return HAL_ERROR;
 8003204:	2301      	movs	r3, #1
 8003206:	e0b5      	b.n	8003374 <HAL_RTC_GetTime+0x198>

  /* Check the parameters */
  assert_param(IS_RTC_FORMAT(Format));

  /* Check if counter overflow occurred */
  if (__HAL_RTC_OVERFLOW_GET_FLAG(hrtc, RTC_FLAG_OW))
 8003208:	68fb      	ldr	r3, [r7, #12]
 800320a:	681b      	ldr	r3, [r3, #0]
 800320c:	685b      	ldr	r3, [r3, #4]
 800320e:	f003 0304 	and.w	r3, r3, #4
 8003212:	2b00      	cmp	r3, #0
 8003214:	d001      	beq.n	800321a <HAL_RTC_GetTime+0x3e>
  {
    return HAL_ERROR;
 8003216:	2301      	movs	r3, #1
 8003218:	e0ac      	b.n	8003374 <HAL_RTC_GetTime+0x198>
  }

  /* Read the time counter*/
  counter_time = RTC_ReadTimeCounter(hrtc);
 800321a:	68f8      	ldr	r0, [r7, #12]
 800321c:	f000 fac9 	bl	80037b2 <RTC_ReadTimeCounter>
 8003220:	61b8      	str	r0, [r7, #24]

  /* Fill the structure fields with the read parameters */
  hours = counter_time / 3600U;
 8003222:	69bb      	ldr	r3, [r7, #24]
 8003224:	4a55      	ldr	r2, [pc, #340]	; (800337c <HAL_RTC_GetTime+0x1a0>)
 8003226:	fba2 2303 	umull	r2, r3, r2, r3
 800322a:	0adb      	lsrs	r3, r3, #11
 800322c:	613b      	str	r3, [r7, #16]
  sTime->Minutes  = (uint8_t)((counter_time % 3600U) / 60U);
 800322e:	69ba      	ldr	r2, [r7, #24]
 8003230:	4b52      	ldr	r3, [pc, #328]	; (800337c <HAL_RTC_GetTime+0x1a0>)
 8003232:	fba3 1302 	umull	r1, r3, r3, r2
 8003236:	0adb      	lsrs	r3, r3, #11
 8003238:	f44f 6161 	mov.w	r1, #3600	; 0xe10
 800323c:	fb01 f303 	mul.w	r3, r1, r3
 8003240:	1ad3      	subs	r3, r2, r3
 8003242:	4a4f      	ldr	r2, [pc, #316]	; (8003380 <HAL_RTC_GetTime+0x1a4>)
 8003244:	fba2 2303 	umull	r2, r3, r2, r3
 8003248:	095b      	lsrs	r3, r3, #5
 800324a:	b2da      	uxtb	r2, r3
 800324c:	68bb      	ldr	r3, [r7, #8]
 800324e:	705a      	strb	r2, [r3, #1]
  sTime->Seconds  = (uint8_t)((counter_time % 3600U) % 60U);
 8003250:	69bb      	ldr	r3, [r7, #24]
 8003252:	4a4a      	ldr	r2, [pc, #296]	; (800337c <HAL_RTC_GetTime+0x1a0>)
 8003254:	fba2 1203 	umull	r1, r2, r2, r3
 8003258:	0ad2      	lsrs	r2, r2, #11
 800325a:	f44f 6161 	mov.w	r1, #3600	; 0xe10
 800325e:	fb01 f202 	mul.w	r2, r1, r2
 8003262:	1a9a      	subs	r2, r3, r2
 8003264:	4b46      	ldr	r3, [pc, #280]	; (8003380 <HAL_RTC_GetTime+0x1a4>)
 8003266:	fba3 1302 	umull	r1, r3, r3, r2
 800326a:	0959      	lsrs	r1, r3, #5
 800326c:	460b      	mov	r3, r1
 800326e:	011b      	lsls	r3, r3, #4
 8003270:	1a5b      	subs	r3, r3, r1
 8003272:	009b      	lsls	r3, r3, #2
 8003274:	1ad1      	subs	r1, r2, r3
 8003276:	b2ca      	uxtb	r2, r1
 8003278:	68bb      	ldr	r3, [r7, #8]
 800327a:	709a      	strb	r2, [r3, #2]

  if (hours >= 24U)
 800327c:	693b      	ldr	r3, [r7, #16]
 800327e:	2b17      	cmp	r3, #23
 8003280:	d955      	bls.n	800332e <HAL_RTC_GetTime+0x152>
  {
    /* Get number of days elapsed from last calculation */
    days_elapsed = (hours / 24U);
 8003282:	693b      	ldr	r3, [r7, #16]
 8003284:	4a3f      	ldr	r2, [pc, #252]	; (8003384 <HAL_RTC_GetTime+0x1a8>)
 8003286:	fba2 2303 	umull	r2, r3, r2, r3
 800328a:	091b      	lsrs	r3, r3, #4
 800328c:	617b      	str	r3, [r7, #20]

    /* Set Hours in RTC_TimeTypeDef structure*/
    sTime->Hours = (hours % 24U);
 800328e:	6939      	ldr	r1, [r7, #16]
 8003290:	4b3c      	ldr	r3, [pc, #240]	; (8003384 <HAL_RTC_GetTime+0x1a8>)
 8003292:	fba3 2301 	umull	r2, r3, r3, r1
 8003296:	091a      	lsrs	r2, r3, #4
 8003298:	4613      	mov	r3, r2
 800329a:	005b      	lsls	r3, r3, #1
 800329c:	4413      	add	r3, r2
 800329e:	00db      	lsls	r3, r3, #3
 80032a0:	1aca      	subs	r2, r1, r3
 80032a2:	b2d2      	uxtb	r2, r2
 80032a4:	68bb      	ldr	r3, [r7, #8]
 80032a6:	701a      	strb	r2, [r3, #0]

    /* Read Alarm counter in RTC registers */
    counter_alarm = RTC_ReadAlarmCounter(hrtc);
 80032a8:	68f8      	ldr	r0, [r7, #12]
 80032aa:	f000 fad9 	bl	8003860 <RTC_ReadAlarmCounter>
 80032ae:	61f8      	str	r0, [r7, #28]

    /* Calculate remaining time to reach alarm (only if set and not yet expired)*/
    if ((counter_alarm != RTC_ALARM_RESETVALUE) && (counter_alarm > counter_time))
 80032b0:	69fb      	ldr	r3, [r7, #28]
 80032b2:	f1b3 3fff 	cmp.w	r3, #4294967295	; 0xffffffff
 80032b6:	d008      	beq.n	80032ca <HAL_RTC_GetTime+0xee>
 80032b8:	69fa      	ldr	r2, [r7, #28]
 80032ba:	69bb      	ldr	r3, [r7, #24]
 80032bc:	429a      	cmp	r2, r3
 80032be:	d904      	bls.n	80032ca <HAL_RTC_GetTime+0xee>
    {
      counter_alarm -= counter_time;
 80032c0:	69fa      	ldr	r2, [r7, #28]
 80032c2:	69bb      	ldr	r3, [r7, #24]
 80032c4:	1ad3      	subs	r3, r2, r3
 80032c6:	61fb      	str	r3, [r7, #28]
 80032c8:	e002      	b.n	80032d0 <HAL_RTC_GetTime+0xf4>
    }
    else
    {
      /* In case of counter_alarm < counter_time */
      /* Alarm expiration already occurred but alarm not deactivated */
      counter_alarm = RTC_ALARM_RESETVALUE;
 80032ca:	f04f 33ff 	mov.w	r3, #4294967295	; 0xffffffff
 80032ce:	61fb      	str	r3, [r7, #28]
    }

    /* Set updated time in decreasing counter by number of days elapsed */
    counter_time -= (days_elapsed * 24U * 3600U);
 80032d0:	697b      	ldr	r3, [r7, #20]
 80032d2:	4a2d      	ldr	r2, [pc, #180]	; (8003388 <HAL_RTC_GetTime+0x1ac>)
 80032d4:	fb02 f303 	mul.w	r3, r2, r3
 80032d8:	69ba      	ldr	r2, [r7, #24]
 80032da:	1ad3      	subs	r3, r2, r3
 80032dc:	61bb      	str	r3, [r7, #24]

    /* Write time counter in RTC registers */
    if (RTC_WriteTimeCounter(hrtc, counter_time) != HAL_OK)
 80032de:	69b9      	ldr	r1, [r7, #24]
 80032e0:	68f8      	ldr	r0, [r7, #12]
 80032e2:	f000 fa96 	bl	8003812 <RTC_WriteTimeCounter>
 80032e6:	4603      	mov	r3, r0
 80032e8:	2b00      	cmp	r3, #0
 80032ea:	d001      	beq.n	80032f0 <HAL_RTC_GetTime+0x114>
    {
      return HAL_ERROR;
 80032ec:	2301      	movs	r3, #1
 80032ee:	e041      	b.n	8003374 <HAL_RTC_GetTime+0x198>
    }

    /* Set updated alarm to be set */
    if (counter_alarm != RTC_ALARM_RESETVALUE)
 80032f0:	69fb      	ldr	r3, [r7, #28]
 80032f2:	f1b3 3fff 	cmp.w	r3, #4294967295	; 0xffffffff
 80032f6:	d00c      	beq.n	8003312 <HAL_RTC_GetTime+0x136>
    {
      counter_alarm += counter_time;
 80032f8:	69fa      	ldr	r2, [r7, #28]
 80032fa:	69bb      	ldr	r3, [r7, #24]
 80032fc:	4413      	add	r3, r2
 80032fe:	61fb      	str	r3, [r7, #28]

      /* Write time counter in RTC registers */
      if (RTC_WriteAlarmCounter(hrtc, counter_alarm) != HAL_OK)
 8003300:	69f9      	ldr	r1, [r7, #28]
 8003302:	68f8      	ldr	r0, [r7, #12]
 8003304:	f000 fac5 	bl	8003892 <RTC_WriteAlarmCounter>
 8003308:	4603      	mov	r3, r0
 800330a:	2b00      	cmp	r3, #0
 800330c:	d00a      	beq.n	8003324 <HAL_RTC_GetTime+0x148>
      {
        return HAL_ERROR;
 800330e:	2301      	movs	r3, #1
 8003310:	e030      	b.n	8003374 <HAL_RTC_GetTime+0x198>
      }
    }
    else
    {
      /* Alarm already occurred. Set it to reset values to avoid unexpected expiration */
      if (RTC_WriteAlarmCounter(hrtc, counter_alarm) != HAL_OK)
 8003312:	69f9      	ldr	r1, [r7, #28]
 8003314:	68f8      	ldr	r0, [r7, #12]
 8003316:	f000 fabc 	bl	8003892 <RTC_WriteAlarmCounter>
 800331a:	4603      	mov	r3, r0
 800331c:	2b00      	cmp	r3, #0
 800331e:	d001      	beq.n	8003324 <HAL_RTC_GetTime+0x148>
      {
        return HAL_ERROR;
 8003320:	2301      	movs	r3, #1
 8003322:	e027      	b.n	8003374 <HAL_RTC_GetTime+0x198>
      }
    }

    /* Update date */
    RTC_DateUpdate(hrtc, days_elapsed);
 8003324:	6979      	ldr	r1, [r7, #20]
 8003326:	68f8      	ldr	r0, [r7, #12]
 8003328:	f000 fb64 	bl	80039f4 <RTC_DateUpdate>
 800332c:	e003      	b.n	8003336 <HAL_RTC_GetTime+0x15a>
  }
  else
  {
    sTime->Hours = hours;
 800332e:	693b      	ldr	r3, [r7, #16]
 8003330:	b2da      	uxtb	r2, r3
 8003332:	68bb      	ldr	r3, [r7, #8]
 8003334:	701a      	strb	r2, [r3, #0]
  }

  /* Check the input parameters format */
  if (Format != RTC_FORMAT_BIN)
 8003336:	687b      	ldr	r3, [r7, #4]
 8003338:	2b00      	cmp	r3, #0
 800333a:	d01a      	beq.n	8003372 <HAL_RTC_GetTime+0x196>
  {
    /* Convert the time structure parameters to BCD format */
    sTime->Hours    = (uint8_t)RTC_ByteToBcd2(sTime->Hours);
 800333c:	68bb      	ldr	r3, [r7, #8]
 800333e:	781b      	ldrb	r3, [r3, #0]
 8003340:	4618      	mov	r0, r3
 8003342:	f000 fb1d 	bl	8003980 <RTC_ByteToBcd2>
 8003346:	4603      	mov	r3, r0
 8003348:	461a      	mov	r2, r3
 800334a:	68bb      	ldr	r3, [r7, #8]
 800334c:	701a      	strb	r2, [r3, #0]
    sTime->Minutes  = (uint8_t)RTC_ByteToBcd2(sTime->Minutes);
 800334e:	68bb      	ldr	r3, [r7, #8]
 8003350:	785b      	ldrb	r3, [r3, #1]
 8003352:	4618      	mov	r0, r3
 8003354:	f000 fb14 	bl	8003980 <RTC_ByteToBcd2>
 8003358:	4603      	mov	r3, r0
 800335a:	461a      	mov	r2, r3
 800335c:	68bb      	ldr	r3, [r7, #8]
 800335e:	705a      	strb	r2, [r3, #1]
    sTime->Seconds  = (uint8_t)RTC_ByteToBcd2(sTime->Seconds);
 8003360:	68bb      	ldr	r3, [r7, #8]
 8003362:	789b      	ldrb	r3, [r3, #2]
 8003364:	4618      	mov	r0, r3
 8003366:	f000 fb0b 	bl	8003980 <RTC_ByteToBcd2>
 800336a:	4603      	mov	r3, r0
 800336c:	461a      	mov	r2, r3
 800336e:	68bb      	ldr	r3, [r7, #8]
 8003370:	709a      	strb	r2, [r3, #2]
  }

  return HAL_OK;
 8003372:	2300      	movs	r3, #0
}
 8003374:	4618      	mov	r0, r3
 8003376:	3720      	adds	r7, #32
 8003378:	46bd      	mov	sp, r7
 800337a:	bd80      	pop	{r7, pc}
 800337c:	91a2b3c5 	.word	0x91a2b3c5
 8003380:	88888889 	.word	0x88888889
 8003384:	aaaaaaab 	.word	0xaaaaaaab
 8003388:	00015180 	.word	0x00015180

0800338c <HAL_RTC_SetDate>:
  *            @arg RTC_FORMAT_BIN: Binary data format
  *            @arg RTC_FORMAT_BCD: BCD data format
  * @retval HAL status
  */
HAL_StatusTypeDef HAL_RTC_SetDate(RTC_HandleTypeDef *hrtc, RTC_DateTypeDef *sDate, uint32_t Format)
{
 800338c:	b580      	push	{r7, lr}
 800338e:	b088      	sub	sp, #32
 8003390:	af00      	add	r7, sp, #0
 8003392:	60f8      	str	r0, [r7, #12]
 8003394:	60b9      	str	r1, [r7, #8]
 8003396:	607a      	str	r2, [r7, #4]
  uint32_t counter_time = 0U, counter_alarm = 0U, hours = 0U;
 8003398:	2300      	movs	r3, #0
 800339a:	61fb      	str	r3, [r7, #28]
 800339c:	2300      	movs	r3, #0
 800339e:	61bb      	str	r3, [r7, #24]
 80033a0:	2300      	movs	r3, #0
 80033a2:	617b      	str	r3, [r7, #20]

  /* Check input parameters */
  if ((hrtc == NULL) || (sDate == NULL))
 80033a4:	68fb      	ldr	r3, [r7, #12]
 80033a6:	2b00      	cmp	r3, #0
 80033a8:	d002      	beq.n	80033b0 <HAL_RTC_SetDate+0x24>
 80033aa:	68bb      	ldr	r3, [r7, #8]
 80033ac:	2b00      	cmp	r3, #0
 80033ae:	d101      	bne.n	80033b4 <HAL_RTC_SetDate+0x28>
  {
    return HAL_ERROR;
 80033b0:	2301      	movs	r3, #1
 80033b2:	e097      	b.n	80034e4 <HAL_RTC_SetDate+0x158>

  /* Check the parameters */
  assert_param(IS_RTC_FORMAT(Format));

  /* Process Locked */
  __HAL_LOCK(hrtc);
 80033b4:	68fb      	ldr	r3, [r7, #12]
 80033b6:	7c1b      	ldrb	r3, [r3, #16]
 80033b8:	2b01      	cmp	r3, #1
 80033ba:	d101      	bne.n	80033c0 <HAL_RTC_SetDate+0x34>
 80033bc:	2302      	movs	r3, #2
 80033be:	e091      	b.n	80034e4 <HAL_RTC_SetDate+0x158>
 80033c0:	68fb      	ldr	r3, [r7, #12]
 80033c2:	2201      	movs	r2, #1
 80033c4:	741a      	strb	r2, [r3, #16]

  hrtc->State = HAL_RTC_STATE_BUSY;
 80033c6:	68fb      	ldr	r3, [r7, #12]
 80033c8:	2202      	movs	r2, #2
 80033ca:	745a      	strb	r2, [r3, #17]

  if (Format == RTC_FORMAT_BIN)
 80033cc:	687b      	ldr	r3, [r7, #4]
 80033ce:	2b00      	cmp	r3, #0
 80033d0:	d10c      	bne.n	80033ec <HAL_RTC_SetDate+0x60>
    assert_param(IS_RTC_YEAR(sDate->Year));
    assert_param(IS_RTC_MONTH(sDate->Month));
    assert_param(IS_RTC_DATE(sDate->Date));

    /* Change the current date */
    hrtc->DateToUpdate.Year  = sDate->Year;
 80033d2:	68bb      	ldr	r3, [r7, #8]
 80033d4:	78da      	ldrb	r2, [r3, #3]
 80033d6:	68fb      	ldr	r3, [r7, #12]
 80033d8:	73da      	strb	r2, [r3, #15]
    hrtc->DateToUpdate.Month = sDate->Month;
 80033da:	68bb      	ldr	r3, [r7, #8]
 80033dc:	785a      	ldrb	r2, [r3, #1]
 80033de:	68fb      	ldr	r3, [r7, #12]
 80033e0:	735a      	strb	r2, [r3, #13]
    hrtc->DateToUpdate.Date  = sDate->Date;
 80033e2:	68bb      	ldr	r3, [r7, #8]
 80033e4:	789a      	ldrb	r2, [r3, #2]
 80033e6:	68fb      	ldr	r3, [r7, #12]
 80033e8:	739a      	strb	r2, [r3, #14]
 80033ea:	e01a      	b.n	8003422 <HAL_RTC_SetDate+0x96>
    assert_param(IS_RTC_YEAR(RTC_Bcd2ToByte(sDate->Year)));
    assert_param(IS_RTC_MONTH(RTC_Bcd2ToByte(sDate->Month)));
    assert_param(IS_RTC_DATE(RTC_Bcd2ToByte(sDate->Date)));

    /* Change the current date */
    hrtc->DateToUpdate.Year  = RTC_Bcd2ToByte(sDate->Year);
 80033ec:	68bb      	ldr	r3, [r7, #8]
 80033ee:	78db      	ldrb	r3, [r3, #3]
 80033f0:	4618      	mov	r0, r3
 80033f2:	f000 fae2 	bl	80039ba <RTC_Bcd2ToByte>
 80033f6:	4603      	mov	r3, r0
 80033f8:	461a      	mov	r2, r3
 80033fa:	68fb      	ldr	r3, [r7, #12]
 80033fc:	73da      	strb	r2, [r3, #15]
    hrtc->DateToUpdate.Month = RTC_Bcd2ToByte(sDate->Month);
 80033fe:	68bb      	ldr	r3, [r7, #8]
 8003400:	785b      	ldrb	r3, [r3, #1]
 8003402:	4618      	mov	r0, r3
 8003404:	f000 fad9 	bl	80039ba <RTC_Bcd2ToByte>
 8003408:	4603      	mov	r3, r0
 800340a:	461a      	mov	r2, r3
 800340c:	68fb      	ldr	r3, [r7, #12]
 800340e:	735a      	strb	r2, [r3, #13]
    hrtc->DateToUpdate.Date  = RTC_Bcd2ToByte(sDate->Date);
 8003410:	68bb      	ldr	r3, [r7, #8]
 8003412:	789b      	ldrb	r3, [r3, #2]
 8003414:	4618      	mov	r0, r3
 8003416:	f000 fad0 	bl	80039ba <RTC_Bcd2ToByte>
 800341a:	4603      	mov	r3, r0
 800341c:	461a      	mov	r2, r3
 800341e:	68fb      	ldr	r3, [r7, #12]
 8003420:	739a      	strb	r2, [r3, #14]
  }

  /* WeekDay set by user can be ignored because automatically calculated */
  hrtc->DateToUpdate.WeekDay = RTC_WeekDayNum(hrtc->DateToUpdate.Year, hrtc->DateToUpdate.Month, hrtc->DateToUpdate.Date);
 8003422:	68fb      	ldr	r3, [r7, #12]
 8003424:	7bdb      	ldrb	r3, [r3, #15]
 8003426:	4618      	mov	r0, r3
 8003428:	68fb      	ldr	r3, [r7, #12]
 800342a:	7b59      	ldrb	r1, [r3, #13]
 800342c:	68fb      	ldr	r3, [r7, #12]
 800342e:	7b9b      	ldrb	r3, [r3, #14]
 8003430:	461a      	mov	r2, r3
 8003432:	f000 fbbb 	bl	8003bac <RTC_WeekDayNum>
 8003436:	4603      	mov	r3, r0
 8003438:	461a      	mov	r2, r3
 800343a:	68fb      	ldr	r3, [r7, #12]
 800343c:	731a      	strb	r2, [r3, #12]
  sDate->WeekDay = hrtc->DateToUpdate.WeekDay;
 800343e:	68fb      	ldr	r3, [r7, #12]
 8003440:	7b1a      	ldrb	r2, [r3, #12]
 8003442:	68bb      	ldr	r3, [r7, #8]
 8003444:	701a      	strb	r2, [r3, #0]

  /* Reset time to be aligned on the same day */
  /* Read the time counter*/
  counter_time = RTC_ReadTimeCounter(hrtc);
 8003446:	68f8      	ldr	r0, [r7, #12]
 8003448:	f000 f9b3 	bl	80037b2 <RTC_ReadTimeCounter>
 800344c:	61f8      	str	r0, [r7, #28]

  /* Fill the structure fields with the read parameters */
  hours = counter_time / 3600U;
 800344e:	69fb      	ldr	r3, [r7, #28]
 8003450:	4a26      	ldr	r2, [pc, #152]	; (80034ec <HAL_RTC_SetDate+0x160>)
 8003452:	fba2 2303 	umull	r2, r3, r2, r3
 8003456:	0adb      	lsrs	r3, r3, #11
 8003458:	617b      	str	r3, [r7, #20]
  if (hours > 24U)
 800345a:	697b      	ldr	r3, [r7, #20]
 800345c:	2b18      	cmp	r3, #24
 800345e:	d93a      	bls.n	80034d6 <HAL_RTC_SetDate+0x14a>
  {
    /* Set updated time in decreasing counter by number of days elapsed */
    counter_time -= ((hours / 24U) * 24U * 3600U);
 8003460:	697b      	ldr	r3, [r7, #20]
 8003462:	4a23      	ldr	r2, [pc, #140]	; (80034f0 <HAL_RTC_SetDate+0x164>)
 8003464:	fba2 2303 	umull	r2, r3, r2, r3
 8003468:	091b      	lsrs	r3, r3, #4
 800346a:	4a22      	ldr	r2, [pc, #136]	; (80034f4 <HAL_RTC_SetDate+0x168>)
 800346c:	fb02 f303 	mul.w	r3, r2, r3
 8003470:	69fa      	ldr	r2, [r7, #28]
 8003472:	1ad3      	subs	r3, r2, r3
 8003474:	61fb      	str	r3, [r7, #28]
    /* Write time counter in RTC registers */
    if (RTC_WriteTimeCounter(hrtc, counter_time) != HAL_OK)
 8003476:	69f9      	ldr	r1, [r7, #28]
 8003478:	68f8      	ldr	r0, [r7, #12]
 800347a:	f000 f9ca 	bl	8003812 <RTC_WriteTimeCounter>
 800347e:	4603      	mov	r3, r0
 8003480:	2b00      	cmp	r3, #0
 8003482:	d007      	beq.n	8003494 <HAL_RTC_SetDate+0x108>
    {
      /* Set RTC state */
      hrtc->State = HAL_RTC_STATE_ERROR;
 8003484:	68fb      	ldr	r3, [r7, #12]
 8003486:	2204      	movs	r2, #4
 8003488:	745a      	strb	r2, [r3, #17]

      /* Process Unlocked */
      __HAL_UNLOCK(hrtc);
 800348a:	68fb      	ldr	r3, [r7, #12]
 800348c:	2200      	movs	r2, #0
 800348e:	741a      	strb	r2, [r3, #16]

      return HAL_ERROR;
 8003490:	2301      	movs	r3, #1
 8003492:	e027      	b.n	80034e4 <HAL_RTC_SetDate+0x158>
    }

    /* Read current Alarm counter in RTC registers */
    counter_alarm = RTC_ReadAlarmCounter(hrtc);
 8003494:	68f8      	ldr	r0, [r7, #12]
 8003496:	f000 f9e3 	bl	8003860 <RTC_ReadAlarmCounter>
 800349a:	61b8      	str	r0, [r7, #24]

    /* Set again alarm to match with new time if enabled */
    if (counter_alarm != RTC_ALARM_RESETVALUE)
 800349c:	69bb      	ldr	r3, [r7, #24]
 800349e:	f1b3 3fff 	cmp.w	r3, #4294967295	; 0xffffffff
 80034a2:	d018      	beq.n	80034d6 <HAL_RTC_SetDate+0x14a>
    {
      if (counter_alarm < counter_time)
 80034a4:	69ba      	ldr	r2, [r7, #24]
 80034a6:	69fb      	ldr	r3, [r7, #28]
 80034a8:	429a      	cmp	r2, r3
 80034aa:	d214      	bcs.n	80034d6 <HAL_RTC_SetDate+0x14a>
      {
        /* Add 1 day to alarm counter*/
        counter_alarm += (uint32_t)(24U * 3600U);
 80034ac:	69bb      	ldr	r3, [r7, #24]
 80034ae:	f503 33a8 	add.w	r3, r3, #86016	; 0x15000
 80034b2:	f503 73c0 	add.w	r3, r3, #384	; 0x180
 80034b6:	61bb      	str	r3, [r7, #24]

        /* Write new Alarm counter in RTC registers */
        if (RTC_WriteAlarmCounter(hrtc, counter_alarm) != HAL_OK)
 80034b8:	69b9      	ldr	r1, [r7, #24]
 80034ba:	68f8      	ldr	r0, [r7, #12]
 80034bc:	f000 f9e9 	bl	8003892 <RTC_WriteAlarmCounter>
 80034c0:	4603      	mov	r3, r0
 80034c2:	2b00      	cmp	r3, #0
 80034c4:	d007      	beq.n	80034d6 <HAL_RTC_SetDate+0x14a>
        {
          /* Set RTC state */
          hrtc->State = HAL_RTC_STATE_ERROR;
 80034c6:	68fb      	ldr	r3, [r7, #12]
 80034c8:	2204      	movs	r2, #4
 80034ca:	745a      	strb	r2, [r3, #17]

          /* Process Unlocked */
          __HAL_UNLOCK(hrtc);
 80034cc:	68fb      	ldr	r3, [r7, #12]
 80034ce:	2200      	movs	r2, #0
 80034d0:	741a      	strb	r2, [r3, #16]

          return HAL_ERROR;
 80034d2:	2301      	movs	r3, #1
 80034d4:	e006      	b.n	80034e4 <HAL_RTC_SetDate+0x158>
    }


  }

  hrtc->State = HAL_RTC_STATE_READY ;
 80034d6:	68fb      	ldr	r3, [r7, #12]
 80034d8:	2201      	movs	r2, #1
 80034da:	745a      	strb	r2, [r3, #17]

  /* Process Unlocked */
  __HAL_UNLOCK(hrtc);
 80034dc:	68fb      	ldr	r3, [r7, #12]
 80034de:	2200      	movs	r2, #0
 80034e0:	741a      	strb	r2, [r3, #16]

  return HAL_OK;
 80034e2:	2300      	movs	r3, #0
}
 80034e4:	4618      	mov	r0, r3
 80034e6:	3720      	adds	r7, #32
 80034e8:	46bd      	mov	sp, r7
 80034ea:	bd80      	pop	{r7, pc}
 80034ec:	91a2b3c5 	.word	0x91a2b3c5
 80034f0:	aaaaaaab 	.word	0xaaaaaaab
 80034f4:	00015180 	.word	0x00015180

080034f8 <HAL_RTC_GetDate>:
  *            @arg RTC_FORMAT_BIN:  Binary data format
  *            @arg RTC_FORMAT_BCD:  BCD data format
  * @retval HAL status
  */
HAL_StatusTypeDef HAL_RTC_GetDate(RTC_HandleTypeDef *hrtc, RTC_DateTypeDef *sDate, uint32_t Format)
{
 80034f8:	b580      	push	{r7, lr}
 80034fa:	b086      	sub	sp, #24
 80034fc:	af00      	add	r7, sp, #0
 80034fe:	60f8      	str	r0, [r7, #12]
 8003500:	60b9      	str	r1, [r7, #8]
 8003502:	607a      	str	r2, [r7, #4]
  RTC_TimeTypeDef stime = {0U};
 8003504:	f107 0314 	add.w	r3, r7, #20
 8003508:	2100      	movs	r1, #0
 800350a:	460a      	mov	r2, r1
 800350c:	801a      	strh	r2, [r3, #0]
 800350e:	460a      	mov	r2, r1
 8003510:	709a      	strb	r2, [r3, #2]

  /* Check input parameters */
  if ((hrtc == NULL) || (sDate == NULL))
 8003512:	68fb      	ldr	r3, [r7, #12]
 8003514:	2b00      	cmp	r3, #0
 8003516:	d002      	beq.n	800351e <HAL_RTC_GetDate+0x26>
 8003518:	68bb      	ldr	r3, [r7, #8]
 800351a:	2b00      	cmp	r3, #0
 800351c:	d101      	bne.n	8003522 <HAL_RTC_GetDate+0x2a>
  {
    return HAL_ERROR;
 800351e:	2301      	movs	r3, #1
 8003520:	e03a      	b.n	8003598 <HAL_RTC_GetDate+0xa0>

  /* Check the parameters */
  assert_param(IS_RTC_FORMAT(Format));

  /* Call HAL_RTC_GetTime function to update date if counter higher than 24 hours */
  if (HAL_RTC_GetTime(hrtc, &stime, RTC_FORMAT_BIN) != HAL_OK)
 8003522:	f107 0314 	add.w	r3, r7, #20
 8003526:	2200      	movs	r2, #0
 8003528:	4619      	mov	r1, r3
 800352a:	68f8      	ldr	r0, [r7, #12]
 800352c:	f7ff fe56 	bl	80031dc <HAL_RTC_GetTime>
 8003530:	4603      	mov	r3, r0
 8003532:	2b00      	cmp	r3, #0
 8003534:	d001      	beq.n	800353a <HAL_RTC_GetDate+0x42>
  {
    return HAL_ERROR;
 8003536:	2301      	movs	r3, #1
 8003538:	e02e      	b.n	8003598 <HAL_RTC_GetDate+0xa0>
  }

  /* Fill the structure fields with the read parameters */
  sDate->WeekDay  = hrtc->DateToUpdate.WeekDay;
 800353a:	68fb      	ldr	r3, [r7, #12]
 800353c:	7b1a      	ldrb	r2, [r3, #12]
 800353e:	68bb      	ldr	r3, [r7, #8]
 8003540:	701a      	strb	r2, [r3, #0]
  sDate->Year     = hrtc->DateToUpdate.Year;
 8003542:	68fb      	ldr	r3, [r7, #12]
 8003544:	7bda      	ldrb	r2, [r3, #15]
 8003546:	68bb      	ldr	r3, [r7, #8]
 8003548:	70da      	strb	r2, [r3, #3]
  sDate->Month    = hrtc->DateToUpdate.Month;
 800354a:	68fb      	ldr	r3, [r7, #12]
 800354c:	7b5a      	ldrb	r2, [r3, #13]
 800354e:	68bb      	ldr	r3, [r7, #8]
 8003550:	705a      	strb	r2, [r3, #1]
  sDate->Date     = hrtc->DateToUpdate.Date;
 8003552:	68fb      	ldr	r3, [r7, #12]
 8003554:	7b9a      	ldrb	r2, [r3, #14]
 8003556:	68bb      	ldr	r3, [r7, #8]
 8003558:	709a      	strb	r2, [r3, #2]

  /* Check the input parameters format */
  if (Format != RTC_FORMAT_BIN)
 800355a:	687b      	ldr	r3, [r7, #4]
 800355c:	2b00      	cmp	r3, #0
 800355e:	d01a      	beq.n	8003596 <HAL_RTC_GetDate+0x9e>
  {
    /* Convert the date structure parameters to BCD format */
    sDate->Year   = (uint8_t)RTC_ByteToBcd2(sDate->Year);
 8003560:	68bb      	ldr	r3, [r7, #8]
 8003562:	78db      	ldrb	r3, [r3, #3]
 8003564:	4618      	mov	r0, r3
 8003566:	f000 fa0b 	bl	8003980 <RTC_ByteToBcd2>
 800356a:	4603      	mov	r3, r0
 800356c:	461a      	mov	r2, r3
 800356e:	68bb      	ldr	r3, [r7, #8]
 8003570:	70da      	strb	r2, [r3, #3]
    sDate->Month  = (uint8_t)RTC_ByteToBcd2(sDate->Month);
 8003572:	68bb      	ldr	r3, [r7, #8]
 8003574:	785b      	ldrb	r3, [r3, #1]
 8003576:	4618      	mov	r0, r3
 8003578:	f000 fa02 	bl	8003980 <RTC_ByteToBcd2>
 800357c:	4603      	mov	r3, r0
 800357e:	461a      	mov	r2, r3
 8003580:	68bb      	ldr	r3, [r7, #8]
 8003582:	705a      	strb	r2, [r3, #1]
    sDate->Date   = (uint8_t)RTC_ByteToBcd2(sDate->Date);
 8003584:	68bb      	ldr	r3, [r7, #8]
 8003586:	789b      	ldrb	r3, [r3, #2]
 8003588:	4618      	mov	r0, r3
 800358a:	f000 f9f9 	bl	8003980 <RTC_ByteToBcd2>
 800358e:	4603      	mov	r3, r0
 8003590:	461a      	mov	r2, r3
 8003592:	68bb      	ldr	r3, [r7, #8]
 8003594:	709a      	strb	r2, [r3, #2]
  }
  return HAL_OK;
 8003596:	2300      	movs	r3, #0
}
 8003598:	4618      	mov	r0, r3
 800359a:	3718      	adds	r7, #24
 800359c:	46bd      	mov	sp, r7
 800359e:	bd80      	pop	{r7, pc}

080035a0 <HAL_RTC_SetAlarm_IT>:
  *             @arg RTC_FORMAT_BCD: BCD data format
  * @note   The HAL_RTC_SetTime() must be called before enabling the Alarm feature.
  * @retval HAL status
  */
HAL_StatusTypeDef HAL_RTC_SetAlarm_IT(RTC_HandleTypeDef *hrtc, RTC_AlarmTypeDef *sAlarm, uint32_t Format)
{
 80035a0:	b590      	push	{r4, r7, lr}
 80035a2:	b089      	sub	sp, #36	; 0x24
 80035a4:	af00      	add	r7, sp, #0
 80035a6:	60f8      	str	r0, [r7, #12]
 80035a8:	60b9      	str	r1, [r7, #8]
 80035aa:	607a      	str	r2, [r7, #4]
  uint32_t counter_alarm = 0U, counter_time;
 80035ac:	2300      	movs	r3, #0
 80035ae:	61fb      	str	r3, [r7, #28]
  RTC_TimeTypeDef stime = {0U};
 80035b0:	f107 0314 	add.w	r3, r7, #20
 80035b4:	2100      	movs	r1, #0
 80035b6:	460a      	mov	r2, r1
 80035b8:	801a      	strh	r2, [r3, #0]
 80035ba:	460a      	mov	r2, r1
 80035bc:	709a      	strb	r2, [r3, #2]

  /* Check input parameters */
  if ((hrtc == NULL) || (sAlarm == NULL))
 80035be:	68fb      	ldr	r3, [r7, #12]
 80035c0:	2b00      	cmp	r3, #0
 80035c2:	d002      	beq.n	80035ca <HAL_RTC_SetAlarm_IT+0x2a>
 80035c4:	68bb      	ldr	r3, [r7, #8]
 80035c6:	2b00      	cmp	r3, #0
 80035c8:	d101      	bne.n	80035ce <HAL_RTC_SetAlarm_IT+0x2e>
  {
    return HAL_ERROR;
 80035ca:	2301      	movs	r3, #1
 80035cc:	e096      	b.n	80036fc <HAL_RTC_SetAlarm_IT+0x15c>
  /* Check the parameters */
  assert_param(IS_RTC_FORMAT(Format));
  assert_param(IS_RTC_ALARM(sAlarm->Alarm));

  /* Process Locked */
  __HAL_LOCK(hrtc);
 80035ce:	68fb      	ldr	r3, [r7, #12]
 80035d0:	7c1b      	ldrb	r3, [r3, #16]
 80035d2:	2b01      	cmp	r3, #1
 80035d4:	d101      	bne.n	80035da <HAL_RTC_SetAlarm_IT+0x3a>
 80035d6:	2302      	movs	r3, #2
 80035d8:	e090      	b.n	80036fc <HAL_RTC_SetAlarm_IT+0x15c>
 80035da:	68fb      	ldr	r3, [r7, #12]
 80035dc:	2201      	movs	r2, #1
 80035de:	741a      	strb	r2, [r3, #16]

  hrtc->State = HAL_RTC_STATE_BUSY;
 80035e0:	68fb      	ldr	r3, [r7, #12]
 80035e2:	2202      	movs	r2, #2
 80035e4:	745a      	strb	r2, [r3, #17]

  /* Call HAL_RTC_GetTime function to update date if counter higher than 24 hours */
  if (HAL_RTC_GetTime(hrtc, &stime, RTC_FORMAT_BIN) != HAL_OK)
 80035e6:	f107 0314 	add.w	r3, r7, #20
 80035ea:	2200      	movs	r2, #0
 80035ec:	4619      	mov	r1, r3
 80035ee:	68f8      	ldr	r0, [r7, #12]
 80035f0:	f7ff fdf4 	bl	80031dc <HAL_RTC_GetTime>
 80035f4:	4603      	mov	r3, r0
 80035f6:	2b00      	cmp	r3, #0
 80035f8:	d001      	beq.n	80035fe <HAL_RTC_SetAlarm_IT+0x5e>
  {
    return HAL_ERROR;
 80035fa:	2301      	movs	r3, #1
 80035fc:	e07e      	b.n	80036fc <HAL_RTC_SetAlarm_IT+0x15c>
  }

  /* Convert time in seconds */
  counter_time = (uint32_t)(((uint32_t)stime.Hours * 3600U) + \
 80035fe:	7d3b      	ldrb	r3, [r7, #20]
 8003600:	461a      	mov	r2, r3
 8003602:	f44f 6361 	mov.w	r3, #3600	; 0xe10
 8003606:	fb03 f202 	mul.w	r2, r3, r2
                            ((uint32_t)stime.Minutes * 60U) + \
 800360a:	7d7b      	ldrb	r3, [r7, #21]
 800360c:	4619      	mov	r1, r3
 800360e:	460b      	mov	r3, r1
 8003610:	011b      	lsls	r3, r3, #4
 8003612:	1a5b      	subs	r3, r3, r1
 8003614:	009b      	lsls	r3, r3, #2
  counter_time = (uint32_t)(((uint32_t)stime.Hours * 3600U) + \
 8003616:	4413      	add	r3, r2
                            ((uint32_t)stime.Seconds));
 8003618:	7dba      	ldrb	r2, [r7, #22]
  counter_time = (uint32_t)(((uint32_t)stime.Hours * 3600U) + \
 800361a:	4413      	add	r3, r2
 800361c:	61bb      	str	r3, [r7, #24]

  if (Format == RTC_FORMAT_BIN)
 800361e:	687b      	ldr	r3, [r7, #4]
 8003620:	2b00      	cmp	r3, #0
 8003622:	d113      	bne.n	800364c <HAL_RTC_SetAlarm_IT+0xac>
  {
    assert_param(IS_RTC_HOUR24(sAlarm->AlarmTime.Hours));
    assert_param(IS_RTC_MINUTES(sAlarm->AlarmTime.Minutes));
    assert_param(IS_RTC_SECONDS(sAlarm->AlarmTime.Seconds));

    counter_alarm = (uint32_t)(((uint32_t)sAlarm->AlarmTime.Hours * 3600U) + \
 8003624:	68bb      	ldr	r3, [r7, #8]
 8003626:	781b      	ldrb	r3, [r3, #0]
 8003628:	461a      	mov	r2, r3
 800362a:	f44f 6361 	mov.w	r3, #3600	; 0xe10
 800362e:	fb03 f202 	mul.w	r2, r3, r2
                               ((uint32_t)sAlarm->AlarmTime.Minutes * 60U) + \
 8003632:	68bb      	ldr	r3, [r7, #8]
 8003634:	785b      	ldrb	r3, [r3, #1]
 8003636:	4619      	mov	r1, r3
 8003638:	460b      	mov	r3, r1
 800363a:	011b      	lsls	r3, r3, #4
 800363c:	1a5b      	subs	r3, r3, r1
 800363e:	009b      	lsls	r3, r3, #2
    counter_alarm = (uint32_t)(((uint32_t)sAlarm->AlarmTime.Hours * 3600U) + \
 8003640:	4413      	add	r3, r2
                               ((uint32_t)sAlarm->AlarmTime.Seconds));
 8003642:	68ba      	ldr	r2, [r7, #8]
 8003644:	7892      	ldrb	r2, [r2, #2]
    counter_alarm = (uint32_t)(((uint32_t)sAlarm->AlarmTime.Hours * 3600U) + \
 8003646:	4413      	add	r3, r2
 8003648:	61fb      	str	r3, [r7, #28]
 800364a:	e01e      	b.n	800368a <HAL_RTC_SetAlarm_IT+0xea>
  {
    assert_param(IS_RTC_HOUR24(RTC_Bcd2ToByte(sAlarm->AlarmTime.Hours)));
    assert_param(IS_RTC_MINUTES(RTC_Bcd2ToByte(sAlarm->AlarmTime.Minutes)));
    assert_param(IS_RTC_SECONDS(RTC_Bcd2ToByte(sAlarm->AlarmTime.Seconds)));

    counter_alarm = (((uint32_t)(RTC_Bcd2ToByte(sAlarm->AlarmTime.Hours)) * 3600U) + \
 800364c:	68bb      	ldr	r3, [r7, #8]
 800364e:	781b      	ldrb	r3, [r3, #0]
 8003650:	4618      	mov	r0, r3
 8003652:	f000 f9b2 	bl	80039ba <RTC_Bcd2ToByte>
 8003656:	4603      	mov	r3, r0
 8003658:	461a      	mov	r2, r3
 800365a:	f44f 6361 	mov.w	r3, #3600	; 0xe10
 800365e:	fb03 f402 	mul.w	r4, r3, r2
                     ((uint32_t)(RTC_Bcd2ToByte(sAlarm->AlarmTime.Minutes)) * 60U) + \
 8003662:	68bb      	ldr	r3, [r7, #8]
 8003664:	785b      	ldrb	r3, [r3, #1]
 8003666:	4618      	mov	r0, r3
 8003668:	f000 f9a7 	bl	80039ba <RTC_Bcd2ToByte>
 800366c:	4603      	mov	r3, r0
 800366e:	461a      	mov	r2, r3
 8003670:	4613      	mov	r3, r2
 8003672:	011b      	lsls	r3, r3, #4
 8003674:	1a9b      	subs	r3, r3, r2
 8003676:	009b      	lsls	r3, r3, #2
    counter_alarm = (((uint32_t)(RTC_Bcd2ToByte(sAlarm->AlarmTime.Hours)) * 3600U) + \
 8003678:	441c      	add	r4, r3
                     ((uint32_t)RTC_Bcd2ToByte(sAlarm->AlarmTime.Seconds)));
 800367a:	68bb      	ldr	r3, [r7, #8]
 800367c:	789b      	ldrb	r3, [r3, #2]
 800367e:	4618      	mov	r0, r3
 8003680:	f000 f99b 	bl	80039ba <RTC_Bcd2ToByte>
 8003684:	4603      	mov	r3, r0
    counter_alarm = (((uint32_t)(RTC_Bcd2ToByte(sAlarm->AlarmTime.Hours)) * 3600U) + \
 8003686:	4423      	add	r3, r4
 8003688:	61fb      	str	r3, [r7, #28]
  }

  /* Check that requested alarm should expire in the same day (otherwise add 1 day) */
  if (counter_alarm < counter_time)
 800368a:	69fa      	ldr	r2, [r7, #28]
 800368c:	69bb      	ldr	r3, [r7, #24]
 800368e:	429a      	cmp	r2, r3
 8003690:	d205      	bcs.n	800369e <HAL_RTC_SetAlarm_IT+0xfe>
  {
    /* Add 1 day to alarm counter*/
    counter_alarm += (uint32_t)(24U * 3600U);
 8003692:	69fb      	ldr	r3, [r7, #28]
 8003694:	f503 33a8 	add.w	r3, r3, #86016	; 0x15000
 8003698:	f503 73c0 	add.w	r3, r3, #384	; 0x180
 800369c:	61fb      	str	r3, [r7, #28]
  }

  /* Write alarm counter in RTC registers */
  if (RTC_WriteAlarmCounter(hrtc, counter_alarm) != HAL_OK)
 800369e:	69f9      	ldr	r1, [r7, #28]
 80036a0:	68f8      	ldr	r0, [r7, #12]
 80036a2:	f000 f8f6 	bl	8003892 <RTC_WriteAlarmCounter>
 80036a6:	4603      	mov	r3, r0
 80036a8:	2b00      	cmp	r3, #0
 80036aa:	d007      	beq.n	80036bc <HAL_RTC_SetAlarm_IT+0x11c>
  {
    /* Set RTC state */
    hrtc->State = HAL_RTC_STATE_ERROR;
 80036ac:	68fb      	ldr	r3, [r7, #12]
 80036ae:	2204      	movs	r2, #4
 80036b0:	745a      	strb	r2, [r3, #17]

    /* Process Unlocked */
    __HAL_UNLOCK(hrtc);
 80036b2:	68fb      	ldr	r3, [r7, #12]
 80036b4:	2200      	movs	r2, #0
 80036b6:	741a      	strb	r2, [r3, #16]

    return HAL_ERROR;
 80036b8:	2301      	movs	r3, #1
 80036ba:	e01f      	b.n	80036fc <HAL_RTC_SetAlarm_IT+0x15c>
  }
  else
  {
    /* Clear flag alarm A */
    __HAL_RTC_ALARM_CLEAR_FLAG(hrtc, RTC_FLAG_ALRAF);
 80036bc:	68fb      	ldr	r3, [r7, #12]
 80036be:	681b      	ldr	r3, [r3, #0]
 80036c0:	f06f 0202 	mvn.w	r2, #2
 80036c4:	605a      	str	r2, [r3, #4]

    /* Configure the Alarm interrupt */
    __HAL_RTC_ALARM_ENABLE_IT(hrtc, RTC_IT_ALRA);
 80036c6:	68fb      	ldr	r3, [r7, #12]
 80036c8:	681b      	ldr	r3, [r3, #0]
 80036ca:	681a      	ldr	r2, [r3, #0]
 80036cc:	68fb      	ldr	r3, [r7, #12]
 80036ce:	681b      	ldr	r3, [r3, #0]
 80036d0:	f042 0202 	orr.w	r2, r2, #2
 80036d4:	601a      	str	r2, [r3, #0]

    /* RTC Alarm Interrupt Configuration: EXTI configuration */
    __HAL_RTC_ALARM_EXTI_ENABLE_IT();
 80036d6:	4b0b      	ldr	r3, [pc, #44]	; (8003704 <HAL_RTC_SetAlarm_IT+0x164>)
 80036d8:	681b      	ldr	r3, [r3, #0]
 80036da:	4a0a      	ldr	r2, [pc, #40]	; (8003704 <HAL_RTC_SetAlarm_IT+0x164>)
 80036dc:	f443 3300 	orr.w	r3, r3, #131072	; 0x20000
 80036e0:	6013      	str	r3, [r2, #0]

    __HAL_RTC_ALARM_EXTI_ENABLE_RISING_EDGE();
 80036e2:	4b08      	ldr	r3, [pc, #32]	; (8003704 <HAL_RTC_SetAlarm_IT+0x164>)
 80036e4:	689b      	ldr	r3, [r3, #8]
 80036e6:	4a07      	ldr	r2, [pc, #28]	; (8003704 <HAL_RTC_SetAlarm_IT+0x164>)
 80036e8:	f443 3300 	orr.w	r3, r3, #131072	; 0x20000
 80036ec:	6093      	str	r3, [r2, #8]

    hrtc->State = HAL_RTC_STATE_READY;
 80036ee:	68fb      	ldr	r3, [r7, #12]
 80036f0:	2201      	movs	r2, #1
 80036f2:	745a      	strb	r2, [r3, #17]

    __HAL_UNLOCK(hrtc);
 80036f4:	68fb      	ldr	r3, [r7, #12]
 80036f6:	2200      	movs	r2, #0
 80036f8:	741a      	strb	r2, [r3, #16]

    return HAL_OK;
 80036fa:	2300      	movs	r3, #0
  }
}
 80036fc:	4618      	mov	r0, r3
 80036fe:	3724      	adds	r7, #36	; 0x24
 8003700:	46bd      	mov	sp, r7
 8003702:	bd90      	pop	{r4, r7, pc}
 8003704:	40010400 	.word	0x40010400

08003708 <HAL_RTC_AlarmIRQHandler>:
  * @param  hrtc   pointer to a RTC_HandleTypeDef structure that contains
  *                the configuration information for RTC.
  * @retval None
  */
void HAL_RTC_AlarmIRQHandler(RTC_HandleTypeDef *hrtc)
{
 8003708:	b580      	push	{r7, lr}
 800370a:	b082      	sub	sp, #8
 800370c:	af00      	add	r7, sp, #0
 800370e:	6078      	str	r0, [r7, #4]
  if (__HAL_RTC_ALARM_GET_IT_SOURCE(hrtc, RTC_IT_ALRA))
 8003710:	687b      	ldr	r3, [r7, #4]
 8003712:	681b      	ldr	r3, [r3, #0]
 8003714:	681b      	ldr	r3, [r3, #0]
 8003716:	f003 0302 	and.w	r3, r3, #2
 800371a:	2b00      	cmp	r3, #0
 800371c:	d00e      	beq.n	800373c <HAL_RTC_AlarmIRQHandler+0x34>
  {
    /* Get the status of the Interrupt */
    if (__HAL_RTC_ALARM_GET_FLAG(hrtc, RTC_FLAG_ALRAF) != (uint32_t)RESET)
 800371e:	687b      	ldr	r3, [r7, #4]
 8003720:	681b      	ldr	r3, [r3, #0]
 8003722:	685b      	ldr	r3, [r3, #4]
 8003724:	f003 0302 	and.w	r3, r3, #2
 8003728:	2b00      	cmp	r3, #0
 800372a:	d007      	beq.n	800373c <HAL_RTC_AlarmIRQHandler+0x34>
    {
      /* AlarmA callback */
#if (USE_HAL_RTC_REGISTER_CALLBACKS == 1)
      hrtc->AlarmAEventCallback(hrtc);
#else
      HAL_RTC_AlarmAEventCallback(hrtc);
 800372c:	6878      	ldr	r0, [r7, #4]
 800372e:	f7fd fb8b 	bl	8000e48 <HAL_RTC_AlarmAEventCallback>
#endif /* USE_HAL_RTC_REGISTER_CALLBACKS */

      /* Clear the Alarm interrupt pending bit */
      __HAL_RTC_ALARM_CLEAR_FLAG(hrtc, RTC_FLAG_ALRAF);
 8003732:	687b      	ldr	r3, [r7, #4]
 8003734:	681b      	ldr	r3, [r3, #0]
 8003736:	f06f 0202 	mvn.w	r2, #2
 800373a:	605a      	str	r2, [r3, #4]
    }
  }

  /* Clear the EXTI's line Flag for RTC Alarm */
  __HAL_RTC_ALARM_EXTI_CLEAR_FLAG();
 800373c:	4b05      	ldr	r3, [pc, #20]	; (8003754 <HAL_RTC_AlarmIRQHandler+0x4c>)
 800373e:	f44f 3200 	mov.w	r2, #131072	; 0x20000
 8003742:	615a      	str	r2, [r3, #20]

  /* Change RTC state */
  hrtc->State = HAL_RTC_STATE_READY;
 8003744:	687b      	ldr	r3, [r7, #4]
 8003746:	2201      	movs	r2, #1
 8003748:	745a      	strb	r2, [r3, #17]
}
 800374a:	bf00      	nop
 800374c:	3708      	adds	r7, #8
 800374e:	46bd      	mov	sp, r7
 8003750:	bd80      	pop	{r7, pc}
 8003752:	bf00      	nop
 8003754:	40010400 	.word	0x40010400

08003758 <HAL_RTC_WaitForSynchro>:
  * @param  hrtc   pointer to a RTC_HandleTypeDef structure that contains
  *                the configuration information for RTC.
  * @retval HAL status
  */
HAL_StatusTypeDef HAL_RTC_WaitForSynchro(RTC_HandleTypeDef *hrtc)
{
 8003758:	b580      	push	{r7, lr}
 800375a:	b084      	sub	sp, #16
 800375c:	af00      	add	r7, sp, #0
 800375e:	6078      	str	r0, [r7, #4]
  uint32_t tickstart = 0U;
 8003760:	2300      	movs	r3, #0
 8003762:	60fb      	str	r3, [r7, #12]

  /* Check input parameters */
  if (hrtc == NULL)
 8003764:	687b      	ldr	r3, [r7, #4]
 8003766:	2b00      	cmp	r3, #0
 8003768:	d101      	bne.n	800376e <HAL_RTC_WaitForSynchro+0x16>
  {
    return HAL_ERROR;
 800376a:	2301      	movs	r3, #1
 800376c:	e01d      	b.n	80037aa <HAL_RTC_WaitForSynchro+0x52>
  }

  /* Clear RSF flag */
  CLEAR_BIT(hrtc->Instance->CRL, RTC_FLAG_RSF);
 800376e:	687b      	ldr	r3, [r7, #4]
 8003770:	681b      	ldr	r3, [r3, #0]
 8003772:	685a      	ldr	r2, [r3, #4]
 8003774:	687b      	ldr	r3, [r7, #4]
 8003776:	681b      	ldr	r3, [r3, #0]
 8003778:	f022 0208 	bic.w	r2, r2, #8
 800377c:	605a      	str	r2, [r3, #4]

  tickstart = HAL_GetTick();
 800377e:	f7fe f997 	bl	8001ab0 <HAL_GetTick>
 8003782:	60f8      	str	r0, [r7, #12]

  /* Wait the registers to be synchronised */
  while ((hrtc->Instance->CRL & RTC_FLAG_RSF) == (uint32_t)RESET)
 8003784:	e009      	b.n	800379a <HAL_RTC_WaitForSynchro+0x42>
  {
    if ((HAL_GetTick() - tickstart) >  RTC_TIMEOUT_VALUE)
 8003786:	f7fe f993 	bl	8001ab0 <HAL_GetTick>
 800378a:	4602      	mov	r2, r0
 800378c:	68fb      	ldr	r3, [r7, #12]
 800378e:	1ad3      	subs	r3, r2, r3
 8003790:	f5b3 7f7a 	cmp.w	r3, #1000	; 0x3e8
 8003794:	d901      	bls.n	800379a <HAL_RTC_WaitForSynchro+0x42>
    {
      return HAL_TIMEOUT;
 8003796:	2303      	movs	r3, #3
 8003798:	e007      	b.n	80037aa <HAL_RTC_WaitForSynchro+0x52>
  while ((hrtc->Instance->CRL & RTC_FLAG_RSF) == (uint32_t)RESET)
 800379a:	687b      	ldr	r3, [r7, #4]
 800379c:	681b      	ldr	r3, [r3, #0]
 800379e:	685b      	ldr	r3, [r3, #4]
 80037a0:	f003 0308 	and.w	r3, r3, #8
 80037a4:	2b00      	cmp	r3, #0
 80037a6:	d0ee      	beq.n	8003786 <HAL_RTC_WaitForSynchro+0x2e>
    }
  }

  return HAL_OK;
 80037a8:	2300      	movs	r3, #0
}
 80037aa:	4618      	mov	r0, r3
 80037ac:	3710      	adds	r7, #16
 80037ae:	46bd      	mov	sp, r7
 80037b0:	bd80      	pop	{r7, pc}

080037b2 <RTC_ReadTimeCounter>:
  * @param  hrtc   pointer to a RTC_HandleTypeDef structure that contains
  *                the configuration information for RTC.
  * @retval Time counter
  */
static uint32_t RTC_ReadTimeCounter(RTC_HandleTypeDef *hrtc)
{
 80037b2:	b480      	push	{r7}
 80037b4:	b087      	sub	sp, #28
 80037b6:	af00      	add	r7, sp, #0
 80037b8:	6078      	str	r0, [r7, #4]
  uint16_t high1 = 0U, high2 = 0U, low = 0U;
 80037ba:	2300      	movs	r3, #0
 80037bc:	827b      	strh	r3, [r7, #18]
 80037be:	2300      	movs	r3, #0
 80037c0:	823b      	strh	r3, [r7, #16]
 80037c2:	2300      	movs	r3, #0
 80037c4:	81fb      	strh	r3, [r7, #14]
  uint32_t timecounter = 0U;
 80037c6:	2300      	movs	r3, #0
 80037c8:	617b      	str	r3, [r7, #20]

  high1 = READ_REG(hrtc->Instance->CNTH & RTC_CNTH_RTC_CNT);
 80037ca:	687b      	ldr	r3, [r7, #4]
 80037cc:	681b      	ldr	r3, [r3, #0]
 80037ce:	699b      	ldr	r3, [r3, #24]
 80037d0:	827b      	strh	r3, [r7, #18]
  low   = READ_REG(hrtc->Instance->CNTL & RTC_CNTL_RTC_CNT);
 80037d2:	687b      	ldr	r3, [r7, #4]
 80037d4:	681b      	ldr	r3, [r3, #0]
 80037d6:	69db      	ldr	r3, [r3, #28]
 80037d8:	81fb      	strh	r3, [r7, #14]
  high2 = READ_REG(hrtc->Instance->CNTH & RTC_CNTH_RTC_CNT);
 80037da:	687b      	ldr	r3, [r7, #4]
 80037dc:	681b      	ldr	r3, [r3, #0]
 80037de:	699b      	ldr	r3, [r3, #24]
 80037e0:	823b      	strh	r3, [r7, #16]

  if (high1 != high2)
 80037e2:	8a7a      	ldrh	r2, [r7, #18]
 80037e4:	8a3b      	ldrh	r3, [r7, #16]
 80037e6:	429a      	cmp	r2, r3
 80037e8:	d008      	beq.n	80037fc <RTC_ReadTimeCounter+0x4a>
  {
    /* In this case the counter roll over during reading of CNTL and CNTH registers,
       read again CNTL register then return the counter value */
    timecounter = (((uint32_t) high2 << 16U) | READ_REG(hrtc->Instance->CNTL & RTC_CNTL_RTC_CNT));
 80037ea:	8a3b      	ldrh	r3, [r7, #16]
 80037ec:	041a      	lsls	r2, r3, #16
 80037ee:	687b      	ldr	r3, [r7, #4]
 80037f0:	681b      	ldr	r3, [r3, #0]
 80037f2:	69db      	ldr	r3, [r3, #28]
 80037f4:	b29b      	uxth	r3, r3
 80037f6:	4313      	orrs	r3, r2
 80037f8:	617b      	str	r3, [r7, #20]
 80037fa:	e004      	b.n	8003806 <RTC_ReadTimeCounter+0x54>
  }
  else
  {
    /* No counter roll over during reading of CNTL and CNTH registers, counter
       value is equal to first value of CNTL and CNTH */
    timecounter = (((uint32_t) high1 << 16U) | low);
 80037fc:	8a7b      	ldrh	r3, [r7, #18]
 80037fe:	041a      	lsls	r2, r3, #16
 8003800:	89fb      	ldrh	r3, [r7, #14]
 8003802:	4313      	orrs	r3, r2
 8003804:	617b      	str	r3, [r7, #20]
  }

  return timecounter;
 8003806:	697b      	ldr	r3, [r7, #20]
}
 8003808:	4618      	mov	r0, r3
 800380a:	371c      	adds	r7, #28
 800380c:	46bd      	mov	sp, r7
 800380e:	bc80      	pop	{r7}
 8003810:	4770      	bx	lr

08003812 <RTC_WriteTimeCounter>:
  *                the configuration information for RTC.
  * @param  TimeCounter: Counter to write in RTC_CNT registers
  * @retval HAL status
  */
static HAL_StatusTypeDef RTC_WriteTimeCounter(RTC_HandleTypeDef *hrtc, uint32_t TimeCounter)
{
 8003812:	b580      	push	{r7, lr}
 8003814:	b084      	sub	sp, #16
 8003816:	af00      	add	r7, sp, #0
 8003818:	6078      	str	r0, [r7, #4]
 800381a:	6039      	str	r1, [r7, #0]
  HAL_StatusTypeDef status = HAL_OK;
 800381c:	2300      	movs	r3, #0
 800381e:	73fb      	strb	r3, [r7, #15]

  /* Set Initialization mode */
  if (RTC_EnterInitMode(hrtc) != HAL_OK)
 8003820:	6878      	ldr	r0, [r7, #4]
 8003822:	f000 f85d 	bl	80038e0 <RTC_EnterInitMode>
 8003826:	4603      	mov	r3, r0
 8003828:	2b00      	cmp	r3, #0
 800382a:	d002      	beq.n	8003832 <RTC_WriteTimeCounter+0x20>
  {
    status = HAL_ERROR;
 800382c:	2301      	movs	r3, #1
 800382e:	73fb      	strb	r3, [r7, #15]
 8003830:	e011      	b.n	8003856 <RTC_WriteTimeCounter+0x44>
  }
  else
  {
    /* Set RTC COUNTER MSB word */
    WRITE_REG(hrtc->Instance->CNTH, (TimeCounter >> 16U));
 8003832:	687b      	ldr	r3, [r7, #4]
 8003834:	681b      	ldr	r3, [r3, #0]
 8003836:	683a      	ldr	r2, [r7, #0]
 8003838:	0c12      	lsrs	r2, r2, #16
 800383a:	619a      	str	r2, [r3, #24]
    /* Set RTC COUNTER LSB word */
    WRITE_REG(hrtc->Instance->CNTL, (TimeCounter & RTC_CNTL_RTC_CNT));
 800383c:	687b      	ldr	r3, [r7, #4]
 800383e:	681b      	ldr	r3, [r3, #0]
 8003840:	683a      	ldr	r2, [r7, #0]
 8003842:	b292      	uxth	r2, r2
 8003844:	61da      	str	r2, [r3, #28]

    /* Wait for synchro */
    if (RTC_ExitInitMode(hrtc) != HAL_OK)
 8003846:	6878      	ldr	r0, [r7, #4]
 8003848:	f000 f872 	bl	8003930 <RTC_ExitInitMode>
 800384c:	4603      	mov	r3, r0
 800384e:	2b00      	cmp	r3, #0
 8003850:	d001      	beq.n	8003856 <RTC_WriteTimeCounter+0x44>
    {
      status = HAL_ERROR;
 8003852:	2301      	movs	r3, #1
 8003854:	73fb      	strb	r3, [r7, #15]
    }
  }

  return status;
 8003856:	7bfb      	ldrb	r3, [r7, #15]
}
 8003858:	4618      	mov	r0, r3
 800385a:	3710      	adds	r7, #16
 800385c:	46bd      	mov	sp, r7
 800385e:	bd80      	pop	{r7, pc}

08003860 <RTC_ReadAlarmCounter>:
  * @param  hrtc   pointer to a RTC_HandleTypeDef structure that contains
  *                the configuration information for RTC.
  * @retval Time counter
  */
static uint32_t RTC_ReadAlarmCounter(RTC_HandleTypeDef *hrtc)
{
 8003860:	b480      	push	{r7}
 8003862:	b085      	sub	sp, #20
 8003864:	af00      	add	r7, sp, #0
 8003866:	6078      	str	r0, [r7, #4]
  uint16_t high1 = 0U, low = 0U;
 8003868:	2300      	movs	r3, #0
 800386a:	81fb      	strh	r3, [r7, #14]
 800386c:	2300      	movs	r3, #0
 800386e:	81bb      	strh	r3, [r7, #12]

  high1 = READ_REG(hrtc->Instance->ALRH & RTC_CNTH_RTC_CNT);
 8003870:	687b      	ldr	r3, [r7, #4]
 8003872:	681b      	ldr	r3, [r3, #0]
 8003874:	6a1b      	ldr	r3, [r3, #32]
 8003876:	81fb      	strh	r3, [r7, #14]
  low   = READ_REG(hrtc->Instance->ALRL & RTC_CNTL_RTC_CNT);
 8003878:	687b      	ldr	r3, [r7, #4]
 800387a:	681b      	ldr	r3, [r3, #0]
 800387c:	6a5b      	ldr	r3, [r3, #36]	; 0x24
 800387e:	81bb      	strh	r3, [r7, #12]

  return (((uint32_t) high1 << 16U) | low);
 8003880:	89fb      	ldrh	r3, [r7, #14]
 8003882:	041a      	lsls	r2, r3, #16
 8003884:	89bb      	ldrh	r3, [r7, #12]
 8003886:	4313      	orrs	r3, r2
}
 8003888:	4618      	mov	r0, r3
 800388a:	3714      	adds	r7, #20
 800388c:	46bd      	mov	sp, r7
 800388e:	bc80      	pop	{r7}
 8003890:	4770      	bx	lr

08003892 <RTC_WriteAlarmCounter>:
  *                the configuration information for RTC.
  * @param  AlarmCounter: Counter to write in RTC_ALR registers
  * @retval HAL status
  */
static HAL_StatusTypeDef RTC_WriteAlarmCounter(RTC_HandleTypeDef *hrtc, uint32_t AlarmCounter)
{
 8003892:	b580      	push	{r7, lr}
 8003894:	b084      	sub	sp, #16
 8003896:	af00      	add	r7, sp, #0
 8003898:	6078      	str	r0, [r7, #4]
 800389a:	6039      	str	r1, [r7, #0]
  HAL_StatusTypeDef status = HAL_OK;
 800389c:	2300      	movs	r3, #0
 800389e:	73fb      	strb	r3, [r7, #15]

  /* Set Initialization mode */
  if (RTC_EnterInitMode(hrtc) != HAL_OK)
 80038a0:	6878      	ldr	r0, [r7, #4]
 80038a2:	f000 f81d 	bl	80038e0 <RTC_EnterInitMode>
 80038a6:	4603      	mov	r3, r0
 80038a8:	2b00      	cmp	r3, #0
 80038aa:	d002      	beq.n	80038b2 <RTC_WriteAlarmCounter+0x20>
  {
    status = HAL_ERROR;
 80038ac:	2301      	movs	r3, #1
 80038ae:	73fb      	strb	r3, [r7, #15]
 80038b0:	e011      	b.n	80038d6 <RTC_WriteAlarmCounter+0x44>
  }
  else
  {
    /* Set RTC COUNTER MSB word */
    WRITE_REG(hrtc->Instance->ALRH, (AlarmCounter >> 16U));
 80038b2:	687b      	ldr	r3, [r7, #4]
 80038b4:	681b      	ldr	r3, [r3, #0]
 80038b6:	683a      	ldr	r2, [r7, #0]
 80038b8:	0c12      	lsrs	r2, r2, #16
 80038ba:	621a      	str	r2, [r3, #32]
    /* Set RTC COUNTER LSB word */
    WRITE_REG(hrtc->Instance->ALRL, (AlarmCounter & RTC_ALRL_RTC_ALR));
 80038bc:	687b      	ldr	r3, [r7, #4]
 80038be:	681b      	ldr	r3, [r3, #0]
 80038c0:	683a      	ldr	r2, [r7, #0]
 80038c2:	b292      	uxth	r2, r2
 80038c4:	625a      	str	r2, [r3, #36]	; 0x24

    /* Wait for synchro */
    if (RTC_ExitInitMode(hrtc) != HAL_OK)
 80038c6:	6878      	ldr	r0, [r7, #4]
 80038c8:	f000 f832 	bl	8003930 <RTC_ExitInitMode>
 80038cc:	4603      	mov	r3, r0
 80038ce:	2b00      	cmp	r3, #0
 80038d0:	d001      	beq.n	80038d6 <RTC_WriteAlarmCounter+0x44>
    {
      status = HAL_ERROR;
 80038d2:	2301      	movs	r3, #1
 80038d4:	73fb      	strb	r3, [r7, #15]
    }
  }

  return status;
 80038d6:	7bfb      	ldrb	r3, [r7, #15]
}
 80038d8:	4618      	mov	r0, r3
 80038da:	3710      	adds	r7, #16
 80038dc:	46bd      	mov	sp, r7
 80038de:	bd80      	pop	{r7, pc}

080038e0 <RTC_EnterInitMode>:
  * @param  hrtc   pointer to a RTC_HandleTypeDef structure that contains
  *                the configuration information for RTC.
  * @retval HAL status
  */
static HAL_StatusTypeDef RTC_EnterInitMode(RTC_HandleTypeDef *hrtc)
{
 80038e0:	b580      	push	{r7, lr}
 80038e2:	b084      	sub	sp, #16
 80038e4:	af00      	add	r7, sp, #0
 80038e6:	6078      	str	r0, [r7, #4]
  uint32_t tickstart = 0U;
 80038e8:	2300      	movs	r3, #0
 80038ea:	60fb      	str	r3, [r7, #12]

  tickstart = HAL_GetTick();
 80038ec:	f7fe f8e0 	bl	8001ab0 <HAL_GetTick>
 80038f0:	60f8      	str	r0, [r7, #12]
  /* Wait till RTC is in INIT state and if Time out is reached exit */
  while ((hrtc->Instance->CRL & RTC_CRL_RTOFF) == (uint32_t)RESET)
 80038f2:	e009      	b.n	8003908 <RTC_EnterInitMode+0x28>
  {
    if ((HAL_GetTick() - tickstart) >  RTC_TIMEOUT_VALUE)
 80038f4:	f7fe f8dc 	bl	8001ab0 <HAL_GetTick>
 80038f8:	4602      	mov	r2, r0
 80038fa:	68fb      	ldr	r3, [r7, #12]
 80038fc:	1ad3      	subs	r3, r2, r3
 80038fe:	f5b3 7f7a 	cmp.w	r3, #1000	; 0x3e8
 8003902:	d901      	bls.n	8003908 <RTC_EnterInitMode+0x28>
    {
      return HAL_TIMEOUT;
 8003904:	2303      	movs	r3, #3
 8003906:	e00f      	b.n	8003928 <RTC_EnterInitMode+0x48>
  while ((hrtc->Instance->CRL & RTC_CRL_RTOFF) == (uint32_t)RESET)
 8003908:	687b      	ldr	r3, [r7, #4]
 800390a:	681b      	ldr	r3, [r3, #0]
 800390c:	685b      	ldr	r3, [r3, #4]
 800390e:	f003 0320 	and.w	r3, r3, #32
 8003912:	2b00      	cmp	r3, #0
 8003914:	d0ee      	beq.n	80038f4 <RTC_EnterInitMode+0x14>
    }
  }

  /* Disable the write protection for RTC registers */
  __HAL_RTC_WRITEPROTECTION_DISABLE(hrtc);
 8003916:	687b      	ldr	r3, [r7, #4]
 8003918:	681b      	ldr	r3, [r3, #0]
 800391a:	685a      	ldr	r2, [r3, #4]
 800391c:	687b      	ldr	r3, [r7, #4]
 800391e:	681b      	ldr	r3, [r3, #0]
 8003920:	f042 0210 	orr.w	r2, r2, #16
 8003924:	605a      	str	r2, [r3, #4]


  return HAL_OK;
 8003926:	2300      	movs	r3, #0
}
 8003928:	4618      	mov	r0, r3
 800392a:	3710      	adds	r7, #16
 800392c:	46bd      	mov	sp, r7
 800392e:	bd80      	pop	{r7, pc}

08003930 <RTC_ExitInitMode>:
  * @param  hrtc   pointer to a RTC_HandleTypeDef structure that contains
  *                the configuration information for RTC.
  * @retval HAL status
  */
static HAL_StatusTypeDef RTC_ExitInitMode(RTC_HandleTypeDef *hrtc)
{
 8003930:	b580      	push	{r7, lr}
 8003932:	b084      	sub	sp, #16
 8003934:	af00      	add	r7, sp, #0
 8003936:	6078      	str	r0, [r7, #4]
  uint32_t tickstart = 0U;
 8003938:	2300      	movs	r3, #0
 800393a:	60fb      	str	r3, [r7, #12]

  /* Disable the write protection for RTC registers */
  __HAL_RTC_WRITEPROTECTION_ENABLE(hrtc);
 800393c:	687b      	ldr	r3, [r7, #4]
 800393e:	681b      	ldr	r3, [r3, #0]
 8003940:	685a      	ldr	r2, [r3, #4]
 8003942:	687b      	ldr	r3, [r7, #4]
 8003944:	681b      	ldr	r3, [r3, #0]
 8003946:	f022 0210 	bic.w	r2, r2, #16
 800394a:	605a      	str	r2, [r3, #4]

  tickstart = HAL_GetTick();
 800394c:	f7fe f8b0 	bl	8001ab0 <HAL_GetTick>
 8003950:	60f8      	str	r0, [r7, #12]
  /* Wait till RTC is in INIT state and if Time out is reached exit */
  while ((hrtc->Instance->CRL & RTC_CRL_RTOFF) == (uint32_t)RESET)
 8003952:	e009      	b.n	8003968 <RTC_ExitInitMode+0x38>
  {
    if ((HAL_GetTick() - tickstart) >  RTC_TIMEOUT_VALUE)
 8003954:	f7fe f8ac 	bl	8001ab0 <HAL_GetTick>
 8003958:	4602      	mov	r2, r0
 800395a:	68fb      	ldr	r3, [r7, #12]
 800395c:	1ad3      	subs	r3, r2, r3
 800395e:	f5b3 7f7a 	cmp.w	r3, #1000	; 0x3e8
 8003962:	d901      	bls.n	8003968 <RTC_ExitInitMode+0x38>
    {
      return HAL_TIMEOUT;
 8003964:	2303      	movs	r3, #3
 8003966:	e007      	b.n	8003978 <RTC_ExitInitMode+0x48>
  while ((hrtc->Instance->CRL & RTC_CRL_RTOFF) == (uint32_t)RESET)
 8003968:	687b      	ldr	r3, [r7, #4]
 800396a:	681b      	ldr	r3, [r3, #0]
 800396c:	685b      	ldr	r3, [r3, #4]
 800396e:	f003 0320 	and.w	r3, r3, #32
 8003972:	2b00      	cmp	r3, #0
 8003974:	d0ee      	beq.n	8003954 <RTC_ExitInitMode+0x24>
    }
  }

  return HAL_OK;
 8003976:	2300      	movs	r3, #0
}
 8003978:	4618      	mov	r0, r3
 800397a:	3710      	adds	r7, #16
 800397c:	46bd      	mov	sp, r7
 800397e:	bd80      	pop	{r7, pc}

08003980 <RTC_ByteToBcd2>:
  * @brief  Converts a 2 digit decimal to BCD format.
  * @param  Value: Byte to be converted
  * @retval Converted byte
  */
static uint8_t RTC_ByteToBcd2(uint8_t Value)
{
 8003980:	b480      	push	{r7}
 8003982:	b085      	sub	sp, #20
 8003984:	af00      	add	r7, sp, #0
 8003986:	4603      	mov	r3, r0
 8003988:	71fb      	strb	r3, [r7, #7]
  uint32_t bcdhigh = 0U;
 800398a:	2300      	movs	r3, #0
 800398c:	60fb      	str	r3, [r7, #12]

  while (Value >= 10U)
 800398e:	e005      	b.n	800399c <RTC_ByteToBcd2+0x1c>
  {
    bcdhigh++;
 8003990:	68fb      	ldr	r3, [r7, #12]
 8003992:	3301      	adds	r3, #1
 8003994:	60fb      	str	r3, [r7, #12]
    Value -= 10U;
 8003996:	79fb      	ldrb	r3, [r7, #7]
 8003998:	3b0a      	subs	r3, #10
 800399a:	71fb      	strb	r3, [r7, #7]
  while (Value >= 10U)
 800399c:	79fb      	ldrb	r3, [r7, #7]
 800399e:	2b09      	cmp	r3, #9
 80039a0:	d8f6      	bhi.n	8003990 <RTC_ByteToBcd2+0x10>
  }

  return ((uint8_t)(bcdhigh << 4U) | Value);
 80039a2:	68fb      	ldr	r3, [r7, #12]
 80039a4:	b2db      	uxtb	r3, r3
 80039a6:	011b      	lsls	r3, r3, #4
 80039a8:	b2da      	uxtb	r2, r3
 80039aa:	79fb      	ldrb	r3, [r7, #7]
 80039ac:	4313      	orrs	r3, r2
 80039ae:	b2db      	uxtb	r3, r3
}
 80039b0:	4618      	mov	r0, r3
 80039b2:	3714      	adds	r7, #20
 80039b4:	46bd      	mov	sp, r7
 80039b6:	bc80      	pop	{r7}
 80039b8:	4770      	bx	lr

080039ba <RTC_Bcd2ToByte>:
  * @brief  Converts from 2 digit BCD to Binary.
  * @param  Value: BCD value to be converted
  * @retval Converted word
  */
static uint8_t RTC_Bcd2ToByte(uint8_t Value)
{
 80039ba:	b480      	push	{r7}
 80039bc:	b085      	sub	sp, #20
 80039be:	af00      	add	r7, sp, #0
 80039c0:	4603      	mov	r3, r0
 80039c2:	71fb      	strb	r3, [r7, #7]
  uint32_t tmp = 0U;
 80039c4:	2300      	movs	r3, #0
 80039c6:	60fb      	str	r3, [r7, #12]
  tmp = ((uint8_t)(Value & (uint8_t)0xF0) >> (uint8_t)0x4) * 10U;
 80039c8:	79fb      	ldrb	r3, [r7, #7]
 80039ca:	091b      	lsrs	r3, r3, #4
 80039cc:	b2db      	uxtb	r3, r3
 80039ce:	461a      	mov	r2, r3
 80039d0:	4613      	mov	r3, r2
 80039d2:	009b      	lsls	r3, r3, #2
 80039d4:	4413      	add	r3, r2
 80039d6:	005b      	lsls	r3, r3, #1
 80039d8:	60fb      	str	r3, [r7, #12]
  return (tmp + (Value & (uint8_t)0x0F));
 80039da:	79fb      	ldrb	r3, [r7, #7]
 80039dc:	f003 030f 	and.w	r3, r3, #15
 80039e0:	b2da      	uxtb	r2, r3
 80039e2:	68fb      	ldr	r3, [r7, #12]
 80039e4:	b2db      	uxtb	r3, r3
 80039e6:	4413      	add	r3, r2
 80039e8:	b2db      	uxtb	r3, r3
}
 80039ea:	4618      	mov	r0, r3
 80039ec:	3714      	adds	r7, #20
 80039ee:	46bd      	mov	sp, r7
 80039f0:	bc80      	pop	{r7}
 80039f2:	4770      	bx	lr

080039f4 <RTC_DateUpdate>:
  *                the configuration information for RTC.
  * @param  DayElapsed: Number of days elapsed from last date update
  * @retval None
  */
static void RTC_DateUpdate(RTC_HandleTypeDef *hrtc, uint32_t DayElapsed)
{
 80039f4:	b580      	push	{r7, lr}
 80039f6:	b086      	sub	sp, #24
 80039f8:	af00      	add	r7, sp, #0
 80039fa:	6078      	str	r0, [r7, #4]
 80039fc:	6039      	str	r1, [r7, #0]
  uint32_t year = 0U, month = 0U, day = 0U;
 80039fe:	2300      	movs	r3, #0
 8003a00:	617b      	str	r3, [r7, #20]
 8003a02:	2300      	movs	r3, #0
 8003a04:	613b      	str	r3, [r7, #16]
 8003a06:	2300      	movs	r3, #0
 8003a08:	60fb      	str	r3, [r7, #12]
  uint32_t loop = 0U;
 8003a0a:	2300      	movs	r3, #0
 8003a0c:	60bb      	str	r3, [r7, #8]

  /* Get the current year*/
  year = hrtc->DateToUpdate.Year;
 8003a0e:	687b      	ldr	r3, [r7, #4]
 8003a10:	7bdb      	ldrb	r3, [r3, #15]
 8003a12:	617b      	str	r3, [r7, #20]

  /* Get the current month and day */
  month = hrtc->DateToUpdate.Month;
 8003a14:	687b      	ldr	r3, [r7, #4]
 8003a16:	7b5b      	ldrb	r3, [r3, #13]
 8003a18:	613b      	str	r3, [r7, #16]
  day = hrtc->DateToUpdate.Date;
 8003a1a:	687b      	ldr	r3, [r7, #4]
 8003a1c:	7b9b      	ldrb	r3, [r3, #14]
 8003a1e:	60fb      	str	r3, [r7, #12]

  for (loop = 0U; loop < DayElapsed; loop++)
 8003a20:	2300      	movs	r3, #0
 8003a22:	60bb      	str	r3, [r7, #8]
 8003a24:	e06f      	b.n	8003b06 <RTC_DateUpdate+0x112>
  {
    if ((month == 1U) || (month == 3U) || (month == 5U) || (month == 7U) || \
 8003a26:	693b      	ldr	r3, [r7, #16]
 8003a28:	2b01      	cmp	r3, #1
 8003a2a:	d011      	beq.n	8003a50 <RTC_DateUpdate+0x5c>
 8003a2c:	693b      	ldr	r3, [r7, #16]
 8003a2e:	2b03      	cmp	r3, #3
 8003a30:	d00e      	beq.n	8003a50 <RTC_DateUpdate+0x5c>
 8003a32:	693b      	ldr	r3, [r7, #16]
 8003a34:	2b05      	cmp	r3, #5
 8003a36:	d00b      	beq.n	8003a50 <RTC_DateUpdate+0x5c>
 8003a38:	693b      	ldr	r3, [r7, #16]
 8003a3a:	2b07      	cmp	r3, #7
 8003a3c:	d008      	beq.n	8003a50 <RTC_DateUpdate+0x5c>
 8003a3e:	693b      	ldr	r3, [r7, #16]
 8003a40:	2b08      	cmp	r3, #8
 8003a42:	d005      	beq.n	8003a50 <RTC_DateUpdate+0x5c>
        (month == 8U) || (month == 10U) || (month == 12U))
 8003a44:	693b      	ldr	r3, [r7, #16]
 8003a46:	2b0a      	cmp	r3, #10
 8003a48:	d002      	beq.n	8003a50 <RTC_DateUpdate+0x5c>
 8003a4a:	693b      	ldr	r3, [r7, #16]
 8003a4c:	2b0c      	cmp	r3, #12
 8003a4e:	d117      	bne.n	8003a80 <RTC_DateUpdate+0x8c>
    {
      if (day < 31U)
 8003a50:	68fb      	ldr	r3, [r7, #12]
 8003a52:	2b1e      	cmp	r3, #30
 8003a54:	d803      	bhi.n	8003a5e <RTC_DateUpdate+0x6a>
      {
        day++;
 8003a56:	68fb      	ldr	r3, [r7, #12]
 8003a58:	3301      	adds	r3, #1
 8003a5a:	60fb      	str	r3, [r7, #12]
      if (day < 31U)
 8003a5c:	e050      	b.n	8003b00 <RTC_DateUpdate+0x10c>
      }
      /* Date structure member: day = 31 */
      else
      {
        if (month != 12U)
 8003a5e:	693b      	ldr	r3, [r7, #16]
 8003a60:	2b0c      	cmp	r3, #12
 8003a62:	d005      	beq.n	8003a70 <RTC_DateUpdate+0x7c>
        {
          month++;
 8003a64:	693b      	ldr	r3, [r7, #16]
 8003a66:	3301      	adds	r3, #1
 8003a68:	613b      	str	r3, [r7, #16]
          day = 1U;
 8003a6a:	2301      	movs	r3, #1
 8003a6c:	60fb      	str	r3, [r7, #12]
      if (day < 31U)
 8003a6e:	e047      	b.n	8003b00 <RTC_DateUpdate+0x10c>
        }
        /* Date structure member: day = 31 & month =12 */
        else
        {
          month = 1U;
 8003a70:	2301      	movs	r3, #1
 8003a72:	613b      	str	r3, [r7, #16]
          day = 1U;
 8003a74:	2301      	movs	r3, #1
 8003a76:	60fb      	str	r3, [r7, #12]
          year++;
 8003a78:	697b      	ldr	r3, [r7, #20]
 8003a7a:	3301      	adds	r3, #1
 8003a7c:	617b      	str	r3, [r7, #20]
      if (day < 31U)
 8003a7e:	e03f      	b.n	8003b00 <RTC_DateUpdate+0x10c>
        }
      }
    }
    else if ((month == 4U) || (month == 6U) || (month == 9U) || (month == 11U))
 8003a80:	693b      	ldr	r3, [r7, #16]
 8003a82:	2b04      	cmp	r3, #4
 8003a84:	d008      	beq.n	8003a98 <RTC_DateUpdate+0xa4>
 8003a86:	693b      	ldr	r3, [r7, #16]
 8003a88:	2b06      	cmp	r3, #6
 8003a8a:	d005      	beq.n	8003a98 <RTC_DateUpdate+0xa4>
 8003a8c:	693b      	ldr	r3, [r7, #16]
 8003a8e:	2b09      	cmp	r3, #9
 8003a90:	d002      	beq.n	8003a98 <RTC_DateUpdate+0xa4>
 8003a92:	693b      	ldr	r3, [r7, #16]
 8003a94:	2b0b      	cmp	r3, #11
 8003a96:	d10c      	bne.n	8003ab2 <RTC_DateUpdate+0xbe>
    {
      if (day < 30U)
 8003a98:	68fb      	ldr	r3, [r7, #12]
 8003a9a:	2b1d      	cmp	r3, #29
 8003a9c:	d803      	bhi.n	8003aa6 <RTC_DateUpdate+0xb2>
      {
        day++;
 8003a9e:	68fb      	ldr	r3, [r7, #12]
 8003aa0:	3301      	adds	r3, #1
 8003aa2:	60fb      	str	r3, [r7, #12]
      if (day < 30U)
 8003aa4:	e02c      	b.n	8003b00 <RTC_DateUpdate+0x10c>
      }
      /* Date structure member: day = 30 */
      else
      {
        month++;
 8003aa6:	693b      	ldr	r3, [r7, #16]
 8003aa8:	3301      	adds	r3, #1
 8003aaa:	613b      	str	r3, [r7, #16]
        day = 1U;
 8003aac:	2301      	movs	r3, #1
 8003aae:	60fb      	str	r3, [r7, #12]
      if (day < 30U)
 8003ab0:	e026      	b.n	8003b00 <RTC_DateUpdate+0x10c>
      }
    }
    else if (month == 2U)
 8003ab2:	693b      	ldr	r3, [r7, #16]
 8003ab4:	2b02      	cmp	r3, #2
 8003ab6:	d123      	bne.n	8003b00 <RTC_DateUpdate+0x10c>
    {
      if (day < 28U)
 8003ab8:	68fb      	ldr	r3, [r7, #12]
 8003aba:	2b1b      	cmp	r3, #27
 8003abc:	d803      	bhi.n	8003ac6 <RTC_DateUpdate+0xd2>
      {
        day++;
 8003abe:	68fb      	ldr	r3, [r7, #12]
 8003ac0:	3301      	adds	r3, #1
 8003ac2:	60fb      	str	r3, [r7, #12]
 8003ac4:	e01c      	b.n	8003b00 <RTC_DateUpdate+0x10c>
      }
      else if (day == 28U)
 8003ac6:	68fb      	ldr	r3, [r7, #12]
 8003ac8:	2b1c      	cmp	r3, #28
 8003aca:	d111      	bne.n	8003af0 <RTC_DateUpdate+0xfc>
      {
        /* Leap year */
        if (RTC_IsLeapYear(year))
 8003acc:	697b      	ldr	r3, [r7, #20]
 8003ace:	b29b      	uxth	r3, r3
 8003ad0:	4618      	mov	r0, r3
 8003ad2:	f000 f839 	bl	8003b48 <RTC_IsLeapYear>
 8003ad6:	4603      	mov	r3, r0
 8003ad8:	2b00      	cmp	r3, #0
 8003ada:	d003      	beq.n	8003ae4 <RTC_DateUpdate+0xf0>
        {
          day++;
 8003adc:	68fb      	ldr	r3, [r7, #12]
 8003ade:	3301      	adds	r3, #1
 8003ae0:	60fb      	str	r3, [r7, #12]
 8003ae2:	e00d      	b.n	8003b00 <RTC_DateUpdate+0x10c>
        }
        else
        {
          month++;
 8003ae4:	693b      	ldr	r3, [r7, #16]
 8003ae6:	3301      	adds	r3, #1
 8003ae8:	613b      	str	r3, [r7, #16]
          day = 1U;
 8003aea:	2301      	movs	r3, #1
 8003aec:	60fb      	str	r3, [r7, #12]
 8003aee:	e007      	b.n	8003b00 <RTC_DateUpdate+0x10c>
        }
      }
      else if (day == 29U)
 8003af0:	68fb      	ldr	r3, [r7, #12]
 8003af2:	2b1d      	cmp	r3, #29
 8003af4:	d104      	bne.n	8003b00 <RTC_DateUpdate+0x10c>
      {
        month++;
 8003af6:	693b      	ldr	r3, [r7, #16]
 8003af8:	3301      	adds	r3, #1
 8003afa:	613b      	str	r3, [r7, #16]
        day = 1U;
 8003afc:	2301      	movs	r3, #1
 8003afe:	60fb      	str	r3, [r7, #12]
  for (loop = 0U; loop < DayElapsed; loop++)
 8003b00:	68bb      	ldr	r3, [r7, #8]
 8003b02:	3301      	adds	r3, #1
 8003b04:	60bb      	str	r3, [r7, #8]
 8003b06:	68ba      	ldr	r2, [r7, #8]
 8003b08:	683b      	ldr	r3, [r7, #0]
 8003b0a:	429a      	cmp	r2, r3
 8003b0c:	d38b      	bcc.n	8003a26 <RTC_DateUpdate+0x32>
      }
    }
  }

  /* Update year */
  hrtc->DateToUpdate.Year = year;
 8003b0e:	697b      	ldr	r3, [r7, #20]
 8003b10:	b2da      	uxtb	r2, r3
 8003b12:	687b      	ldr	r3, [r7, #4]
 8003b14:	73da      	strb	r2, [r3, #15]

  /* Update day and month */
  hrtc->DateToUpdate.Month = month;
 8003b16:	693b      	ldr	r3, [r7, #16]
 8003b18:	b2da      	uxtb	r2, r3
 8003b1a:	687b      	ldr	r3, [r7, #4]
 8003b1c:	735a      	strb	r2, [r3, #13]
  hrtc->DateToUpdate.Date = day;
 8003b1e:	68fb      	ldr	r3, [r7, #12]
 8003b20:	b2da      	uxtb	r2, r3
 8003b22:	687b      	ldr	r3, [r7, #4]
 8003b24:	739a      	strb	r2, [r3, #14]

  /* Update day of the week */
  hrtc->DateToUpdate.WeekDay = RTC_WeekDayNum(year, month, day);
 8003b26:	693b      	ldr	r3, [r7, #16]
 8003b28:	b2db      	uxtb	r3, r3
 8003b2a:	68fa      	ldr	r2, [r7, #12]
 8003b2c:	b2d2      	uxtb	r2, r2
 8003b2e:	4619      	mov	r1, r3
 8003b30:	6978      	ldr	r0, [r7, #20]
 8003b32:	f000 f83b 	bl	8003bac <RTC_WeekDayNum>
 8003b36:	4603      	mov	r3, r0
 8003b38:	461a      	mov	r2, r3
 8003b3a:	687b      	ldr	r3, [r7, #4]
 8003b3c:	731a      	strb	r2, [r3, #12]
}
 8003b3e:	bf00      	nop
 8003b40:	3718      	adds	r7, #24
 8003b42:	46bd      	mov	sp, r7
 8003b44:	bd80      	pop	{r7, pc}
	...

08003b48 <RTC_IsLeapYear>:
  * @param  nYear  year to check
  * @retval 1: leap year
  *         0: not leap year
  */
static uint8_t RTC_IsLeapYear(uint16_t nYear)
{
 8003b48:	b480      	push	{r7}
 8003b4a:	b083      	sub	sp, #12
 8003b4c:	af00      	add	r7, sp, #0
 8003b4e:	4603      	mov	r3, r0
 8003b50:	80fb      	strh	r3, [r7, #6]
  if ((nYear % 4U) != 0U)
 8003b52:	88fb      	ldrh	r3, [r7, #6]
 8003b54:	f003 0303 	and.w	r3, r3, #3
 8003b58:	b29b      	uxth	r3, r3
 8003b5a:	2b00      	cmp	r3, #0
 8003b5c:	d001      	beq.n	8003b62 <RTC_IsLeapYear+0x1a>
  {
    return 0U;
 8003b5e:	2300      	movs	r3, #0
 8003b60:	e01d      	b.n	8003b9e <RTC_IsLeapYear+0x56>
  }

  if ((nYear % 100U) != 0U)
 8003b62:	88fb      	ldrh	r3, [r7, #6]
 8003b64:	4a10      	ldr	r2, [pc, #64]	; (8003ba8 <RTC_IsLeapYear+0x60>)
 8003b66:	fba2 1203 	umull	r1, r2, r2, r3
 8003b6a:	0952      	lsrs	r2, r2, #5
 8003b6c:	2164      	movs	r1, #100	; 0x64
 8003b6e:	fb01 f202 	mul.w	r2, r1, r2
 8003b72:	1a9b      	subs	r3, r3, r2
 8003b74:	b29b      	uxth	r3, r3
 8003b76:	2b00      	cmp	r3, #0
 8003b78:	d001      	beq.n	8003b7e <RTC_IsLeapYear+0x36>
  {
    return 1U;
 8003b7a:	2301      	movs	r3, #1
 8003b7c:	e00f      	b.n	8003b9e <RTC_IsLeapYear+0x56>
  }

  if ((nYear % 400U) == 0U)
 8003b7e:	88fb      	ldrh	r3, [r7, #6]
 8003b80:	4a09      	ldr	r2, [pc, #36]	; (8003ba8 <RTC_IsLeapYear+0x60>)
 8003b82:	fba2 1203 	umull	r1, r2, r2, r3
 8003b86:	09d2      	lsrs	r2, r2, #7
 8003b88:	f44f 71c8 	mov.w	r1, #400	; 0x190
 8003b8c:	fb01 f202 	mul.w	r2, r1, r2
 8003b90:	1a9b      	subs	r3, r3, r2
 8003b92:	b29b      	uxth	r3, r3
 8003b94:	2b00      	cmp	r3, #0
 8003b96:	d101      	bne.n	8003b9c <RTC_IsLeapYear+0x54>
  {
    return 1U;
 8003b98:	2301      	movs	r3, #1
 8003b9a:	e000      	b.n	8003b9e <RTC_IsLeapYear+0x56>
  }
  else
  {
    return 0U;
 8003b9c:	2300      	movs	r3, #0
  }
}
 8003b9e:	4618      	mov	r0, r3
 8003ba0:	370c      	adds	r7, #12
 8003ba2:	46bd      	mov	sp, r7
 8003ba4:	bc80      	pop	{r7}
 8003ba6:	4770      	bx	lr
 8003ba8:	51eb851f 	.word	0x51eb851f

08003bac <RTC_WeekDayNum>:
  *         @arg RTC_WEEKDAY_FRIDAY
  *         @arg RTC_WEEKDAY_SATURDAY
  *         @arg RTC_WEEKDAY_SUNDAY
  */
static uint8_t RTC_WeekDayNum(uint32_t nYear, uint8_t nMonth, uint8_t nDay)
{
 8003bac:	b480      	push	{r7}
 8003bae:	b085      	sub	sp, #20
 8003bb0:	af00      	add	r7, sp, #0
 8003bb2:	6078      	str	r0, [r7, #4]
 8003bb4:	460b      	mov	r3, r1
 8003bb6:	70fb      	strb	r3, [r7, #3]
 8003bb8:	4613      	mov	r3, r2
 8003bba:	70bb      	strb	r3, [r7, #2]
  uint32_t year = 0U, weekday = 0U;
 8003bbc:	2300      	movs	r3, #0
 8003bbe:	60bb      	str	r3, [r7, #8]
 8003bc0:	2300      	movs	r3, #0
 8003bc2:	60fb      	str	r3, [r7, #12]

  year = 2000U + nYear;
 8003bc4:	687b      	ldr	r3, [r7, #4]
 8003bc6:	f503 63fa 	add.w	r3, r3, #2000	; 0x7d0
 8003bca:	60bb      	str	r3, [r7, #8]

  if (nMonth < 3U)
 8003bcc:	78fb      	ldrb	r3, [r7, #3]
 8003bce:	2b02      	cmp	r3, #2
 8003bd0:	d82d      	bhi.n	8003c2e <RTC_WeekDayNum+0x82>
  {
    /*D = { [(23 x month)/9] + day + 4 + year + [(year-1)/4] - [(year-1)/100] + [(year-1)/400] } mod 7*/
    weekday = (((23U * nMonth) / 9U) + nDay + 4U + year + ((year - 1U) / 4U) - ((year - 1U) / 100U) + ((year - 1U) / 400U)) % 7U;
 8003bd2:	78fa      	ldrb	r2, [r7, #3]
 8003bd4:	4613      	mov	r3, r2
 8003bd6:	005b      	lsls	r3, r3, #1
 8003bd8:	4413      	add	r3, r2
 8003bda:	00db      	lsls	r3, r3, #3
 8003bdc:	1a9b      	subs	r3, r3, r2
 8003bde:	4a2c      	ldr	r2, [pc, #176]	; (8003c90 <RTC_WeekDayNum+0xe4>)
 8003be0:	fba2 2303 	umull	r2, r3, r2, r3
 8003be4:	085a      	lsrs	r2, r3, #1
 8003be6:	78bb      	ldrb	r3, [r7, #2]
 8003be8:	441a      	add	r2, r3
 8003bea:	68bb      	ldr	r3, [r7, #8]
 8003bec:	441a      	add	r2, r3
 8003bee:	68bb      	ldr	r3, [r7, #8]
 8003bf0:	3b01      	subs	r3, #1
 8003bf2:	089b      	lsrs	r3, r3, #2
 8003bf4:	441a      	add	r2, r3
 8003bf6:	68bb      	ldr	r3, [r7, #8]
 8003bf8:	3b01      	subs	r3, #1
 8003bfa:	4926      	ldr	r1, [pc, #152]	; (8003c94 <RTC_WeekDayNum+0xe8>)
 8003bfc:	fba1 1303 	umull	r1, r3, r1, r3
 8003c00:	095b      	lsrs	r3, r3, #5
 8003c02:	1ad2      	subs	r2, r2, r3
 8003c04:	68bb      	ldr	r3, [r7, #8]
 8003c06:	3b01      	subs	r3, #1
 8003c08:	4922      	ldr	r1, [pc, #136]	; (8003c94 <RTC_WeekDayNum+0xe8>)
 8003c0a:	fba1 1303 	umull	r1, r3, r1, r3
 8003c0e:	09db      	lsrs	r3, r3, #7
 8003c10:	4413      	add	r3, r2
 8003c12:	1d1a      	adds	r2, r3, #4
 8003c14:	4b20      	ldr	r3, [pc, #128]	; (8003c98 <RTC_WeekDayNum+0xec>)
 8003c16:	fba3 1302 	umull	r1, r3, r3, r2
 8003c1a:	1ad1      	subs	r1, r2, r3
 8003c1c:	0849      	lsrs	r1, r1, #1
 8003c1e:	440b      	add	r3, r1
 8003c20:	0899      	lsrs	r1, r3, #2
 8003c22:	460b      	mov	r3, r1
 8003c24:	00db      	lsls	r3, r3, #3
 8003c26:	1a5b      	subs	r3, r3, r1
 8003c28:	1ad3      	subs	r3, r2, r3
 8003c2a:	60fb      	str	r3, [r7, #12]
 8003c2c:	e029      	b.n	8003c82 <RTC_WeekDayNum+0xd6>
  }
  else
  {
    /*D = { [(23 x month)/9] + day + 4 + year + [year/4] - [year/100] + [year/400] - 2 } mod 7*/
    weekday = (((23U * nMonth) / 9U) + nDay + 4U + year + (year / 4U) - (year / 100U) + (year / 400U) - 2U) % 7U;
 8003c2e:	78fa      	ldrb	r2, [r7, #3]
 8003c30:	4613      	mov	r3, r2
 8003c32:	005b      	lsls	r3, r3, #1
 8003c34:	4413      	add	r3, r2
 8003c36:	00db      	lsls	r3, r3, #3
 8003c38:	1a9b      	subs	r3, r3, r2
 8003c3a:	4a15      	ldr	r2, [pc, #84]	; (8003c90 <RTC_WeekDayNum+0xe4>)
 8003c3c:	fba2 2303 	umull	r2, r3, r2, r3
 8003c40:	085a      	lsrs	r2, r3, #1
 8003c42:	78bb      	ldrb	r3, [r7, #2]
 8003c44:	441a      	add	r2, r3
 8003c46:	68bb      	ldr	r3, [r7, #8]
 8003c48:	441a      	add	r2, r3
 8003c4a:	68bb      	ldr	r3, [r7, #8]
 8003c4c:	089b      	lsrs	r3, r3, #2
 8003c4e:	441a      	add	r2, r3
 8003c50:	68bb      	ldr	r3, [r7, #8]
 8003c52:	4910      	ldr	r1, [pc, #64]	; (8003c94 <RTC_WeekDayNum+0xe8>)
 8003c54:	fba1 1303 	umull	r1, r3, r1, r3
 8003c58:	095b      	lsrs	r3, r3, #5
 8003c5a:	1ad2      	subs	r2, r2, r3
 8003c5c:	68bb      	ldr	r3, [r7, #8]
 8003c5e:	490d      	ldr	r1, [pc, #52]	; (8003c94 <RTC_WeekDayNum+0xe8>)
 8003c60:	fba1 1303 	umull	r1, r3, r1, r3
 8003c64:	09db      	lsrs	r3, r3, #7
 8003c66:	4413      	add	r3, r2
 8003c68:	1c9a      	adds	r2, r3, #2
 8003c6a:	4b0b      	ldr	r3, [pc, #44]	; (8003c98 <RTC_WeekDayNum+0xec>)
 8003c6c:	fba3 1302 	umull	r1, r3, r3, r2
 8003c70:	1ad1      	subs	r1, r2, r3
 8003c72:	0849      	lsrs	r1, r1, #1
 8003c74:	440b      	add	r3, r1
 8003c76:	0899      	lsrs	r1, r3, #2
 8003c78:	460b      	mov	r3, r1
 8003c7a:	00db      	lsls	r3, r3, #3
 8003c7c:	1a5b      	subs	r3, r3, r1
 8003c7e:	1ad3      	subs	r3, r2, r3
 8003c80:	60fb      	str	r3, [r7, #12]
  }

  return (uint8_t)weekday;
 8003c82:	68fb      	ldr	r3, [r7, #12]
 8003c84:	b2db      	uxtb	r3, r3
}
 8003c86:	4618      	mov	r0, r3
 8003c88:	3714      	adds	r7, #20
 8003c8a:	46bd      	mov	sp, r7
 8003c8c:	bc80      	pop	{r7}
 8003c8e:	4770      	bx	lr
 8003c90:	38e38e39 	.word	0x38e38e39
 8003c94:	51eb851f 	.word	0x51eb851f
 8003c98:	24924925 	.word	0x24924925

08003c9c <HAL_RTCEx_RTCIRQHandler>:
  * @param  hrtc: pointer to a RTC_HandleTypeDef structure that contains
  *                the configuration information for RTC.
  * @retval None
  */
void HAL_RTCEx_RTCIRQHandler(RTC_HandleTypeDef *hrtc)
{
 8003c9c:	b580      	push	{r7, lr}
 8003c9e:	b082      	sub	sp, #8
 8003ca0:	af00      	add	r7, sp, #0
 8003ca2:	6078      	str	r0, [r7, #4]
  if (__HAL_RTC_SECOND_GET_IT_SOURCE(hrtc, RTC_IT_SEC))
 8003ca4:	687b      	ldr	r3, [r7, #4]
 8003ca6:	681b      	ldr	r3, [r3, #0]
 8003ca8:	681b      	ldr	r3, [r3, #0]
 8003caa:	f003 0301 	and.w	r3, r3, #1
 8003cae:	2b00      	cmp	r3, #0
 8003cb0:	d024      	beq.n	8003cfc <HAL_RTCEx_RTCIRQHandler+0x60>
  {
    /* Get the status of the Interrupt */
    if (__HAL_RTC_SECOND_GET_FLAG(hrtc, RTC_FLAG_SEC))
 8003cb2:	687b      	ldr	r3, [r7, #4]
 8003cb4:	681b      	ldr	r3, [r3, #0]
 8003cb6:	685b      	ldr	r3, [r3, #4]
 8003cb8:	f003 0301 	and.w	r3, r3, #1
 8003cbc:	2b00      	cmp	r3, #0
 8003cbe:	d01d      	beq.n	8003cfc <HAL_RTCEx_RTCIRQHandler+0x60>
    {
      /* Check if Overrun occurred */
      if (__HAL_RTC_SECOND_GET_FLAG(hrtc, RTC_FLAG_OW))
 8003cc0:	687b      	ldr	r3, [r7, #4]
 8003cc2:	681b      	ldr	r3, [r3, #0]
 8003cc4:	685b      	ldr	r3, [r3, #4]
 8003cc6:	f003 0304 	and.w	r3, r3, #4
 8003cca:	2b00      	cmp	r3, #0
 8003ccc:	d00b      	beq.n	8003ce6 <HAL_RTCEx_RTCIRQHandler+0x4a>
      {
        /* Second error callback */
        HAL_RTCEx_RTCEventErrorCallback(hrtc);
 8003cce:	6878      	ldr	r0, [r7, #4]
 8003cd0:	f000 f821 	bl	8003d16 <HAL_RTCEx_RTCEventErrorCallback>

        /* Clear flag Second */
        __HAL_RTC_OVERFLOW_CLEAR_FLAG(hrtc, RTC_FLAG_OW);
 8003cd4:	687b      	ldr	r3, [r7, #4]
 8003cd6:	681b      	ldr	r3, [r3, #0]
 8003cd8:	f06f 0204 	mvn.w	r2, #4
 8003cdc:	605a      	str	r2, [r3, #4]

        /* Change RTC state */
        hrtc->State = HAL_RTC_STATE_ERROR;
 8003cde:	687b      	ldr	r3, [r7, #4]
 8003ce0:	2204      	movs	r2, #4
 8003ce2:	745a      	strb	r2, [r3, #17]
 8003ce4:	e005      	b.n	8003cf2 <HAL_RTCEx_RTCIRQHandler+0x56>
      }
      else
      {
        /* Second callback */
        HAL_RTCEx_RTCEventCallback(hrtc);
 8003ce6:	6878      	ldr	r0, [r7, #4]
 8003ce8:	f000 f80c 	bl	8003d04 <HAL_RTCEx_RTCEventCallback>

        /* Change RTC state */
        hrtc->State = HAL_RTC_STATE_READY;
 8003cec:	687b      	ldr	r3, [r7, #4]
 8003cee:	2201      	movs	r2, #1
 8003cf0:	745a      	strb	r2, [r3, #17]
      }

      /* Clear flag Second */
      __HAL_RTC_SECOND_CLEAR_FLAG(hrtc, RTC_FLAG_SEC);
 8003cf2:	687b      	ldr	r3, [r7, #4]
 8003cf4:	681b      	ldr	r3, [r3, #0]
 8003cf6:	f06f 0201 	mvn.w	r2, #1
 8003cfa:	605a      	str	r2, [r3, #4]
    }
  }
}
 8003cfc:	bf00      	nop
 8003cfe:	3708      	adds	r7, #8
 8003d00:	46bd      	mov	sp, r7
 8003d02:	bd80      	pop	{r7, pc}

08003d04 <HAL_RTCEx_RTCEventCallback>:
  * @param  hrtc: pointer to a RTC_HandleTypeDef structure that contains
  *                the configuration information for RTC.
  * @retval None
  */
__weak void HAL_RTCEx_RTCEventCallback(RTC_HandleTypeDef *hrtc)
{
 8003d04:	b480      	push	{r7}
 8003d06:	b083      	sub	sp, #12
 8003d08:	af00      	add	r7, sp, #0
 8003d0a:	6078      	str	r0, [r7, #4]
  /* Prevent unused argument(s) compilation warning */
  UNUSED(hrtc);
  /* NOTE : This function Should not be modified, when the callback is needed,
            the HAL_RTCEx_RTCEventCallback could be implemented in the user file
   */
}
 8003d0c:	bf00      	nop
 8003d0e:	370c      	adds	r7, #12
 8003d10:	46bd      	mov	sp, r7
 8003d12:	bc80      	pop	{r7}
 8003d14:	4770      	bx	lr

08003d16 <HAL_RTCEx_RTCEventErrorCallback>:
  * @param  hrtc: pointer to a RTC_HandleTypeDef structure that contains
  *                the configuration information for RTC.
  * @retval None
  */
__weak void HAL_RTCEx_RTCEventErrorCallback(RTC_HandleTypeDef *hrtc)
{
 8003d16:	b480      	push	{r7}
 8003d18:	b083      	sub	sp, #12
 8003d1a:	af00      	add	r7, sp, #0
 8003d1c:	6078      	str	r0, [r7, #4]
  /* Prevent unused argument(s) compilation warning */
  UNUSED(hrtc);
  /* NOTE : This function Should not be modified, when the callback is needed,
            the HAL_RTCEx_RTCEventErrorCallback could be implemented in the user file
   */
}
 8003d1e:	bf00      	nop
 8003d20:	370c      	adds	r7, #12
 8003d22:	46bd      	mov	sp, r7
 8003d24:	bc80      	pop	{r7}
 8003d26:	4770      	bx	lr

08003d28 <HAL_SPI_Init>:
  * @param  hspi pointer to a SPI_HandleTypeDef structure that contains
  *               the configuration information for SPI module.
  * @retval HAL status
  */
HAL_StatusTypeDef HAL_SPI_Init(SPI_HandleTypeDef *hspi)
{
 8003d28:	b580      	push	{r7, lr}
 8003d2a:	b082      	sub	sp, #8
 8003d2c:	af00      	add	r7, sp, #0
 8003d2e:	6078      	str	r0, [r7, #4]
  /* Check the SPI handle allocation */
  if (hspi == NULL)
 8003d30:	687b      	ldr	r3, [r7, #4]
 8003d32:	2b00      	cmp	r3, #0
 8003d34:	d101      	bne.n	8003d3a <HAL_SPI_Init+0x12>
  {
    return HAL_ERROR;
 8003d36:	2301      	movs	r3, #1
 8003d38:	e053      	b.n	8003de2 <HAL_SPI_Init+0xba>
  if (hspi->Init.CRCCalculation == SPI_CRCCALCULATION_ENABLE)
  {
    assert_param(IS_SPI_CRC_POLYNOMIAL(hspi->Init.CRCPolynomial));
  }
#else
  hspi->Init.CRCCalculation = SPI_CRCCALCULATION_DISABLE;
 8003d3a:	687b      	ldr	r3, [r7, #4]
 8003d3c:	2200      	movs	r2, #0
 8003d3e:	629a      	str	r2, [r3, #40]	; 0x28
#endif /* USE_SPI_CRC */

  if (hspi->State == HAL_SPI_STATE_RESET)
 8003d40:	687b      	ldr	r3, [r7, #4]
 8003d42:	f893 3051 	ldrb.w	r3, [r3, #81]	; 0x51
 8003d46:	b2db      	uxtb	r3, r3
 8003d48:	2b00      	cmp	r3, #0
 8003d4a:	d106      	bne.n	8003d5a <HAL_SPI_Init+0x32>
  {
    /* Allocate lock resource and initialize it */
    hspi->Lock = HAL_UNLOCKED;
 8003d4c:	687b      	ldr	r3, [r7, #4]
 8003d4e:	2200      	movs	r2, #0
 8003d50:	f883 2050 	strb.w	r2, [r3, #80]	; 0x50

    /* Init the low level hardware : GPIO, CLOCK, NVIC... */
    hspi->MspInitCallback(hspi);
#else
    /* Init the low level hardware : GPIO, CLOCK, NVIC... */
    HAL_SPI_MspInit(hspi);
 8003d54:	6878      	ldr	r0, [r7, #4]
 8003d56:	f7fd fbdd 	bl	8001514 <HAL_SPI_MspInit>
#endif /* USE_HAL_SPI_REGISTER_CALLBACKS */
  }

  hspi->State = HAL_SPI_STATE_BUSY;
 8003d5a:	687b      	ldr	r3, [r7, #4]
 8003d5c:	2202      	movs	r2, #2
 8003d5e:	f883 2051 	strb.w	r2, [r3, #81]	; 0x51

  /* Disable the selected SPI peripheral */
  __HAL_SPI_DISABLE(hspi);
 8003d62:	687b      	ldr	r3, [r7, #4]
 8003d64:	681b      	ldr	r3, [r3, #0]
 8003d66:	681a      	ldr	r2, [r3, #0]
 8003d68:	687b      	ldr	r3, [r7, #4]
 8003d6a:	681b      	ldr	r3, [r3, #0]
 8003d6c:	f022 0240 	bic.w	r2, r2, #64	; 0x40
 8003d70:	601a      	str	r2, [r3, #0]

  /*----------------------- SPIx CR1 & CR2 Configuration ---------------------*/
  /* Configure : SPI Mode, Communication Mode, Data size, Clock polarity and phase, NSS management,
  Communication speed, First bit and CRC calculation state */
  WRITE_REG(hspi->Instance->CR1, (hspi->Init.Mode | hspi->Init.Direction | hspi->Init.DataSize |
 8003d72:	687b      	ldr	r3, [r7, #4]
 8003d74:	685a      	ldr	r2, [r3, #4]
 8003d76:	687b      	ldr	r3, [r7, #4]
 8003d78:	689b      	ldr	r3, [r3, #8]
 8003d7a:	431a      	orrs	r2, r3
 8003d7c:	687b      	ldr	r3, [r7, #4]
 8003d7e:	68db      	ldr	r3, [r3, #12]
 8003d80:	431a      	orrs	r2, r3
 8003d82:	687b      	ldr	r3, [r7, #4]
 8003d84:	691b      	ldr	r3, [r3, #16]
 8003d86:	431a      	orrs	r2, r3
 8003d88:	687b      	ldr	r3, [r7, #4]
 8003d8a:	695b      	ldr	r3, [r3, #20]
 8003d8c:	431a      	orrs	r2, r3
 8003d8e:	687b      	ldr	r3, [r7, #4]
 8003d90:	699b      	ldr	r3, [r3, #24]
 8003d92:	f403 7300 	and.w	r3, r3, #512	; 0x200
 8003d96:	431a      	orrs	r2, r3
 8003d98:	687b      	ldr	r3, [r7, #4]
 8003d9a:	69db      	ldr	r3, [r3, #28]
 8003d9c:	431a      	orrs	r2, r3
 8003d9e:	687b      	ldr	r3, [r7, #4]
 8003da0:	6a1b      	ldr	r3, [r3, #32]
 8003da2:	ea42 0103 	orr.w	r1, r2, r3
 8003da6:	687b      	ldr	r3, [r7, #4]
 8003da8:	6a9a      	ldr	r2, [r3, #40]	; 0x28
 8003daa:	687b      	ldr	r3, [r7, #4]
 8003dac:	681b      	ldr	r3, [r3, #0]
 8003dae:	430a      	orrs	r2, r1
 8003db0:	601a      	str	r2, [r3, #0]
                                  hspi->Init.CLKPolarity | hspi->Init.CLKPhase | (hspi->Init.NSS & SPI_CR1_SSM) |
                                  hspi->Init.BaudRatePrescaler | hspi->Init.FirstBit  | hspi->Init.CRCCalculation));

  /* Configure : NSS management */
  WRITE_REG(hspi->Instance->CR2, ((hspi->Init.NSS >> 16U) & SPI_CR2_SSOE));
 8003db2:	687b      	ldr	r3, [r7, #4]
 8003db4:	699b      	ldr	r3, [r3, #24]
 8003db6:	0c1a      	lsrs	r2, r3, #16
 8003db8:	687b      	ldr	r3, [r7, #4]
 8003dba:	681b      	ldr	r3, [r3, #0]
 8003dbc:	f002 0204 	and.w	r2, r2, #4
 8003dc0:	605a      	str	r2, [r3, #4]
  }
#endif /* USE_SPI_CRC */

#if defined(SPI_I2SCFGR_I2SMOD)
  /* Activate the SPI mode (Make sure that I2SMOD bit in I2SCFGR register is reset) */
  CLEAR_BIT(hspi->Instance->I2SCFGR, SPI_I2SCFGR_I2SMOD);
 8003dc2:	687b      	ldr	r3, [r7, #4]
 8003dc4:	681b      	ldr	r3, [r3, #0]
 8003dc6:	69da      	ldr	r2, [r3, #28]
 8003dc8:	687b      	ldr	r3, [r7, #4]
 8003dca:	681b      	ldr	r3, [r3, #0]
 8003dcc:	f422 6200 	bic.w	r2, r2, #2048	; 0x800
 8003dd0:	61da      	str	r2, [r3, #28]
#endif /* SPI_I2SCFGR_I2SMOD */

  hspi->ErrorCode = HAL_SPI_ERROR_NONE;
 8003dd2:	687b      	ldr	r3, [r7, #4]
 8003dd4:	2200      	movs	r2, #0
 8003dd6:	655a      	str	r2, [r3, #84]	; 0x54
  hspi->State     = HAL_SPI_STATE_READY;
 8003dd8:	687b      	ldr	r3, [r7, #4]
 8003dda:	2201      	movs	r2, #1
 8003ddc:	f883 2051 	strb.w	r2, [r3, #81]	; 0x51

  return HAL_OK;
 8003de0:	2300      	movs	r3, #0
}
 8003de2:	4618      	mov	r0, r3
 8003de4:	3708      	adds	r7, #8
 8003de6:	46bd      	mov	sp, r7
 8003de8:	bd80      	pop	{r7, pc}

08003dea <HAL_SPI_Transmit>:
  * @param  Size amount of data to be sent
  * @param  Timeout Timeout duration
  * @retval HAL status
  */
HAL_StatusTypeDef HAL_SPI_Transmit(SPI_HandleTypeDef *hspi, uint8_t *pData, uint16_t Size, uint32_t Timeout)
{
 8003dea:	b580      	push	{r7, lr}
 8003dec:	b088      	sub	sp, #32
 8003dee:	af00      	add	r7, sp, #0
 8003df0:	60f8      	str	r0, [r7, #12]
 8003df2:	60b9      	str	r1, [r7, #8]
 8003df4:	603b      	str	r3, [r7, #0]
 8003df6:	4613      	mov	r3, r2
 8003df8:	80fb      	strh	r3, [r7, #6]
  uint32_t tickstart;
  HAL_StatusTypeDef errorcode = HAL_OK;
 8003dfa:	2300      	movs	r3, #0
 8003dfc:	77fb      	strb	r3, [r7, #31]

  /* Check Direction parameter */
  assert_param(IS_SPI_DIRECTION_2LINES_OR_1LINE(hspi->Init.Direction));

  /* Process Locked */
  __HAL_LOCK(hspi);
 8003dfe:	68fb      	ldr	r3, [r7, #12]
 8003e00:	f893 3050 	ldrb.w	r3, [r3, #80]	; 0x50
 8003e04:	2b01      	cmp	r3, #1
 8003e06:	d101      	bne.n	8003e0c <HAL_SPI_Transmit+0x22>
 8003e08:	2302      	movs	r3, #2
 8003e0a:	e11e      	b.n	800404a <HAL_SPI_Transmit+0x260>
 8003e0c:	68fb      	ldr	r3, [r7, #12]
 8003e0e:	2201      	movs	r2, #1
 8003e10:	f883 2050 	strb.w	r2, [r3, #80]	; 0x50

  /* Init tickstart for timeout management*/
  tickstart = HAL_GetTick();
 8003e14:	f7fd fe4c 	bl	8001ab0 <HAL_GetTick>
 8003e18:	61b8      	str	r0, [r7, #24]
  initial_TxXferCount = Size;
 8003e1a:	88fb      	ldrh	r3, [r7, #6]
 8003e1c:	82fb      	strh	r3, [r7, #22]

  if (hspi->State != HAL_SPI_STATE_READY)
 8003e1e:	68fb      	ldr	r3, [r7, #12]
 8003e20:	f893 3051 	ldrb.w	r3, [r3, #81]	; 0x51
 8003e24:	b2db      	uxtb	r3, r3
 8003e26:	2b01      	cmp	r3, #1
 8003e28:	d002      	beq.n	8003e30 <HAL_SPI_Transmit+0x46>
  {
    errorcode = HAL_BUSY;
 8003e2a:	2302      	movs	r3, #2
 8003e2c:	77fb      	strb	r3, [r7, #31]
    goto error;
 8003e2e:	e103      	b.n	8004038 <HAL_SPI_Transmit+0x24e>
  }

  if ((pData == NULL) || (Size == 0U))
 8003e30:	68bb      	ldr	r3, [r7, #8]
 8003e32:	2b00      	cmp	r3, #0
 8003e34:	d002      	beq.n	8003e3c <HAL_SPI_Transmit+0x52>
 8003e36:	88fb      	ldrh	r3, [r7, #6]
 8003e38:	2b00      	cmp	r3, #0
 8003e3a:	d102      	bne.n	8003e42 <HAL_SPI_Transmit+0x58>
  {
    errorcode = HAL_ERROR;
 8003e3c:	2301      	movs	r3, #1
 8003e3e:	77fb      	strb	r3, [r7, #31]
    goto error;
 8003e40:	e0fa      	b.n	8004038 <HAL_SPI_Transmit+0x24e>
  }

  /* Set the transaction information */
  hspi->State       = HAL_SPI_STATE_BUSY_TX;
 8003e42:	68fb      	ldr	r3, [r7, #12]
 8003e44:	2203      	movs	r2, #3
 8003e46:	f883 2051 	strb.w	r2, [r3, #81]	; 0x51
  hspi->ErrorCode   = HAL_SPI_ERROR_NONE;
 8003e4a:	68fb      	ldr	r3, [r7, #12]
 8003e4c:	2200      	movs	r2, #0
 8003e4e:	655a      	str	r2, [r3, #84]	; 0x54
  hspi->pTxBuffPtr  = (uint8_t *)pData;
 8003e50:	68fb      	ldr	r3, [r7, #12]
 8003e52:	68ba      	ldr	r2, [r7, #8]
 8003e54:	631a      	str	r2, [r3, #48]	; 0x30
  hspi->TxXferSize  = Size;
 8003e56:	68fb      	ldr	r3, [r7, #12]
 8003e58:	88fa      	ldrh	r2, [r7, #6]
 8003e5a:	869a      	strh	r2, [r3, #52]	; 0x34
  hspi->TxXferCount = Size;
 8003e5c:	68fb      	ldr	r3, [r7, #12]
 8003e5e:	88fa      	ldrh	r2, [r7, #6]
 8003e60:	86da      	strh	r2, [r3, #54]	; 0x36

  /*Init field not used in handle to zero */
  hspi->pRxBuffPtr  = (uint8_t *)NULL;
 8003e62:	68fb      	ldr	r3, [r7, #12]
 8003e64:	2200      	movs	r2, #0
 8003e66:	639a      	str	r2, [r3, #56]	; 0x38
  hspi->RxXferSize  = 0U;
 8003e68:	68fb      	ldr	r3, [r7, #12]
 8003e6a:	2200      	movs	r2, #0
 8003e6c:	879a      	strh	r2, [r3, #60]	; 0x3c
  hspi->RxXferCount = 0U;
 8003e6e:	68fb      	ldr	r3, [r7, #12]
 8003e70:	2200      	movs	r2, #0
 8003e72:	87da      	strh	r2, [r3, #62]	; 0x3e
  hspi->TxISR       = NULL;
 8003e74:	68fb      	ldr	r3, [r7, #12]
 8003e76:	2200      	movs	r2, #0
 8003e78:	645a      	str	r2, [r3, #68]	; 0x44
  hspi->RxISR       = NULL;
 8003e7a:	68fb      	ldr	r3, [r7, #12]
 8003e7c:	2200      	movs	r2, #0
 8003e7e:	641a      	str	r2, [r3, #64]	; 0x40

  /* Configure communication direction : 1Line */
  if (hspi->Init.Direction == SPI_DIRECTION_1LINE)
 8003e80:	68fb      	ldr	r3, [r7, #12]
 8003e82:	689b      	ldr	r3, [r3, #8]
 8003e84:	f5b3 4f00 	cmp.w	r3, #32768	; 0x8000
 8003e88:	d107      	bne.n	8003e9a <HAL_SPI_Transmit+0xb0>
  {
    SPI_1LINE_TX(hspi);
 8003e8a:	68fb      	ldr	r3, [r7, #12]
 8003e8c:	681b      	ldr	r3, [r3, #0]
 8003e8e:	681a      	ldr	r2, [r3, #0]
 8003e90:	68fb      	ldr	r3, [r7, #12]
 8003e92:	681b      	ldr	r3, [r3, #0]
 8003e94:	f442 4280 	orr.w	r2, r2, #16384	; 0x4000
 8003e98:	601a      	str	r2, [r3, #0]
    SPI_RESET_CRC(hspi);
  }
#endif /* USE_SPI_CRC */

  /* Check if the SPI is already enabled */
  if ((hspi->Instance->CR1 & SPI_CR1_SPE) != SPI_CR1_SPE)
 8003e9a:	68fb      	ldr	r3, [r7, #12]
 8003e9c:	681b      	ldr	r3, [r3, #0]
 8003e9e:	681b      	ldr	r3, [r3, #0]
 8003ea0:	f003 0340 	and.w	r3, r3, #64	; 0x40
 8003ea4:	2b40      	cmp	r3, #64	; 0x40
 8003ea6:	d007      	beq.n	8003eb8 <HAL_SPI_Transmit+0xce>
  {
    /* Enable SPI peripheral */
    __HAL_SPI_ENABLE(hspi);
 8003ea8:	68fb      	ldr	r3, [r7, #12]
 8003eaa:	681b      	ldr	r3, [r3, #0]
 8003eac:	681a      	ldr	r2, [r3, #0]
 8003eae:	68fb      	ldr	r3, [r7, #12]
 8003eb0:	681b      	ldr	r3, [r3, #0]
 8003eb2:	f042 0240 	orr.w	r2, r2, #64	; 0x40
 8003eb6:	601a      	str	r2, [r3, #0]
  }

  /* Transmit data in 16 Bit mode */
  if (hspi->Init.DataSize == SPI_DATASIZE_16BIT)
 8003eb8:	68fb      	ldr	r3, [r7, #12]
 8003eba:	68db      	ldr	r3, [r3, #12]
 8003ebc:	f5b3 6f00 	cmp.w	r3, #2048	; 0x800
 8003ec0:	d14b      	bne.n	8003f5a <HAL_SPI_Transmit+0x170>
  {
    if ((hspi->Init.Mode == SPI_MODE_SLAVE) || (initial_TxXferCount == 0x01U))
 8003ec2:	68fb      	ldr	r3, [r7, #12]
 8003ec4:	685b      	ldr	r3, [r3, #4]
 8003ec6:	2b00      	cmp	r3, #0
 8003ec8:	d002      	beq.n	8003ed0 <HAL_SPI_Transmit+0xe6>
 8003eca:	8afb      	ldrh	r3, [r7, #22]
 8003ecc:	2b01      	cmp	r3, #1
 8003ece:	d13e      	bne.n	8003f4e <HAL_SPI_Transmit+0x164>
    {
      hspi->Instance->DR = *((uint16_t *)hspi->pTxBuffPtr);
 8003ed0:	68fb      	ldr	r3, [r7, #12]
 8003ed2:	6b1b      	ldr	r3, [r3, #48]	; 0x30
 8003ed4:	881a      	ldrh	r2, [r3, #0]
 8003ed6:	68fb      	ldr	r3, [r7, #12]
 8003ed8:	681b      	ldr	r3, [r3, #0]
 8003eda:	60da      	str	r2, [r3, #12]
      hspi->pTxBuffPtr += sizeof(uint16_t);
 8003edc:	68fb      	ldr	r3, [r7, #12]
 8003ede:	6b1b      	ldr	r3, [r3, #48]	; 0x30
 8003ee0:	1c9a      	adds	r2, r3, #2
 8003ee2:	68fb      	ldr	r3, [r7, #12]
 8003ee4:	631a      	str	r2, [r3, #48]	; 0x30
      hspi->TxXferCount--;
 8003ee6:	68fb      	ldr	r3, [r7, #12]
 8003ee8:	8edb      	ldrh	r3, [r3, #54]	; 0x36
 8003eea:	b29b      	uxth	r3, r3
 8003eec:	3b01      	subs	r3, #1
 8003eee:	b29a      	uxth	r2, r3
 8003ef0:	68fb      	ldr	r3, [r7, #12]
 8003ef2:	86da      	strh	r2, [r3, #54]	; 0x36
    }
    /* Transmit data in 16 Bit mode */
    while (hspi->TxXferCount > 0U)
 8003ef4:	e02b      	b.n	8003f4e <HAL_SPI_Transmit+0x164>
    {
      /* Wait until TXE flag is set to send data */
      if (__HAL_SPI_GET_FLAG(hspi, SPI_FLAG_TXE))
 8003ef6:	68fb      	ldr	r3, [r7, #12]
 8003ef8:	681b      	ldr	r3, [r3, #0]
 8003efa:	689b      	ldr	r3, [r3, #8]
 8003efc:	f003 0302 	and.w	r3, r3, #2
 8003f00:	2b02      	cmp	r3, #2
 8003f02:	d112      	bne.n	8003f2a <HAL_SPI_Transmit+0x140>
      {
        hspi->Instance->DR = *((uint16_t *)hspi->pTxBuffPtr);
 8003f04:	68fb      	ldr	r3, [r7, #12]
 8003f06:	6b1b      	ldr	r3, [r3, #48]	; 0x30
 8003f08:	881a      	ldrh	r2, [r3, #0]
 8003f0a:	68fb      	ldr	r3, [r7, #12]
 8003f0c:	681b      	ldr	r3, [r3, #0]
 8003f0e:	60da      	str	r2, [r3, #12]
        hspi->pTxBuffPtr += sizeof(uint16_t);
 8003f10:	68fb      	ldr	r3, [r7, #12]
 8003f12:	6b1b      	ldr	r3, [r3, #48]	; 0x30
 8003f14:	1c9a      	adds	r2, r3, #2
 8003f16:	68fb      	ldr	r3, [r7, #12]
 8003f18:	631a      	str	r2, [r3, #48]	; 0x30
        hspi->TxXferCount--;
 8003f1a:	68fb      	ldr	r3, [r7, #12]
 8003f1c:	8edb      	ldrh	r3, [r3, #54]	; 0x36
 8003f1e:	b29b      	uxth	r3, r3
 8003f20:	3b01      	subs	r3, #1
 8003f22:	b29a      	uxth	r2, r3
 8003f24:	68fb      	ldr	r3, [r7, #12]
 8003f26:	86da      	strh	r2, [r3, #54]	; 0x36
 8003f28:	e011      	b.n	8003f4e <HAL_SPI_Transmit+0x164>
      }
      else
      {
        /* Timeout management */
        if ((((HAL_GetTick() - tickstart) >=  Timeout) && (Timeout != HAL_MAX_DELAY)) || (Timeout == 0U))
 8003f2a:	f7fd fdc1 	bl	8001ab0 <HAL_GetTick>
 8003f2e:	4602      	mov	r2, r0
 8003f30:	69bb      	ldr	r3, [r7, #24]
 8003f32:	1ad3      	subs	r3, r2, r3
 8003f34:	683a      	ldr	r2, [r7, #0]
 8003f36:	429a      	cmp	r2, r3
 8003f38:	d803      	bhi.n	8003f42 <HAL_SPI_Transmit+0x158>
 8003f3a:	683b      	ldr	r3, [r7, #0]
 8003f3c:	f1b3 3fff 	cmp.w	r3, #4294967295	; 0xffffffff
 8003f40:	d102      	bne.n	8003f48 <HAL_SPI_Transmit+0x15e>
 8003f42:	683b      	ldr	r3, [r7, #0]
 8003f44:	2b00      	cmp	r3, #0
 8003f46:	d102      	bne.n	8003f4e <HAL_SPI_Transmit+0x164>
        {
          errorcode = HAL_TIMEOUT;
 8003f48:	2303      	movs	r3, #3
 8003f4a:	77fb      	strb	r3, [r7, #31]
          goto error;
 8003f4c:	e074      	b.n	8004038 <HAL_SPI_Transmit+0x24e>
    while (hspi->TxXferCount > 0U)
 8003f4e:	68fb      	ldr	r3, [r7, #12]
 8003f50:	8edb      	ldrh	r3, [r3, #54]	; 0x36
 8003f52:	b29b      	uxth	r3, r3
 8003f54:	2b00      	cmp	r3, #0
 8003f56:	d1ce      	bne.n	8003ef6 <HAL_SPI_Transmit+0x10c>
 8003f58:	e04c      	b.n	8003ff4 <HAL_SPI_Transmit+0x20a>
    }
  }
  /* Transmit data in 8 Bit mode */
  else
  {
    if ((hspi->Init.Mode == SPI_MODE_SLAVE) || (initial_TxXferCount == 0x01U))
 8003f5a:	68fb      	ldr	r3, [r7, #12]
 8003f5c:	685b      	ldr	r3, [r3, #4]
 8003f5e:	2b00      	cmp	r3, #0
 8003f60:	d002      	beq.n	8003f68 <HAL_SPI_Transmit+0x17e>
 8003f62:	8afb      	ldrh	r3, [r7, #22]
 8003f64:	2b01      	cmp	r3, #1
 8003f66:	d140      	bne.n	8003fea <HAL_SPI_Transmit+0x200>
    {
      *((__IO uint8_t *)&hspi->Instance->DR) = (*hspi->pTxBuffPtr);
 8003f68:	68fb      	ldr	r3, [r7, #12]
 8003f6a:	6b1a      	ldr	r2, [r3, #48]	; 0x30
 8003f6c:	68fb      	ldr	r3, [r7, #12]
 8003f6e:	681b      	ldr	r3, [r3, #0]
 8003f70:	330c      	adds	r3, #12
 8003f72:	7812      	ldrb	r2, [r2, #0]
 8003f74:	701a      	strb	r2, [r3, #0]
      hspi->pTxBuffPtr += sizeof(uint8_t);
 8003f76:	68fb      	ldr	r3, [r7, #12]
 8003f78:	6b1b      	ldr	r3, [r3, #48]	; 0x30
 8003f7a:	1c5a      	adds	r2, r3, #1
 8003f7c:	68fb      	ldr	r3, [r7, #12]
 8003f7e:	631a      	str	r2, [r3, #48]	; 0x30
      hspi->TxXferCount--;
 8003f80:	68fb      	ldr	r3, [r7, #12]
 8003f82:	8edb      	ldrh	r3, [r3, #54]	; 0x36
 8003f84:	b29b      	uxth	r3, r3
 8003f86:	3b01      	subs	r3, #1
 8003f88:	b29a      	uxth	r2, r3
 8003f8a:	68fb      	ldr	r3, [r7, #12]
 8003f8c:	86da      	strh	r2, [r3, #54]	; 0x36
    }
    while (hspi->TxXferCount > 0U)
 8003f8e:	e02c      	b.n	8003fea <HAL_SPI_Transmit+0x200>
    {
      /* Wait until TXE flag is set to send data */
      if (__HAL_SPI_GET_FLAG(hspi, SPI_FLAG_TXE))
 8003f90:	68fb      	ldr	r3, [r7, #12]
 8003f92:	681b      	ldr	r3, [r3, #0]
 8003f94:	689b      	ldr	r3, [r3, #8]
 8003f96:	f003 0302 	and.w	r3, r3, #2
 8003f9a:	2b02      	cmp	r3, #2
 8003f9c:	d113      	bne.n	8003fc6 <HAL_SPI_Transmit+0x1dc>
      {
        *((__IO uint8_t *)&hspi->Instance->DR) = (*hspi->pTxBuffPtr);
 8003f9e:	68fb      	ldr	r3, [r7, #12]
 8003fa0:	6b1a      	ldr	r2, [r3, #48]	; 0x30
 8003fa2:	68fb      	ldr	r3, [r7, #12]
 8003fa4:	681b      	ldr	r3, [r3, #0]
 8003fa6:	330c      	adds	r3, #12
 8003fa8:	7812      	ldrb	r2, [r2, #0]
 8003faa:	701a      	strb	r2, [r3, #0]
        hspi->pTxBuffPtr += sizeof(uint8_t);
 8003fac:	68fb      	ldr	r3, [r7, #12]
 8003fae:	6b1b      	ldr	r3, [r3, #48]	; 0x30
 8003fb0:	1c5a      	adds	r2, r3, #1
 8003fb2:	68fb      	ldr	r3, [r7, #12]
 8003fb4:	631a      	str	r2, [r3, #48]	; 0x30
        hspi->TxXferCount--;
 8003fb6:	68fb      	ldr	r3, [r7, #12]
 8003fb8:	8edb      	ldrh	r3, [r3, #54]	; 0x36
 8003fba:	b29b      	uxth	r3, r3
 8003fbc:	3b01      	subs	r3, #1
 8003fbe:	b29a      	uxth	r2, r3
 8003fc0:	68fb      	ldr	r3, [r7, #12]
 8003fc2:	86da      	strh	r2, [r3, #54]	; 0x36
 8003fc4:	e011      	b.n	8003fea <HAL_SPI_Transmit+0x200>
      }
      else
      {
        /* Timeout management */
        if ((((HAL_GetTick() - tickstart) >=  Timeout) && (Timeout != HAL_MAX_DELAY)) || (Timeout == 0U))
 8003fc6:	f7fd fd73 	bl	8001ab0 <HAL_GetTick>
 8003fca:	4602      	mov	r2, r0
 8003fcc:	69bb      	ldr	r3, [r7, #24]
 8003fce:	1ad3      	subs	r3, r2, r3
 8003fd0:	683a      	ldr	r2, [r7, #0]
 8003fd2:	429a      	cmp	r2, r3
 8003fd4:	d803      	bhi.n	8003fde <HAL_SPI_Transmit+0x1f4>
 8003fd6:	683b      	ldr	r3, [r7, #0]
 8003fd8:	f1b3 3fff 	cmp.w	r3, #4294967295	; 0xffffffff
 8003fdc:	d102      	bne.n	8003fe4 <HAL_SPI_Transmit+0x1fa>
 8003fde:	683b      	ldr	r3, [r7, #0]
 8003fe0:	2b00      	cmp	r3, #0
 8003fe2:	d102      	bne.n	8003fea <HAL_SPI_Transmit+0x200>
        {
          errorcode = HAL_TIMEOUT;
 8003fe4:	2303      	movs	r3, #3
 8003fe6:	77fb      	strb	r3, [r7, #31]
          goto error;
 8003fe8:	e026      	b.n	8004038 <HAL_SPI_Transmit+0x24e>
    while (hspi->TxXferCount > 0U)
 8003fea:	68fb      	ldr	r3, [r7, #12]
 8003fec:	8edb      	ldrh	r3, [r3, #54]	; 0x36
 8003fee:	b29b      	uxth	r3, r3
 8003ff0:	2b00      	cmp	r3, #0
 8003ff2:	d1cd      	bne.n	8003f90 <HAL_SPI_Transmit+0x1a6>
    SET_BIT(hspi->Instance->CR1, SPI_CR1_CRCNEXT);
  }
#endif /* USE_SPI_CRC */

  /* Check the end of the transaction */
  if (SPI_EndRxTxTransaction(hspi, Timeout, tickstart) != HAL_OK)
 8003ff4:	69ba      	ldr	r2, [r7, #24]
 8003ff6:	6839      	ldr	r1, [r7, #0]
 8003ff8:	68f8      	ldr	r0, [r7, #12]
 8003ffa:	f000 fb91 	bl	8004720 <SPI_EndRxTxTransaction>
 8003ffe:	4603      	mov	r3, r0
 8004000:	2b00      	cmp	r3, #0
 8004002:	d002      	beq.n	800400a <HAL_SPI_Transmit+0x220>
  {
    hspi->ErrorCode = HAL_SPI_ERROR_FLAG;
 8004004:	68fb      	ldr	r3, [r7, #12]
 8004006:	2220      	movs	r2, #32
 8004008:	655a      	str	r2, [r3, #84]	; 0x54
  }

  /* Clear overrun flag in 2 Lines communication mode because received is not read */
  if (hspi->Init.Direction == SPI_DIRECTION_2LINES)
 800400a:	68fb      	ldr	r3, [r7, #12]
 800400c:	689b      	ldr	r3, [r3, #8]
 800400e:	2b00      	cmp	r3, #0
 8004010:	d10a      	bne.n	8004028 <HAL_SPI_Transmit+0x23e>
  {
    __HAL_SPI_CLEAR_OVRFLAG(hspi);
 8004012:	2300      	movs	r3, #0
 8004014:	613b      	str	r3, [r7, #16]
 8004016:	68fb      	ldr	r3, [r7, #12]
 8004018:	681b      	ldr	r3, [r3, #0]
 800401a:	68db      	ldr	r3, [r3, #12]
 800401c:	613b      	str	r3, [r7, #16]
 800401e:	68fb      	ldr	r3, [r7, #12]
 8004020:	681b      	ldr	r3, [r3, #0]
 8004022:	689b      	ldr	r3, [r3, #8]
 8004024:	613b      	str	r3, [r7, #16]
 8004026:	693b      	ldr	r3, [r7, #16]
  }

  if (hspi->ErrorCode != HAL_SPI_ERROR_NONE)
 8004028:	68fb      	ldr	r3, [r7, #12]
 800402a:	6d5b      	ldr	r3, [r3, #84]	; 0x54
 800402c:	2b00      	cmp	r3, #0
 800402e:	d002      	beq.n	8004036 <HAL_SPI_Transmit+0x24c>
  {
    errorcode = HAL_ERROR;
 8004030:	2301      	movs	r3, #1
 8004032:	77fb      	strb	r3, [r7, #31]
 8004034:	e000      	b.n	8004038 <HAL_SPI_Transmit+0x24e>
  }

error:
 8004036:	bf00      	nop
  hspi->State = HAL_SPI_STATE_READY;
 8004038:	68fb      	ldr	r3, [r7, #12]
 800403a:	2201      	movs	r2, #1
 800403c:	f883 2051 	strb.w	r2, [r3, #81]	; 0x51
  /* Process Unlocked */
  __HAL_UNLOCK(hspi);
 8004040:	68fb      	ldr	r3, [r7, #12]
 8004042:	2200      	movs	r2, #0
 8004044:	f883 2050 	strb.w	r2, [r3, #80]	; 0x50
  return errorcode;
 8004048:	7ffb      	ldrb	r3, [r7, #31]
}
 800404a:	4618      	mov	r0, r3
 800404c:	3720      	adds	r7, #32
 800404e:	46bd      	mov	sp, r7
 8004050:	bd80      	pop	{r7, pc}

08004052 <HAL_SPI_Receive>:
  * @param  Size amount of data to be received
  * @param  Timeout Timeout duration
  * @retval HAL status
  */
HAL_StatusTypeDef HAL_SPI_Receive(SPI_HandleTypeDef *hspi, uint8_t *pData, uint16_t Size, uint32_t Timeout)
{
 8004052:	b580      	push	{r7, lr}
 8004054:	b088      	sub	sp, #32
 8004056:	af02      	add	r7, sp, #8
 8004058:	60f8      	str	r0, [r7, #12]
 800405a:	60b9      	str	r1, [r7, #8]
 800405c:	603b      	str	r3, [r7, #0]
 800405e:	4613      	mov	r3, r2
 8004060:	80fb      	strh	r3, [r7, #6]
  uint32_t tickstart;
  HAL_StatusTypeDef errorcode = HAL_OK;
 8004062:	2300      	movs	r3, #0
 8004064:	75fb      	strb	r3, [r7, #23]

  if ((hspi->Init.Mode == SPI_MODE_MASTER) && (hspi->Init.Direction == SPI_DIRECTION_2LINES))
 8004066:	68fb      	ldr	r3, [r7, #12]
 8004068:	685b      	ldr	r3, [r3, #4]
 800406a:	f5b3 7f82 	cmp.w	r3, #260	; 0x104
 800406e:	d112      	bne.n	8004096 <HAL_SPI_Receive+0x44>
 8004070:	68fb      	ldr	r3, [r7, #12]
 8004072:	689b      	ldr	r3, [r3, #8]
 8004074:	2b00      	cmp	r3, #0
 8004076:	d10e      	bne.n	8004096 <HAL_SPI_Receive+0x44>
  {
    hspi->State = HAL_SPI_STATE_BUSY_RX;
 8004078:	68fb      	ldr	r3, [r7, #12]
 800407a:	2204      	movs	r2, #4
 800407c:	f883 2051 	strb.w	r2, [r3, #81]	; 0x51
    /* Call transmit-receive function to send Dummy data on Tx line and generate clock on CLK line */
    return HAL_SPI_TransmitReceive(hspi, pData, pData, Size, Timeout);
 8004080:	88fa      	ldrh	r2, [r7, #6]
 8004082:	683b      	ldr	r3, [r7, #0]
 8004084:	9300      	str	r3, [sp, #0]
 8004086:	4613      	mov	r3, r2
 8004088:	68ba      	ldr	r2, [r7, #8]
 800408a:	68b9      	ldr	r1, [r7, #8]
 800408c:	68f8      	ldr	r0, [r7, #12]
 800408e:	f000 f8e9 	bl	8004264 <HAL_SPI_TransmitReceive>
 8004092:	4603      	mov	r3, r0
 8004094:	e0e2      	b.n	800425c <HAL_SPI_Receive+0x20a>
  }

  /* Process Locked */
  __HAL_LOCK(hspi);
 8004096:	68fb      	ldr	r3, [r7, #12]
 8004098:	f893 3050 	ldrb.w	r3, [r3, #80]	; 0x50
 800409c:	2b01      	cmp	r3, #1
 800409e:	d101      	bne.n	80040a4 <HAL_SPI_Receive+0x52>
 80040a0:	2302      	movs	r3, #2
 80040a2:	e0db      	b.n	800425c <HAL_SPI_Receive+0x20a>
 80040a4:	68fb      	ldr	r3, [r7, #12]
 80040a6:	2201      	movs	r2, #1
 80040a8:	f883 2050 	strb.w	r2, [r3, #80]	; 0x50

  /* Init tickstart for timeout management*/
  tickstart = HAL_GetTick();
 80040ac:	f7fd fd00 	bl	8001ab0 <HAL_GetTick>
 80040b0:	6138      	str	r0, [r7, #16]

  if (hspi->State != HAL_SPI_STATE_READY)
 80040b2:	68fb      	ldr	r3, [r7, #12]
 80040b4:	f893 3051 	ldrb.w	r3, [r3, #81]	; 0x51
 80040b8:	b2db      	uxtb	r3, r3
 80040ba:	2b01      	cmp	r3, #1
 80040bc:	d002      	beq.n	80040c4 <HAL_SPI_Receive+0x72>
  {
    errorcode = HAL_BUSY;
 80040be:	2302      	movs	r3, #2
 80040c0:	75fb      	strb	r3, [r7, #23]
    goto error;
 80040c2:	e0c2      	b.n	800424a <HAL_SPI_Receive+0x1f8>
  }

  if ((pData == NULL) || (Size == 0U))
 80040c4:	68bb      	ldr	r3, [r7, #8]
 80040c6:	2b00      	cmp	r3, #0
 80040c8:	d002      	beq.n	80040d0 <HAL_SPI_Receive+0x7e>
 80040ca:	88fb      	ldrh	r3, [r7, #6]
 80040cc:	2b00      	cmp	r3, #0
 80040ce:	d102      	bne.n	80040d6 <HAL_SPI_Receive+0x84>
  {
    errorcode = HAL_ERROR;
 80040d0:	2301      	movs	r3, #1
 80040d2:	75fb      	strb	r3, [r7, #23]
    goto error;
 80040d4:	e0b9      	b.n	800424a <HAL_SPI_Receive+0x1f8>
  }

  /* Set the transaction information */
  hspi->State       = HAL_SPI_STATE_BUSY_RX;
 80040d6:	68fb      	ldr	r3, [r7, #12]
 80040d8:	2204      	movs	r2, #4
 80040da:	f883 2051 	strb.w	r2, [r3, #81]	; 0x51
  hspi->ErrorCode   = HAL_SPI_ERROR_NONE;
 80040de:	68fb      	ldr	r3, [r7, #12]
 80040e0:	2200      	movs	r2, #0
 80040e2:	655a      	str	r2, [r3, #84]	; 0x54
  hspi->pRxBuffPtr  = (uint8_t *)pData;
 80040e4:	68fb      	ldr	r3, [r7, #12]
 80040e6:	68ba      	ldr	r2, [r7, #8]
 80040e8:	639a      	str	r2, [r3, #56]	; 0x38
  hspi->RxXferSize  = Size;
 80040ea:	68fb      	ldr	r3, [r7, #12]
 80040ec:	88fa      	ldrh	r2, [r7, #6]
 80040ee:	879a      	strh	r2, [r3, #60]	; 0x3c
  hspi->RxXferCount = Size;
 80040f0:	68fb      	ldr	r3, [r7, #12]
 80040f2:	88fa      	ldrh	r2, [r7, #6]
 80040f4:	87da      	strh	r2, [r3, #62]	; 0x3e

  /*Init field not used in handle to zero */
  hspi->pTxBuffPtr  = (uint8_t *)NULL;
 80040f6:	68fb      	ldr	r3, [r7, #12]
 80040f8:	2200      	movs	r2, #0
 80040fa:	631a      	str	r2, [r3, #48]	; 0x30
  hspi->TxXferSize  = 0U;
 80040fc:	68fb      	ldr	r3, [r7, #12]
 80040fe:	2200      	movs	r2, #0
 8004100:	869a      	strh	r2, [r3, #52]	; 0x34
  hspi->TxXferCount = 0U;
 8004102:	68fb      	ldr	r3, [r7, #12]
 8004104:	2200      	movs	r2, #0
 8004106:	86da      	strh	r2, [r3, #54]	; 0x36
  hspi->RxISR       = NULL;
 8004108:	68fb      	ldr	r3, [r7, #12]
 800410a:	2200      	movs	r2, #0
 800410c:	641a      	str	r2, [r3, #64]	; 0x40
  hspi->TxISR       = NULL;
 800410e:	68fb      	ldr	r3, [r7, #12]
 8004110:	2200      	movs	r2, #0
 8004112:	645a      	str	r2, [r3, #68]	; 0x44
    hspi->RxXferCount--;
  }
#endif /* USE_SPI_CRC */

  /* Configure communication direction: 1Line */
  if (hspi->Init.Direction == SPI_DIRECTION_1LINE)
 8004114:	68fb      	ldr	r3, [r7, #12]
 8004116:	689b      	ldr	r3, [r3, #8]
 8004118:	f5b3 4f00 	cmp.w	r3, #32768	; 0x8000
 800411c:	d107      	bne.n	800412e <HAL_SPI_Receive+0xdc>
  {
    SPI_1LINE_RX(hspi);
 800411e:	68fb      	ldr	r3, [r7, #12]
 8004120:	681b      	ldr	r3, [r3, #0]
 8004122:	681a      	ldr	r2, [r3, #0]
 8004124:	68fb      	ldr	r3, [r7, #12]
 8004126:	681b      	ldr	r3, [r3, #0]
 8004128:	f422 4280 	bic.w	r2, r2, #16384	; 0x4000
 800412c:	601a      	str	r2, [r3, #0]
  }

  /* Check if the SPI is already enabled */
  if ((hspi->Instance->CR1 & SPI_CR1_SPE) != SPI_CR1_SPE)
 800412e:	68fb      	ldr	r3, [r7, #12]
 8004130:	681b      	ldr	r3, [r3, #0]
 8004132:	681b      	ldr	r3, [r3, #0]
 8004134:	f003 0340 	and.w	r3, r3, #64	; 0x40
 8004138:	2b40      	cmp	r3, #64	; 0x40
 800413a:	d007      	beq.n	800414c <HAL_SPI_Receive+0xfa>
  {
    /* Enable SPI peripheral */
    __HAL_SPI_ENABLE(hspi);
 800413c:	68fb      	ldr	r3, [r7, #12]
 800413e:	681b      	ldr	r3, [r3, #0]
 8004140:	681a      	ldr	r2, [r3, #0]
 8004142:	68fb      	ldr	r3, [r7, #12]
 8004144:	681b      	ldr	r3, [r3, #0]
 8004146:	f042 0240 	orr.w	r2, r2, #64	; 0x40
 800414a:	601a      	str	r2, [r3, #0]
  }

  /* Receive data in 8 Bit mode */
  if (hspi->Init.DataSize == SPI_DATASIZE_8BIT)
 800414c:	68fb      	ldr	r3, [r7, #12]
 800414e:	68db      	ldr	r3, [r3, #12]
 8004150:	2b00      	cmp	r3, #0
 8004152:	d162      	bne.n	800421a <HAL_SPI_Receive+0x1c8>
  {
    /* Transfer loop */
    while (hspi->RxXferCount > 0U)
 8004154:	e02e      	b.n	80041b4 <HAL_SPI_Receive+0x162>
    {
      /* Check the RXNE flag */
      if (__HAL_SPI_GET_FLAG(hspi, SPI_FLAG_RXNE))
 8004156:	68fb      	ldr	r3, [r7, #12]
 8004158:	681b      	ldr	r3, [r3, #0]
 800415a:	689b      	ldr	r3, [r3, #8]
 800415c:	f003 0301 	and.w	r3, r3, #1
 8004160:	2b01      	cmp	r3, #1
 8004162:	d115      	bne.n	8004190 <HAL_SPI_Receive+0x13e>
      {
        /* read the received data */
        (* (uint8_t *)hspi->pRxBuffPtr) = *(__IO uint8_t *)&hspi->Instance->DR;
 8004164:	68fb      	ldr	r3, [r7, #12]
 8004166:	681b      	ldr	r3, [r3, #0]
 8004168:	f103 020c 	add.w	r2, r3, #12
 800416c:	68fb      	ldr	r3, [r7, #12]
 800416e:	6b9b      	ldr	r3, [r3, #56]	; 0x38
 8004170:	7812      	ldrb	r2, [r2, #0]
 8004172:	b2d2      	uxtb	r2, r2
 8004174:	701a      	strb	r2, [r3, #0]
        hspi->pRxBuffPtr += sizeof(uint8_t);
 8004176:	68fb      	ldr	r3, [r7, #12]
 8004178:	6b9b      	ldr	r3, [r3, #56]	; 0x38
 800417a:	1c5a      	adds	r2, r3, #1
 800417c:	68fb      	ldr	r3, [r7, #12]
 800417e:	639a      	str	r2, [r3, #56]	; 0x38
        hspi->RxXferCount--;
 8004180:	68fb      	ldr	r3, [r7, #12]
 8004182:	8fdb      	ldrh	r3, [r3, #62]	; 0x3e
 8004184:	b29b      	uxth	r3, r3
 8004186:	3b01      	subs	r3, #1
 8004188:	b29a      	uxth	r2, r3
 800418a:	68fb      	ldr	r3, [r7, #12]
 800418c:	87da      	strh	r2, [r3, #62]	; 0x3e
 800418e:	e011      	b.n	80041b4 <HAL_SPI_Receive+0x162>
      }
      else
      {
        /* Timeout management */
        if ((((HAL_GetTick() - tickstart) >=  Timeout) && (Timeout != HAL_MAX_DELAY)) || (Timeout == 0U))
 8004190:	f7fd fc8e 	bl	8001ab0 <HAL_GetTick>
 8004194:	4602      	mov	r2, r0
 8004196:	693b      	ldr	r3, [r7, #16]
 8004198:	1ad3      	subs	r3, r2, r3
 800419a:	683a      	ldr	r2, [r7, #0]
 800419c:	429a      	cmp	r2, r3
 800419e:	d803      	bhi.n	80041a8 <HAL_SPI_Receive+0x156>
 80041a0:	683b      	ldr	r3, [r7, #0]
 80041a2:	f1b3 3fff 	cmp.w	r3, #4294967295	; 0xffffffff
 80041a6:	d102      	bne.n	80041ae <HAL_SPI_Receive+0x15c>
 80041a8:	683b      	ldr	r3, [r7, #0]
 80041aa:	2b00      	cmp	r3, #0
 80041ac:	d102      	bne.n	80041b4 <HAL_SPI_Receive+0x162>
        {
          errorcode = HAL_TIMEOUT;
 80041ae:	2303      	movs	r3, #3
 80041b0:	75fb      	strb	r3, [r7, #23]
          goto error;
 80041b2:	e04a      	b.n	800424a <HAL_SPI_Receive+0x1f8>
    while (hspi->RxXferCount > 0U)
 80041b4:	68fb      	ldr	r3, [r7, #12]
 80041b6:	8fdb      	ldrh	r3, [r3, #62]	; 0x3e
 80041b8:	b29b      	uxth	r3, r3
 80041ba:	2b00      	cmp	r3, #0
 80041bc:	d1cb      	bne.n	8004156 <HAL_SPI_Receive+0x104>
 80041be:	e031      	b.n	8004224 <HAL_SPI_Receive+0x1d2>
  {
    /* Transfer loop */
    while (hspi->RxXferCount > 0U)
    {
      /* Check the RXNE flag */
      if (__HAL_SPI_GET_FLAG(hspi, SPI_FLAG_RXNE))
 80041c0:	68fb      	ldr	r3, [r7, #12]
 80041c2:	681b      	ldr	r3, [r3, #0]
 80041c4:	689b      	ldr	r3, [r3, #8]
 80041c6:	f003 0301 	and.w	r3, r3, #1
 80041ca:	2b01      	cmp	r3, #1
 80041cc:	d113      	bne.n	80041f6 <HAL_SPI_Receive+0x1a4>
      {
        *((uint16_t *)hspi->pRxBuffPtr) = (uint16_t)hspi->Instance->DR;
 80041ce:	68fb      	ldr	r3, [r7, #12]
 80041d0:	681b      	ldr	r3, [r3, #0]
 80041d2:	68da      	ldr	r2, [r3, #12]
 80041d4:	68fb      	ldr	r3, [r7, #12]
 80041d6:	6b9b      	ldr	r3, [r3, #56]	; 0x38
 80041d8:	b292      	uxth	r2, r2
 80041da:	801a      	strh	r2, [r3, #0]
        hspi->pRxBuffPtr += sizeof(uint16_t);
 80041dc:	68fb      	ldr	r3, [r7, #12]
 80041de:	6b9b      	ldr	r3, [r3, #56]	; 0x38
 80041e0:	1c9a      	adds	r2, r3, #2
 80041e2:	68fb      	ldr	r3, [r7, #12]
 80041e4:	639a      	str	r2, [r3, #56]	; 0x38
        hspi->RxXferCount--;
 80041e6:	68fb      	ldr	r3, [r7, #12]
 80041e8:	8fdb      	ldrh	r3, [r3, #62]	; 0x3e
 80041ea:	b29b      	uxth	r3, r3
 80041ec:	3b01      	subs	r3, #1
 80041ee:	b29a      	uxth	r2, r3
 80041f0:	68fb      	ldr	r3, [r7, #12]
 80041f2:	87da      	strh	r2, [r3, #62]	; 0x3e
 80041f4:	e011      	b.n	800421a <HAL_SPI_Receive+0x1c8>
      }
      else
      {
        /* Timeout management */
        if ((((HAL_GetTick() - tickstart) >=  Timeout) && (Timeout != HAL_MAX_DELAY)) || (Timeout == 0U))
 80041f6:	f7fd fc5b 	bl	8001ab0 <HAL_GetTick>
 80041fa:	4602      	mov	r2, r0
 80041fc:	693b      	ldr	r3, [r7, #16]
 80041fe:	1ad3      	subs	r3, r2, r3
 8004200:	683a      	ldr	r2, [r7, #0]
 8004202:	429a      	cmp	r2, r3
 8004204:	d803      	bhi.n	800420e <HAL_SPI_Receive+0x1bc>
 8004206:	683b      	ldr	r3, [r7, #0]
 8004208:	f1b3 3fff 	cmp.w	r3, #4294967295	; 0xffffffff
 800420c:	d102      	bne.n	8004214 <HAL_SPI_Receive+0x1c2>
 800420e:	683b      	ldr	r3, [r7, #0]
 8004210:	2b00      	cmp	r3, #0
 8004212:	d102      	bne.n	800421a <HAL_SPI_Receive+0x1c8>
        {
          errorcode = HAL_TIMEOUT;
 8004214:	2303      	movs	r3, #3
 8004216:	75fb      	strb	r3, [r7, #23]
          goto error;
 8004218:	e017      	b.n	800424a <HAL_SPI_Receive+0x1f8>
    while (hspi->RxXferCount > 0U)
 800421a:	68fb      	ldr	r3, [r7, #12]
 800421c:	8fdb      	ldrh	r3, [r3, #62]	; 0x3e
 800421e:	b29b      	uxth	r3, r3
 8004220:	2b00      	cmp	r3, #0
 8004222:	d1cd      	bne.n	80041c0 <HAL_SPI_Receive+0x16e>
    READ_REG(hspi->Instance->DR);
  }
#endif /* USE_SPI_CRC */

  /* Check the end of the transaction */
  if (SPI_EndRxTransaction(hspi, Timeout, tickstart) != HAL_OK)
 8004224:	693a      	ldr	r2, [r7, #16]
 8004226:	6839      	ldr	r1, [r7, #0]
 8004228:	68f8      	ldr	r0, [r7, #12]
 800422a:	f000 fa27 	bl	800467c <SPI_EndRxTransaction>
 800422e:	4603      	mov	r3, r0
 8004230:	2b00      	cmp	r3, #0
 8004232:	d002      	beq.n	800423a <HAL_SPI_Receive+0x1e8>
  {
    hspi->ErrorCode = HAL_SPI_ERROR_FLAG;
 8004234:	68fb      	ldr	r3, [r7, #12]
 8004236:	2220      	movs	r2, #32
 8004238:	655a      	str	r2, [r3, #84]	; 0x54
      __HAL_SPI_CLEAR_CRCERRFLAG(hspi);
    }
  }
#endif /* USE_SPI_CRC */

  if (hspi->ErrorCode != HAL_SPI_ERROR_NONE)
 800423a:	68fb      	ldr	r3, [r7, #12]
 800423c:	6d5b      	ldr	r3, [r3, #84]	; 0x54
 800423e:	2b00      	cmp	r3, #0
 8004240:	d002      	beq.n	8004248 <HAL_SPI_Receive+0x1f6>
  {
    errorcode = HAL_ERROR;
 8004242:	2301      	movs	r3, #1
 8004244:	75fb      	strb	r3, [r7, #23]
 8004246:	e000      	b.n	800424a <HAL_SPI_Receive+0x1f8>
  }

error :
 8004248:	bf00      	nop
  hspi->State = HAL_SPI_STATE_READY;
 800424a:	68fb      	ldr	r3, [r7, #12]
 800424c:	2201      	movs	r2, #1
 800424e:	f883 2051 	strb.w	r2, [r3, #81]	; 0x51
  __HAL_UNLOCK(hspi);
 8004252:	68fb      	ldr	r3, [r7, #12]
 8004254:	2200      	movs	r2, #0
 8004256:	f883 2050 	strb.w	r2, [r3, #80]	; 0x50
  return errorcode;
 800425a:	7dfb      	ldrb	r3, [r7, #23]
}
 800425c:	4618      	mov	r0, r3
 800425e:	3718      	adds	r7, #24
 8004260:	46bd      	mov	sp, r7
 8004262:	bd80      	pop	{r7, pc}

08004264 <HAL_SPI_TransmitReceive>:
  * @param  Timeout Timeout duration
  * @retval HAL status
  */
HAL_StatusTypeDef HAL_SPI_TransmitReceive(SPI_HandleTypeDef *hspi, uint8_t *pTxData, uint8_t *pRxData, uint16_t Size,
                                          uint32_t Timeout)
{
 8004264:	b580      	push	{r7, lr}
 8004266:	b08c      	sub	sp, #48	; 0x30
 8004268:	af00      	add	r7, sp, #0
 800426a:	60f8      	str	r0, [r7, #12]
 800426c:	60b9      	str	r1, [r7, #8]
 800426e:	607a      	str	r2, [r7, #4]
 8004270:	807b      	strh	r3, [r7, #2]
  uint32_t             tmp_mode;
  HAL_SPI_StateTypeDef tmp_state;
  uint32_t             tickstart;

  /* Variable used to alternate Rx and Tx during transfer */
  uint32_t             txallowed = 1U;
 8004272:	2301      	movs	r3, #1
 8004274:	62fb      	str	r3, [r7, #44]	; 0x2c
  HAL_StatusTypeDef    errorcode = HAL_OK;
 8004276:	2300      	movs	r3, #0
 8004278:	f887 302b 	strb.w	r3, [r7, #43]	; 0x2b

  /* Check Direction parameter */
  assert_param(IS_SPI_DIRECTION_2LINES(hspi->Init.Direction));

  /* Process Locked */
  __HAL_LOCK(hspi);
 800427c:	68fb      	ldr	r3, [r7, #12]
 800427e:	f893 3050 	ldrb.w	r3, [r3, #80]	; 0x50
 8004282:	2b01      	cmp	r3, #1
 8004284:	d101      	bne.n	800428a <HAL_SPI_TransmitReceive+0x26>
 8004286:	2302      	movs	r3, #2
 8004288:	e18a      	b.n	80045a0 <HAL_SPI_TransmitReceive+0x33c>
 800428a:	68fb      	ldr	r3, [r7, #12]
 800428c:	2201      	movs	r2, #1
 800428e:	f883 2050 	strb.w	r2, [r3, #80]	; 0x50

  /* Init tickstart for timeout management*/
  tickstart = HAL_GetTick();
 8004292:	f7fd fc0d 	bl	8001ab0 <HAL_GetTick>
 8004296:	6278      	str	r0, [r7, #36]	; 0x24

  /* Init temporary variables */
  tmp_state           = hspi->State;
 8004298:	68fb      	ldr	r3, [r7, #12]
 800429a:	f893 3051 	ldrb.w	r3, [r3, #81]	; 0x51
 800429e:	f887 3023 	strb.w	r3, [r7, #35]	; 0x23
  tmp_mode            = hspi->Init.Mode;
 80042a2:	68fb      	ldr	r3, [r7, #12]
 80042a4:	685b      	ldr	r3, [r3, #4]
 80042a6:	61fb      	str	r3, [r7, #28]
  initial_TxXferCount = Size;
 80042a8:	887b      	ldrh	r3, [r7, #2]
 80042aa:	837b      	strh	r3, [r7, #26]

  if (!((tmp_state == HAL_SPI_STATE_READY) || \
 80042ac:	f897 3023 	ldrb.w	r3, [r7, #35]	; 0x23
 80042b0:	2b01      	cmp	r3, #1
 80042b2:	d00f      	beq.n	80042d4 <HAL_SPI_TransmitReceive+0x70>
 80042b4:	69fb      	ldr	r3, [r7, #28]
 80042b6:	f5b3 7f82 	cmp.w	r3, #260	; 0x104
 80042ba:	d107      	bne.n	80042cc <HAL_SPI_TransmitReceive+0x68>
        ((tmp_mode == SPI_MODE_MASTER) && (hspi->Init.Direction == SPI_DIRECTION_2LINES) && (tmp_state == HAL_SPI_STATE_BUSY_RX))))
 80042bc:	68fb      	ldr	r3, [r7, #12]
 80042be:	689b      	ldr	r3, [r3, #8]
 80042c0:	2b00      	cmp	r3, #0
 80042c2:	d103      	bne.n	80042cc <HAL_SPI_TransmitReceive+0x68>
 80042c4:	f897 3023 	ldrb.w	r3, [r7, #35]	; 0x23
 80042c8:	2b04      	cmp	r3, #4
 80042ca:	d003      	beq.n	80042d4 <HAL_SPI_TransmitReceive+0x70>
  {
    errorcode = HAL_BUSY;
 80042cc:	2302      	movs	r3, #2
 80042ce:	f887 302b 	strb.w	r3, [r7, #43]	; 0x2b
    goto error;
 80042d2:	e15b      	b.n	800458c <HAL_SPI_TransmitReceive+0x328>
  }

  if ((pTxData == NULL) || (pRxData == NULL) || (Size == 0U))
 80042d4:	68bb      	ldr	r3, [r7, #8]
 80042d6:	2b00      	cmp	r3, #0
 80042d8:	d005      	beq.n	80042e6 <HAL_SPI_TransmitReceive+0x82>
 80042da:	687b      	ldr	r3, [r7, #4]
 80042dc:	2b00      	cmp	r3, #0
 80042de:	d002      	beq.n	80042e6 <HAL_SPI_TransmitReceive+0x82>
 80042e0:	887b      	ldrh	r3, [r7, #2]
 80042e2:	2b00      	cmp	r3, #0
 80042e4:	d103      	bne.n	80042ee <HAL_SPI_TransmitReceive+0x8a>
  {
    errorcode = HAL_ERROR;
 80042e6:	2301      	movs	r3, #1
 80042e8:	f887 302b 	strb.w	r3, [r7, #43]	; 0x2b
    goto error;
 80042ec:	e14e      	b.n	800458c <HAL_SPI_TransmitReceive+0x328>
  }

  /* Don't overwrite in case of HAL_SPI_STATE_BUSY_RX */
  if (hspi->State != HAL_SPI_STATE_BUSY_RX)
 80042ee:	68fb      	ldr	r3, [r7, #12]
 80042f0:	f893 3051 	ldrb.w	r3, [r3, #81]	; 0x51
 80042f4:	b2db      	uxtb	r3, r3
 80042f6:	2b04      	cmp	r3, #4
 80042f8:	d003      	beq.n	8004302 <HAL_SPI_TransmitReceive+0x9e>
  {
    hspi->State = HAL_SPI_STATE_BUSY_TX_RX;
 80042fa:	68fb      	ldr	r3, [r7, #12]
 80042fc:	2205      	movs	r2, #5
 80042fe:	f883 2051 	strb.w	r2, [r3, #81]	; 0x51
  }

  /* Set the transaction information */
  hspi->ErrorCode   = HAL_SPI_ERROR_NONE;
 8004302:	68fb      	ldr	r3, [r7, #12]
 8004304:	2200      	movs	r2, #0
 8004306:	655a      	str	r2, [r3, #84]	; 0x54
  hspi->pRxBuffPtr  = (uint8_t *)pRxData;
 8004308:	68fb      	ldr	r3, [r7, #12]
 800430a:	687a      	ldr	r2, [r7, #4]
 800430c:	639a      	str	r2, [r3, #56]	; 0x38
  hspi->RxXferCount = Size;
 800430e:	68fb      	ldr	r3, [r7, #12]
 8004310:	887a      	ldrh	r2, [r7, #2]
 8004312:	87da      	strh	r2, [r3, #62]	; 0x3e
  hspi->RxXferSize  = Size;
 8004314:	68fb      	ldr	r3, [r7, #12]
 8004316:	887a      	ldrh	r2, [r7, #2]
 8004318:	879a      	strh	r2, [r3, #60]	; 0x3c
  hspi->pTxBuffPtr  = (uint8_t *)pTxData;
 800431a:	68fb      	ldr	r3, [r7, #12]
 800431c:	68ba      	ldr	r2, [r7, #8]
 800431e:	631a      	str	r2, [r3, #48]	; 0x30
  hspi->TxXferCount = Size;
 8004320:	68fb      	ldr	r3, [r7, #12]
 8004322:	887a      	ldrh	r2, [r7, #2]
 8004324:	86da      	strh	r2, [r3, #54]	; 0x36
  hspi->TxXferSize  = Size;
 8004326:	68fb      	ldr	r3, [r7, #12]
 8004328:	887a      	ldrh	r2, [r7, #2]
 800432a:	869a      	strh	r2, [r3, #52]	; 0x34

  /*Init field not used in handle to zero */
  hspi->RxISR       = NULL;
 800432c:	68fb      	ldr	r3, [r7, #12]
 800432e:	2200      	movs	r2, #0
 8004330:	641a      	str	r2, [r3, #64]	; 0x40
  hspi->TxISR       = NULL;
 8004332:	68fb      	ldr	r3, [r7, #12]
 8004334:	2200      	movs	r2, #0
 8004336:	645a      	str	r2, [r3, #68]	; 0x44
    SPI_RESET_CRC(hspi);
  }
#endif /* USE_SPI_CRC */

  /* Check if the SPI is already enabled */
  if ((hspi->Instance->CR1 & SPI_CR1_SPE) != SPI_CR1_SPE)
 8004338:	68fb      	ldr	r3, [r7, #12]
 800433a:	681b      	ldr	r3, [r3, #0]
 800433c:	681b      	ldr	r3, [r3, #0]
 800433e:	f003 0340 	and.w	r3, r3, #64	; 0x40
 8004342:	2b40      	cmp	r3, #64	; 0x40
 8004344:	d007      	beq.n	8004356 <HAL_SPI_TransmitReceive+0xf2>
  {
    /* Enable SPI peripheral */
    __HAL_SPI_ENABLE(hspi);
 8004346:	68fb      	ldr	r3, [r7, #12]
 8004348:	681b      	ldr	r3, [r3, #0]
 800434a:	681a      	ldr	r2, [r3, #0]
 800434c:	68fb      	ldr	r3, [r7, #12]
 800434e:	681b      	ldr	r3, [r3, #0]
 8004350:	f042 0240 	orr.w	r2, r2, #64	; 0x40
 8004354:	601a      	str	r2, [r3, #0]
  }

  /* Transmit and Receive data in 16 Bit mode */
  if (hspi->Init.DataSize == SPI_DATASIZE_16BIT)
 8004356:	68fb      	ldr	r3, [r7, #12]
 8004358:	68db      	ldr	r3, [r3, #12]
 800435a:	f5b3 6f00 	cmp.w	r3, #2048	; 0x800
 800435e:	d178      	bne.n	8004452 <HAL_SPI_TransmitReceive+0x1ee>
  {
    if ((hspi->Init.Mode == SPI_MODE_SLAVE) || (initial_TxXferCount == 0x01U))
 8004360:	68fb      	ldr	r3, [r7, #12]
 8004362:	685b      	ldr	r3, [r3, #4]
 8004364:	2b00      	cmp	r3, #0
 8004366:	d002      	beq.n	800436e <HAL_SPI_TransmitReceive+0x10a>
 8004368:	8b7b      	ldrh	r3, [r7, #26]
 800436a:	2b01      	cmp	r3, #1
 800436c:	d166      	bne.n	800443c <HAL_SPI_TransmitReceive+0x1d8>
    {
      hspi->Instance->DR = *((uint16_t *)hspi->pTxBuffPtr);
 800436e:	68fb      	ldr	r3, [r7, #12]
 8004370:	6b1b      	ldr	r3, [r3, #48]	; 0x30
 8004372:	881a      	ldrh	r2, [r3, #0]
 8004374:	68fb      	ldr	r3, [r7, #12]
 8004376:	681b      	ldr	r3, [r3, #0]
 8004378:	60da      	str	r2, [r3, #12]
      hspi->pTxBuffPtr += sizeof(uint16_t);
 800437a:	68fb      	ldr	r3, [r7, #12]
 800437c:	6b1b      	ldr	r3, [r3, #48]	; 0x30
 800437e:	1c9a      	adds	r2, r3, #2
 8004380:	68fb      	ldr	r3, [r7, #12]
 8004382:	631a      	str	r2, [r3, #48]	; 0x30
      hspi->TxXferCount--;
 8004384:	68fb      	ldr	r3, [r7, #12]
 8004386:	8edb      	ldrh	r3, [r3, #54]	; 0x36
 8004388:	b29b      	uxth	r3, r3
 800438a:	3b01      	subs	r3, #1
 800438c:	b29a      	uxth	r2, r3
 800438e:	68fb      	ldr	r3, [r7, #12]
 8004390:	86da      	strh	r2, [r3, #54]	; 0x36
    }
    while ((hspi->TxXferCount > 0U) || (hspi->RxXferCount > 0U))
 8004392:	e053      	b.n	800443c <HAL_SPI_TransmitReceive+0x1d8>
    {
      /* Check TXE flag */
      if ((__HAL_SPI_GET_FLAG(hspi, SPI_FLAG_TXE)) && (hspi->TxXferCount > 0U) && (txallowed == 1U))
 8004394:	68fb      	ldr	r3, [r7, #12]
 8004396:	681b      	ldr	r3, [r3, #0]
 8004398:	689b      	ldr	r3, [r3, #8]
 800439a:	f003 0302 	and.w	r3, r3, #2
 800439e:	2b02      	cmp	r3, #2
 80043a0:	d11b      	bne.n	80043da <HAL_SPI_TransmitReceive+0x176>
 80043a2:	68fb      	ldr	r3, [r7, #12]
 80043a4:	8edb      	ldrh	r3, [r3, #54]	; 0x36
 80043a6:	b29b      	uxth	r3, r3
 80043a8:	2b00      	cmp	r3, #0
 80043aa:	d016      	beq.n	80043da <HAL_SPI_TransmitReceive+0x176>
 80043ac:	6afb      	ldr	r3, [r7, #44]	; 0x2c
 80043ae:	2b01      	cmp	r3, #1
 80043b0:	d113      	bne.n	80043da <HAL_SPI_TransmitReceive+0x176>
      {
        hspi->Instance->DR = *((uint16_t *)hspi->pTxBuffPtr);
 80043b2:	68fb      	ldr	r3, [r7, #12]
 80043b4:	6b1b      	ldr	r3, [r3, #48]	; 0x30
 80043b6:	881a      	ldrh	r2, [r3, #0]
 80043b8:	68fb      	ldr	r3, [r7, #12]
 80043ba:	681b      	ldr	r3, [r3, #0]
 80043bc:	60da      	str	r2, [r3, #12]
        hspi->pTxBuffPtr += sizeof(uint16_t);
 80043be:	68fb      	ldr	r3, [r7, #12]
 80043c0:	6b1b      	ldr	r3, [r3, #48]	; 0x30
 80043c2:	1c9a      	adds	r2, r3, #2
 80043c4:	68fb      	ldr	r3, [r7, #12]
 80043c6:	631a      	str	r2, [r3, #48]	; 0x30
        hspi->TxXferCount--;
 80043c8:	68fb      	ldr	r3, [r7, #12]
 80043ca:	8edb      	ldrh	r3, [r3, #54]	; 0x36
 80043cc:	b29b      	uxth	r3, r3
 80043ce:	3b01      	subs	r3, #1
 80043d0:	b29a      	uxth	r2, r3
 80043d2:	68fb      	ldr	r3, [r7, #12]
 80043d4:	86da      	strh	r2, [r3, #54]	; 0x36
        /* Next Data is a reception (Rx). Tx not allowed */
        txallowed = 0U;
 80043d6:	2300      	movs	r3, #0
 80043d8:	62fb      	str	r3, [r7, #44]	; 0x2c
        }
#endif /* USE_SPI_CRC */
      }

      /* Check RXNE flag */
      if ((__HAL_SPI_GET_FLAG(hspi, SPI_FLAG_RXNE)) && (hspi->RxXferCount > 0U))
 80043da:	68fb      	ldr	r3, [r7, #12]
 80043dc:	681b      	ldr	r3, [r3, #0]
 80043de:	689b      	ldr	r3, [r3, #8]
 80043e0:	f003 0301 	and.w	r3, r3, #1
 80043e4:	2b01      	cmp	r3, #1
 80043e6:	d119      	bne.n	800441c <HAL_SPI_TransmitReceive+0x1b8>
 80043e8:	68fb      	ldr	r3, [r7, #12]
 80043ea:	8fdb      	ldrh	r3, [r3, #62]	; 0x3e
 80043ec:	b29b      	uxth	r3, r3
 80043ee:	2b00      	cmp	r3, #0
 80043f0:	d014      	beq.n	800441c <HAL_SPI_TransmitReceive+0x1b8>
      {
        *((uint16_t *)hspi->pRxBuffPtr) = (uint16_t)hspi->Instance->DR;
 80043f2:	68fb      	ldr	r3, [r7, #12]
 80043f4:	681b      	ldr	r3, [r3, #0]
 80043f6:	68da      	ldr	r2, [r3, #12]
 80043f8:	68fb      	ldr	r3, [r7, #12]
 80043fa:	6b9b      	ldr	r3, [r3, #56]	; 0x38
 80043fc:	b292      	uxth	r2, r2
 80043fe:	801a      	strh	r2, [r3, #0]
        hspi->pRxBuffPtr += sizeof(uint16_t);
 8004400:	68fb      	ldr	r3, [r7, #12]
 8004402:	6b9b      	ldr	r3, [r3, #56]	; 0x38
 8004404:	1c9a      	adds	r2, r3, #2
 8004406:	68fb      	ldr	r3, [r7, #12]
 8004408:	639a      	str	r2, [r3, #56]	; 0x38
        hspi->RxXferCount--;
 800440a:	68fb      	ldr	r3, [r7, #12]
 800440c:	8fdb      	ldrh	r3, [r3, #62]	; 0x3e
 800440e:	b29b      	uxth	r3, r3
 8004410:	3b01      	subs	r3, #1
 8004412:	b29a      	uxth	r2, r3
 8004414:	68fb      	ldr	r3, [r7, #12]
 8004416:	87da      	strh	r2, [r3, #62]	; 0x3e
        /* Next Data is a Transmission (Tx). Tx is allowed */
        txallowed = 1U;
 8004418:	2301      	movs	r3, #1
 800441a:	62fb      	str	r3, [r7, #44]	; 0x2c
      }
      if (((HAL_GetTick() - tickstart) >=  Timeout) && (Timeout != HAL_MAX_DELAY))
 800441c:	f7fd fb48 	bl	8001ab0 <HAL_GetTick>
 8004420:	4602      	mov	r2, r0
 8004422:	6a7b      	ldr	r3, [r7, #36]	; 0x24
 8004424:	1ad3      	subs	r3, r2, r3
 8004426:	6bba      	ldr	r2, [r7, #56]	; 0x38
 8004428:	429a      	cmp	r2, r3
 800442a:	d807      	bhi.n	800443c <HAL_SPI_TransmitReceive+0x1d8>
 800442c:	6bbb      	ldr	r3, [r7, #56]	; 0x38
 800442e:	f1b3 3fff 	cmp.w	r3, #4294967295	; 0xffffffff
 8004432:	d003      	beq.n	800443c <HAL_SPI_TransmitReceive+0x1d8>
      {
        errorcode = HAL_TIMEOUT;
 8004434:	2303      	movs	r3, #3
 8004436:	f887 302b 	strb.w	r3, [r7, #43]	; 0x2b
        goto error;
 800443a:	e0a7      	b.n	800458c <HAL_SPI_TransmitReceive+0x328>
    while ((hspi->TxXferCount > 0U) || (hspi->RxXferCount > 0U))
 800443c:	68fb      	ldr	r3, [r7, #12]
 800443e:	8edb      	ldrh	r3, [r3, #54]	; 0x36
 8004440:	b29b      	uxth	r3, r3
 8004442:	2b00      	cmp	r3, #0
 8004444:	d1a6      	bne.n	8004394 <HAL_SPI_TransmitReceive+0x130>
 8004446:	68fb      	ldr	r3, [r7, #12]
 8004448:	8fdb      	ldrh	r3, [r3, #62]	; 0x3e
 800444a:	b29b      	uxth	r3, r3
 800444c:	2b00      	cmp	r3, #0
 800444e:	d1a1      	bne.n	8004394 <HAL_SPI_TransmitReceive+0x130>
 8004450:	e07c      	b.n	800454c <HAL_SPI_TransmitReceive+0x2e8>
    }
  }
  /* Transmit and Receive data in 8 Bit mode */
  else
  {
    if ((hspi->Init.Mode == SPI_MODE_SLAVE) || (initial_TxXferCount == 0x01U))
 8004452:	68fb      	ldr	r3, [r7, #12]
 8004454:	685b      	ldr	r3, [r3, #4]
 8004456:	2b00      	cmp	r3, #0
 8004458:	d002      	beq.n	8004460 <HAL_SPI_TransmitReceive+0x1fc>
 800445a:	8b7b      	ldrh	r3, [r7, #26]
 800445c:	2b01      	cmp	r3, #1
 800445e:	d16b      	bne.n	8004538 <HAL_SPI_TransmitReceive+0x2d4>
    {
      *((__IO uint8_t *)&hspi->Instance->DR) = (*hspi->pTxBuffPtr);
 8004460:	68fb      	ldr	r3, [r7, #12]
 8004462:	6b1a      	ldr	r2, [r3, #48]	; 0x30
 8004464:	68fb      	ldr	r3, [r7, #12]
 8004466:	681b      	ldr	r3, [r3, #0]
 8004468:	330c      	adds	r3, #12
 800446a:	7812      	ldrb	r2, [r2, #0]
 800446c:	701a      	strb	r2, [r3, #0]
      hspi->pTxBuffPtr += sizeof(uint8_t);
 800446e:	68fb      	ldr	r3, [r7, #12]
 8004470:	6b1b      	ldr	r3, [r3, #48]	; 0x30
 8004472:	1c5a      	adds	r2, r3, #1
 8004474:	68fb      	ldr	r3, [r7, #12]
 8004476:	631a      	str	r2, [r3, #48]	; 0x30
      hspi->TxXferCount--;
 8004478:	68fb      	ldr	r3, [r7, #12]
 800447a:	8edb      	ldrh	r3, [r3, #54]	; 0x36
 800447c:	b29b      	uxth	r3, r3
 800447e:	3b01      	subs	r3, #1
 8004480:	b29a      	uxth	r2, r3
 8004482:	68fb      	ldr	r3, [r7, #12]
 8004484:	86da      	strh	r2, [r3, #54]	; 0x36
    }
    while ((hspi->TxXferCount > 0U) || (hspi->RxXferCount > 0U))
 8004486:	e057      	b.n	8004538 <HAL_SPI_TransmitReceive+0x2d4>
    {
      /* Check TXE flag */
      if ((__HAL_SPI_GET_FLAG(hspi, SPI_FLAG_TXE)) && (hspi->TxXferCount > 0U) && (txallowed == 1U))
 8004488:	68fb      	ldr	r3, [r7, #12]
 800448a:	681b      	ldr	r3, [r3, #0]
 800448c:	689b      	ldr	r3, [r3, #8]
 800448e:	f003 0302 	and.w	r3, r3, #2
 8004492:	2b02      	cmp	r3, #2
 8004494:	d11c      	bne.n	80044d0 <HAL_SPI_TransmitReceive+0x26c>
 8004496:	68fb      	ldr	r3, [r7, #12]
 8004498:	8edb      	ldrh	r3, [r3, #54]	; 0x36
 800449a:	b29b      	uxth	r3, r3
 800449c:	2b00      	cmp	r3, #0
 800449e:	d017      	beq.n	80044d0 <HAL_SPI_TransmitReceive+0x26c>
 80044a0:	6afb      	ldr	r3, [r7, #44]	; 0x2c
 80044a2:	2b01      	cmp	r3, #1
 80044a4:	d114      	bne.n	80044d0 <HAL_SPI_TransmitReceive+0x26c>
      {
        *(__IO uint8_t *)&hspi->Instance->DR = (*hspi->pTxBuffPtr);
 80044a6:	68fb      	ldr	r3, [r7, #12]
 80044a8:	6b1a      	ldr	r2, [r3, #48]	; 0x30
 80044aa:	68fb      	ldr	r3, [r7, #12]
 80044ac:	681b      	ldr	r3, [r3, #0]
 80044ae:	330c      	adds	r3, #12
 80044b0:	7812      	ldrb	r2, [r2, #0]
 80044b2:	701a      	strb	r2, [r3, #0]
        hspi->pTxBuffPtr++;
 80044b4:	68fb      	ldr	r3, [r7, #12]
 80044b6:	6b1b      	ldr	r3, [r3, #48]	; 0x30
 80044b8:	1c5a      	adds	r2, r3, #1
 80044ba:	68fb      	ldr	r3, [r7, #12]
 80044bc:	631a      	str	r2, [r3, #48]	; 0x30
        hspi->TxXferCount--;
 80044be:	68fb      	ldr	r3, [r7, #12]
 80044c0:	8edb      	ldrh	r3, [r3, #54]	; 0x36
 80044c2:	b29b      	uxth	r3, r3
 80044c4:	3b01      	subs	r3, #1
 80044c6:	b29a      	uxth	r2, r3
 80044c8:	68fb      	ldr	r3, [r7, #12]
 80044ca:	86da      	strh	r2, [r3, #54]	; 0x36
        /* Next Data is a reception (Rx). Tx not allowed */
        txallowed = 0U;
 80044cc:	2300      	movs	r3, #0
 80044ce:	62fb      	str	r3, [r7, #44]	; 0x2c
        }
#endif /* USE_SPI_CRC */
      }

      /* Wait until RXNE flag is reset */
      if ((__HAL_SPI_GET_FLAG(hspi, SPI_FLAG_RXNE)) && (hspi->RxXferCount > 0U))
 80044d0:	68fb      	ldr	r3, [r7, #12]
 80044d2:	681b      	ldr	r3, [r3, #0]
 80044d4:	689b      	ldr	r3, [r3, #8]
 80044d6:	f003 0301 	and.w	r3, r3, #1
 80044da:	2b01      	cmp	r3, #1
 80044dc:	d119      	bne.n	8004512 <HAL_SPI_TransmitReceive+0x2ae>
 80044de:	68fb      	ldr	r3, [r7, #12]
 80044e0:	8fdb      	ldrh	r3, [r3, #62]	; 0x3e
 80044e2:	b29b      	uxth	r3, r3
 80044e4:	2b00      	cmp	r3, #0
 80044e6:	d014      	beq.n	8004512 <HAL_SPI_TransmitReceive+0x2ae>
      {
        (*(uint8_t *)hspi->pRxBuffPtr) = hspi->Instance->DR;
 80044e8:	68fb      	ldr	r3, [r7, #12]
 80044ea:	681b      	ldr	r3, [r3, #0]
 80044ec:	68da      	ldr	r2, [r3, #12]
 80044ee:	68fb      	ldr	r3, [r7, #12]
 80044f0:	6b9b      	ldr	r3, [r3, #56]	; 0x38
 80044f2:	b2d2      	uxtb	r2, r2
 80044f4:	701a      	strb	r2, [r3, #0]
        hspi->pRxBuffPtr++;
 80044f6:	68fb      	ldr	r3, [r7, #12]
 80044f8:	6b9b      	ldr	r3, [r3, #56]	; 0x38
 80044fa:	1c5a      	adds	r2, r3, #1
 80044fc:	68fb      	ldr	r3, [r7, #12]
 80044fe:	639a      	str	r2, [r3, #56]	; 0x38
        hspi->RxXferCount--;
 8004500:	68fb      	ldr	r3, [r7, #12]
 8004502:	8fdb      	ldrh	r3, [r3, #62]	; 0x3e
 8004504:	b29b      	uxth	r3, r3
 8004506:	3b01      	subs	r3, #1
 8004508:	b29a      	uxth	r2, r3
 800450a:	68fb      	ldr	r3, [r7, #12]
 800450c:	87da      	strh	r2, [r3, #62]	; 0x3e
        /* Next Data is a Transmission (Tx). Tx is allowed */
        txallowed = 1U;
 800450e:	2301      	movs	r3, #1
 8004510:	62fb      	str	r3, [r7, #44]	; 0x2c
      }
      if ((((HAL_GetTick() - tickstart) >=  Timeout) && ((Timeout != HAL_MAX_DELAY))) || (Timeout == 0U))
 8004512:	f7fd facd 	bl	8001ab0 <HAL_GetTick>
 8004516:	4602      	mov	r2, r0
 8004518:	6a7b      	ldr	r3, [r7, #36]	; 0x24
 800451a:	1ad3      	subs	r3, r2, r3
 800451c:	6bba      	ldr	r2, [r7, #56]	; 0x38
 800451e:	429a      	cmp	r2, r3
 8004520:	d803      	bhi.n	800452a <HAL_SPI_TransmitReceive+0x2c6>
 8004522:	6bbb      	ldr	r3, [r7, #56]	; 0x38
 8004524:	f1b3 3fff 	cmp.w	r3, #4294967295	; 0xffffffff
 8004528:	d102      	bne.n	8004530 <HAL_SPI_TransmitReceive+0x2cc>
 800452a:	6bbb      	ldr	r3, [r7, #56]	; 0x38
 800452c:	2b00      	cmp	r3, #0
 800452e:	d103      	bne.n	8004538 <HAL_SPI_TransmitReceive+0x2d4>
      {
        errorcode = HAL_TIMEOUT;
 8004530:	2303      	movs	r3, #3
 8004532:	f887 302b 	strb.w	r3, [r7, #43]	; 0x2b
        goto error;
 8004536:	e029      	b.n	800458c <HAL_SPI_TransmitReceive+0x328>
    while ((hspi->TxXferCount > 0U) || (hspi->RxXferCount > 0U))
 8004538:	68fb      	ldr	r3, [r7, #12]
 800453a:	8edb      	ldrh	r3, [r3, #54]	; 0x36
 800453c:	b29b      	uxth	r3, r3
 800453e:	2b00      	cmp	r3, #0
 8004540:	d1a2      	bne.n	8004488 <HAL_SPI_TransmitReceive+0x224>
 8004542:	68fb      	ldr	r3, [r7, #12]
 8004544:	8fdb      	ldrh	r3, [r3, #62]	; 0x3e
 8004546:	b29b      	uxth	r3, r3
 8004548:	2b00      	cmp	r3, #0
 800454a:	d19d      	bne.n	8004488 <HAL_SPI_TransmitReceive+0x224>
    }
  }
#endif /* USE_SPI_CRC */

  /* Check the end of the transaction */
  if (SPI_EndRxTxTransaction(hspi, Timeout, tickstart) != HAL_OK)
 800454c:	6a7a      	ldr	r2, [r7, #36]	; 0x24
 800454e:	6bb9      	ldr	r1, [r7, #56]	; 0x38
 8004550:	68f8      	ldr	r0, [r7, #12]
 8004552:	f000 f8e5 	bl	8004720 <SPI_EndRxTxTransaction>
 8004556:	4603      	mov	r3, r0
 8004558:	2b00      	cmp	r3, #0
 800455a:	d006      	beq.n	800456a <HAL_SPI_TransmitReceive+0x306>
  {
    errorcode = HAL_ERROR;
 800455c:	2301      	movs	r3, #1
 800455e:	f887 302b 	strb.w	r3, [r7, #43]	; 0x2b
    hspi->ErrorCode = HAL_SPI_ERROR_FLAG;
 8004562:	68fb      	ldr	r3, [r7, #12]
 8004564:	2220      	movs	r2, #32
 8004566:	655a      	str	r2, [r3, #84]	; 0x54
    goto error;
 8004568:	e010      	b.n	800458c <HAL_SPI_TransmitReceive+0x328>
  }

  /* Clear overrun flag in 2 Lines communication mode because received is not read */
  if (hspi->Init.Direction == SPI_DIRECTION_2LINES)
 800456a:	68fb      	ldr	r3, [r7, #12]
 800456c:	689b      	ldr	r3, [r3, #8]
 800456e:	2b00      	cmp	r3, #0
 8004570:	d10b      	bne.n	800458a <HAL_SPI_TransmitReceive+0x326>
  {
    __HAL_SPI_CLEAR_OVRFLAG(hspi);
 8004572:	2300      	movs	r3, #0
 8004574:	617b      	str	r3, [r7, #20]
 8004576:	68fb      	ldr	r3, [r7, #12]
 8004578:	681b      	ldr	r3, [r3, #0]
 800457a:	68db      	ldr	r3, [r3, #12]
 800457c:	617b      	str	r3, [r7, #20]
 800457e:	68fb      	ldr	r3, [r7, #12]
 8004580:	681b      	ldr	r3, [r3, #0]
 8004582:	689b      	ldr	r3, [r3, #8]
 8004584:	617b      	str	r3, [r7, #20]
 8004586:	697b      	ldr	r3, [r7, #20]
 8004588:	e000      	b.n	800458c <HAL_SPI_TransmitReceive+0x328>
  }

error :
 800458a:	bf00      	nop
  hspi->State = HAL_SPI_STATE_READY;
 800458c:	68fb      	ldr	r3, [r7, #12]
 800458e:	2201      	movs	r2, #1
 8004590:	f883 2051 	strb.w	r2, [r3, #81]	; 0x51
  __HAL_UNLOCK(hspi);
 8004594:	68fb      	ldr	r3, [r7, #12]
 8004596:	2200      	movs	r2, #0
 8004598:	f883 2050 	strb.w	r2, [r3, #80]	; 0x50
  return errorcode;
 800459c:	f897 302b 	ldrb.w	r3, [r7, #43]	; 0x2b
}
 80045a0:	4618      	mov	r0, r3
 80045a2:	3730      	adds	r7, #48	; 0x30
 80045a4:	46bd      	mov	sp, r7
 80045a6:	bd80      	pop	{r7, pc}

080045a8 <SPI_WaitFlagStateUntilTimeout>:
  * @param  Tickstart tick start value
  * @retval HAL status
  */
static HAL_StatusTypeDef SPI_WaitFlagStateUntilTimeout(SPI_HandleTypeDef *hspi, uint32_t Flag, FlagStatus State,
                                                       uint32_t Timeout, uint32_t Tickstart)
{
 80045a8:	b580      	push	{r7, lr}
 80045aa:	b084      	sub	sp, #16
 80045ac:	af00      	add	r7, sp, #0
 80045ae:	60f8      	str	r0, [r7, #12]
 80045b0:	60b9      	str	r1, [r7, #8]
 80045b2:	603b      	str	r3, [r7, #0]
 80045b4:	4613      	mov	r3, r2
 80045b6:	71fb      	strb	r3, [r7, #7]
  while ((__HAL_SPI_GET_FLAG(hspi, Flag) ? SET : RESET) != State)
 80045b8:	e04c      	b.n	8004654 <SPI_WaitFlagStateUntilTimeout+0xac>
  {
    if (Timeout != HAL_MAX_DELAY)
 80045ba:	683b      	ldr	r3, [r7, #0]
 80045bc:	f1b3 3fff 	cmp.w	r3, #4294967295	; 0xffffffff
 80045c0:	d048      	beq.n	8004654 <SPI_WaitFlagStateUntilTimeout+0xac>
    {
      if (((HAL_GetTick() - Tickstart) >= Timeout) || (Timeout == 0U))
 80045c2:	f7fd fa75 	bl	8001ab0 <HAL_GetTick>
 80045c6:	4602      	mov	r2, r0
 80045c8:	69bb      	ldr	r3, [r7, #24]
 80045ca:	1ad3      	subs	r3, r2, r3
 80045cc:	683a      	ldr	r2, [r7, #0]
 80045ce:	429a      	cmp	r2, r3
 80045d0:	d902      	bls.n	80045d8 <SPI_WaitFlagStateUntilTimeout+0x30>
 80045d2:	683b      	ldr	r3, [r7, #0]
 80045d4:	2b00      	cmp	r3, #0
 80045d6:	d13d      	bne.n	8004654 <SPI_WaitFlagStateUntilTimeout+0xac>
        /* Disable the SPI and reset the CRC: the CRC value should be cleared
        on both master and slave sides in order to resynchronize the master
        and slave for their respective CRC calculation */

        /* Disable TXE, RXNE and ERR interrupts for the interrupt process */
        __HAL_SPI_DISABLE_IT(hspi, (SPI_IT_TXE | SPI_IT_RXNE | SPI_IT_ERR));
 80045d8:	68fb      	ldr	r3, [r7, #12]
 80045da:	681b      	ldr	r3, [r3, #0]
 80045dc:	685a      	ldr	r2, [r3, #4]
 80045de:	68fb      	ldr	r3, [r7, #12]
 80045e0:	681b      	ldr	r3, [r3, #0]
 80045e2:	f022 02e0 	bic.w	r2, r2, #224	; 0xe0
 80045e6:	605a      	str	r2, [r3, #4]

        if ((hspi->Init.Mode == SPI_MODE_MASTER) && ((hspi->Init.Direction == SPI_DIRECTION_1LINE)
 80045e8:	68fb      	ldr	r3, [r7, #12]
 80045ea:	685b      	ldr	r3, [r3, #4]
 80045ec:	f5b3 7f82 	cmp.w	r3, #260	; 0x104
 80045f0:	d111      	bne.n	8004616 <SPI_WaitFlagStateUntilTimeout+0x6e>
 80045f2:	68fb      	ldr	r3, [r7, #12]
 80045f4:	689b      	ldr	r3, [r3, #8]
 80045f6:	f5b3 4f00 	cmp.w	r3, #32768	; 0x8000
 80045fa:	d004      	beq.n	8004606 <SPI_WaitFlagStateUntilTimeout+0x5e>
                                                     || (hspi->Init.Direction == SPI_DIRECTION_2LINES_RXONLY)))
 80045fc:	68fb      	ldr	r3, [r7, #12]
 80045fe:	689b      	ldr	r3, [r3, #8]
 8004600:	f5b3 6f80 	cmp.w	r3, #1024	; 0x400
 8004604:	d107      	bne.n	8004616 <SPI_WaitFlagStateUntilTimeout+0x6e>
        {
          /* Disable SPI peripheral */
          __HAL_SPI_DISABLE(hspi);
 8004606:	68fb      	ldr	r3, [r7, #12]
 8004608:	681b      	ldr	r3, [r3, #0]
 800460a:	681a      	ldr	r2, [r3, #0]
 800460c:	68fb      	ldr	r3, [r7, #12]
 800460e:	681b      	ldr	r3, [r3, #0]
 8004610:	f022 0240 	bic.w	r2, r2, #64	; 0x40
 8004614:	601a      	str	r2, [r3, #0]
        }

        /* Reset CRC Calculation */
        if (hspi->Init.CRCCalculation == SPI_CRCCALCULATION_ENABLE)
 8004616:	68fb      	ldr	r3, [r7, #12]
 8004618:	6a9b      	ldr	r3, [r3, #40]	; 0x28
 800461a:	f5b3 5f00 	cmp.w	r3, #8192	; 0x2000
 800461e:	d10f      	bne.n	8004640 <SPI_WaitFlagStateUntilTimeout+0x98>
        {
          SPI_RESET_CRC(hspi);
 8004620:	68fb      	ldr	r3, [r7, #12]
 8004622:	681b      	ldr	r3, [r3, #0]
 8004624:	681a      	ldr	r2, [r3, #0]
 8004626:	68fb      	ldr	r3, [r7, #12]
 8004628:	681b      	ldr	r3, [r3, #0]
 800462a:	f422 5200 	bic.w	r2, r2, #8192	; 0x2000
 800462e:	601a      	str	r2, [r3, #0]
 8004630:	68fb      	ldr	r3, [r7, #12]
 8004632:	681b      	ldr	r3, [r3, #0]
 8004634:	681a      	ldr	r2, [r3, #0]
 8004636:	68fb      	ldr	r3, [r7, #12]
 8004638:	681b      	ldr	r3, [r3, #0]
 800463a:	f442 5200 	orr.w	r2, r2, #8192	; 0x2000
 800463e:	601a      	str	r2, [r3, #0]
        }

        hspi->State = HAL_SPI_STATE_READY;
 8004640:	68fb      	ldr	r3, [r7, #12]
 8004642:	2201      	movs	r2, #1
 8004644:	f883 2051 	strb.w	r2, [r3, #81]	; 0x51

        /* Process Unlocked */
        __HAL_UNLOCK(hspi);
 8004648:	68fb      	ldr	r3, [r7, #12]
 800464a:	2200      	movs	r2, #0
 800464c:	f883 2050 	strb.w	r2, [r3, #80]	; 0x50

        return HAL_TIMEOUT;
 8004650:	2303      	movs	r3, #3
 8004652:	e00f      	b.n	8004674 <SPI_WaitFlagStateUntilTimeout+0xcc>
  while ((__HAL_SPI_GET_FLAG(hspi, Flag) ? SET : RESET) != State)
 8004654:	68fb      	ldr	r3, [r7, #12]
 8004656:	681b      	ldr	r3, [r3, #0]
 8004658:	689a      	ldr	r2, [r3, #8]
 800465a:	68bb      	ldr	r3, [r7, #8]
 800465c:	4013      	ands	r3, r2
 800465e:	68ba      	ldr	r2, [r7, #8]
 8004660:	429a      	cmp	r2, r3
 8004662:	bf0c      	ite	eq
 8004664:	2301      	moveq	r3, #1
 8004666:	2300      	movne	r3, #0
 8004668:	b2db      	uxtb	r3, r3
 800466a:	461a      	mov	r2, r3
 800466c:	79fb      	ldrb	r3, [r7, #7]
 800466e:	429a      	cmp	r2, r3
 8004670:	d1a3      	bne.n	80045ba <SPI_WaitFlagStateUntilTimeout+0x12>
      }
    }
  }

  return HAL_OK;
 8004672:	2300      	movs	r3, #0
}
 8004674:	4618      	mov	r0, r3
 8004676:	3710      	adds	r7, #16
 8004678:	46bd      	mov	sp, r7
 800467a:	bd80      	pop	{r7, pc}

0800467c <SPI_EndRxTransaction>:
  * @param  Timeout Timeout duration
  * @param  Tickstart tick start value
  * @retval HAL status
  */
static HAL_StatusTypeDef SPI_EndRxTransaction(SPI_HandleTypeDef *hspi,  uint32_t Timeout, uint32_t Tickstart)
{
 800467c:	b580      	push	{r7, lr}
 800467e:	b086      	sub	sp, #24
 8004680:	af02      	add	r7, sp, #8
 8004682:	60f8      	str	r0, [r7, #12]
 8004684:	60b9      	str	r1, [r7, #8]
 8004686:	607a      	str	r2, [r7, #4]
  if ((hspi->Init.Mode == SPI_MODE_MASTER) && ((hspi->Init.Direction == SPI_DIRECTION_1LINE)
 8004688:	68fb      	ldr	r3, [r7, #12]
 800468a:	685b      	ldr	r3, [r3, #4]
 800468c:	f5b3 7f82 	cmp.w	r3, #260	; 0x104
 8004690:	d111      	bne.n	80046b6 <SPI_EndRxTransaction+0x3a>
 8004692:	68fb      	ldr	r3, [r7, #12]
 8004694:	689b      	ldr	r3, [r3, #8]
 8004696:	f5b3 4f00 	cmp.w	r3, #32768	; 0x8000
 800469a:	d004      	beq.n	80046a6 <SPI_EndRxTransaction+0x2a>
                                               || (hspi->Init.Direction == SPI_DIRECTION_2LINES_RXONLY)))
 800469c:	68fb      	ldr	r3, [r7, #12]
 800469e:	689b      	ldr	r3, [r3, #8]
 80046a0:	f5b3 6f80 	cmp.w	r3, #1024	; 0x400
 80046a4:	d107      	bne.n	80046b6 <SPI_EndRxTransaction+0x3a>
  {
    /* Disable SPI peripheral */
    __HAL_SPI_DISABLE(hspi);
 80046a6:	68fb      	ldr	r3, [r7, #12]
 80046a8:	681b      	ldr	r3, [r3, #0]
 80046aa:	681a      	ldr	r2, [r3, #0]
 80046ac:	68fb      	ldr	r3, [r7, #12]
 80046ae:	681b      	ldr	r3, [r3, #0]
 80046b0:	f022 0240 	bic.w	r2, r2, #64	; 0x40
 80046b4:	601a      	str	r2, [r3, #0]
  }

  if ((hspi->Init.Mode == SPI_MODE_MASTER) && (hspi->Init.Direction == SPI_DIRECTION_2LINES_RXONLY))
 80046b6:	68fb      	ldr	r3, [r7, #12]
 80046b8:	685b      	ldr	r3, [r3, #4]
 80046ba:	f5b3 7f82 	cmp.w	r3, #260	; 0x104
 80046be:	d117      	bne.n	80046f0 <SPI_EndRxTransaction+0x74>
 80046c0:	68fb      	ldr	r3, [r7, #12]
 80046c2:	689b      	ldr	r3, [r3, #8]
 80046c4:	f5b3 6f80 	cmp.w	r3, #1024	; 0x400
 80046c8:	d112      	bne.n	80046f0 <SPI_EndRxTransaction+0x74>
  {
    /* Wait the RXNE reset */
    if (SPI_WaitFlagStateUntilTimeout(hspi, SPI_FLAG_RXNE, RESET, Timeout, Tickstart) != HAL_OK)
 80046ca:	687b      	ldr	r3, [r7, #4]
 80046cc:	9300      	str	r3, [sp, #0]
 80046ce:	68bb      	ldr	r3, [r7, #8]
 80046d0:	2200      	movs	r2, #0
 80046d2:	2101      	movs	r1, #1
 80046d4:	68f8      	ldr	r0, [r7, #12]
 80046d6:	f7ff ff67 	bl	80045a8 <SPI_WaitFlagStateUntilTimeout>
 80046da:	4603      	mov	r3, r0
 80046dc:	2b00      	cmp	r3, #0
 80046de:	d01a      	beq.n	8004716 <SPI_EndRxTransaction+0x9a>
    {
      SET_BIT(hspi->ErrorCode, HAL_SPI_ERROR_FLAG);
 80046e0:	68fb      	ldr	r3, [r7, #12]
 80046e2:	6d5b      	ldr	r3, [r3, #84]	; 0x54
 80046e4:	f043 0220 	orr.w	r2, r3, #32
 80046e8:	68fb      	ldr	r3, [r7, #12]
 80046ea:	655a      	str	r2, [r3, #84]	; 0x54
      return HAL_TIMEOUT;
 80046ec:	2303      	movs	r3, #3
 80046ee:	e013      	b.n	8004718 <SPI_EndRxTransaction+0x9c>
    }
  }
  else
  {
    /* Control the BSY flag */
    if (SPI_WaitFlagStateUntilTimeout(hspi, SPI_FLAG_BSY, RESET, Timeout, Tickstart) != HAL_OK)
 80046f0:	687b      	ldr	r3, [r7, #4]
 80046f2:	9300      	str	r3, [sp, #0]
 80046f4:	68bb      	ldr	r3, [r7, #8]
 80046f6:	2200      	movs	r2, #0
 80046f8:	2180      	movs	r1, #128	; 0x80
 80046fa:	68f8      	ldr	r0, [r7, #12]
 80046fc:	f7ff ff54 	bl	80045a8 <SPI_WaitFlagStateUntilTimeout>
 8004700:	4603      	mov	r3, r0
 8004702:	2b00      	cmp	r3, #0
 8004704:	d007      	beq.n	8004716 <SPI_EndRxTransaction+0x9a>
    {
      SET_BIT(hspi->ErrorCode, HAL_SPI_ERROR_FLAG);
 8004706:	68fb      	ldr	r3, [r7, #12]
 8004708:	6d5b      	ldr	r3, [r3, #84]	; 0x54
 800470a:	f043 0220 	orr.w	r2, r3, #32
 800470e:	68fb      	ldr	r3, [r7, #12]
 8004710:	655a      	str	r2, [r3, #84]	; 0x54
      return HAL_TIMEOUT;
 8004712:	2303      	movs	r3, #3
 8004714:	e000      	b.n	8004718 <SPI_EndRxTransaction+0x9c>
    }
  }
  return HAL_OK;
 8004716:	2300      	movs	r3, #0
}
 8004718:	4618      	mov	r0, r3
 800471a:	3710      	adds	r7, #16
 800471c:	46bd      	mov	sp, r7
 800471e:	bd80      	pop	{r7, pc}

08004720 <SPI_EndRxTxTransaction>:
  * @param  Timeout Timeout duration
  * @param  Tickstart tick start value
  * @retval HAL status
  */
static HAL_StatusTypeDef SPI_EndRxTxTransaction(SPI_HandleTypeDef *hspi, uint32_t Timeout, uint32_t Tickstart)
{
 8004720:	b580      	push	{r7, lr}
 8004722:	b086      	sub	sp, #24
 8004724:	af02      	add	r7, sp, #8
 8004726:	60f8      	str	r0, [r7, #12]
 8004728:	60b9      	str	r1, [r7, #8]
 800472a:	607a      	str	r2, [r7, #4]
  /* Control the BSY flag */
  if (SPI_WaitFlagStateUntilTimeout(hspi, SPI_FLAG_BSY, RESET, Timeout, Tickstart) != HAL_OK)
 800472c:	687b      	ldr	r3, [r7, #4]
 800472e:	9300      	str	r3, [sp, #0]
 8004730:	68bb      	ldr	r3, [r7, #8]
 8004732:	2200      	movs	r2, #0
 8004734:	2180      	movs	r1, #128	; 0x80
 8004736:	68f8      	ldr	r0, [r7, #12]
 8004738:	f7ff ff36 	bl	80045a8 <SPI_WaitFlagStateUntilTimeout>
 800473c:	4603      	mov	r3, r0
 800473e:	2b00      	cmp	r3, #0
 8004740:	d007      	beq.n	8004752 <SPI_EndRxTxTransaction+0x32>
  {
    SET_BIT(hspi->ErrorCode, HAL_SPI_ERROR_FLAG);
 8004742:	68fb      	ldr	r3, [r7, #12]
 8004744:	6d5b      	ldr	r3, [r3, #84]	; 0x54
 8004746:	f043 0220 	orr.w	r2, r3, #32
 800474a:	68fb      	ldr	r3, [r7, #12]
 800474c:	655a      	str	r2, [r3, #84]	; 0x54
    return HAL_TIMEOUT;
 800474e:	2303      	movs	r3, #3
 8004750:	e000      	b.n	8004754 <SPI_EndRxTxTransaction+0x34>
  }
  return HAL_OK;
 8004752:	2300      	movs	r3, #0
}
 8004754:	4618      	mov	r0, r3
 8004756:	3710      	adds	r7, #16
 8004758:	46bd      	mov	sp, r7
 800475a:	bd80      	pop	{r7, pc}

0800475c <HAL_TIM_Base_Init>:
  *         Ex: call @ref HAL_TIM_Base_DeInit() before HAL_TIM_Base_Init()
  * @param  htim TIM Base handle
  * @retval HAL status
  */
HAL_StatusTypeDef HAL_TIM_Base_Init(TIM_HandleTypeDef *htim)
{
 800475c:	b580      	push	{r7, lr}
 800475e:	b082      	sub	sp, #8
 8004760:	af00      	add	r7, sp, #0
 8004762:	6078      	str	r0, [r7, #4]
  /* Check the TIM handle allocation */
  if (htim == NULL)
 8004764:	687b      	ldr	r3, [r7, #4]
 8004766:	2b00      	cmp	r3, #0
 8004768:	d101      	bne.n	800476e <HAL_TIM_Base_Init+0x12>
  {
    return HAL_ERROR;
 800476a:	2301      	movs	r3, #1
 800476c:	e01d      	b.n	80047aa <HAL_TIM_Base_Init+0x4e>
  assert_param(IS_TIM_INSTANCE(htim->Instance));
  assert_param(IS_TIM_COUNTER_MODE(htim->Init.CounterMode));
  assert_param(IS_TIM_CLOCKDIVISION_DIV(htim->Init.ClockDivision));
  assert_param(IS_TIM_AUTORELOAD_PRELOAD(htim->Init.AutoReloadPreload));

  if (htim->State == HAL_TIM_STATE_RESET)
 800476e:	687b      	ldr	r3, [r7, #4]
 8004770:	f893 303d 	ldrb.w	r3, [r3, #61]	; 0x3d
 8004774:	b2db      	uxtb	r3, r3
 8004776:	2b00      	cmp	r3, #0
 8004778:	d106      	bne.n	8004788 <HAL_TIM_Base_Init+0x2c>
  {
    /* Allocate lock resource and initialize it */
    htim->Lock = HAL_UNLOCKED;
 800477a:	687b      	ldr	r3, [r7, #4]
 800477c:	2200      	movs	r2, #0
 800477e:	f883 203c 	strb.w	r2, [r3, #60]	; 0x3c
    }
    /* Init the low level hardware : GPIO, CLOCK, NVIC */
    htim->Base_MspInitCallback(htim);
#else
    /* Init the low level hardware : GPIO, CLOCK, NVIC */
    HAL_TIM_Base_MspInit(htim);
 8004782:	6878      	ldr	r0, [r7, #4]
 8004784:	f7fd f85a 	bl	800183c <HAL_TIM_Base_MspInit>
#endif /* USE_HAL_TIM_REGISTER_CALLBACKS */
  }

  /* Set the TIM state */
  htim->State = HAL_TIM_STATE_BUSY;
 8004788:	687b      	ldr	r3, [r7, #4]
 800478a:	2202      	movs	r2, #2
 800478c:	f883 203d 	strb.w	r2, [r3, #61]	; 0x3d

  /* Set the Time Base configuration */
  TIM_Base_SetConfig(htim->Instance, &htim->Init);
 8004790:	687b      	ldr	r3, [r7, #4]
 8004792:	681a      	ldr	r2, [r3, #0]
 8004794:	687b      	ldr	r3, [r7, #4]
 8004796:	3304      	adds	r3, #4
 8004798:	4619      	mov	r1, r3
 800479a:	4610      	mov	r0, r2
 800479c:	f000 fa32 	bl	8004c04 <TIM_Base_SetConfig>

  /* Initialize the TIM state*/
  htim->State = HAL_TIM_STATE_READY;
 80047a0:	687b      	ldr	r3, [r7, #4]
 80047a2:	2201      	movs	r2, #1
 80047a4:	f883 203d 	strb.w	r2, [r3, #61]	; 0x3d

  return HAL_OK;
 80047a8:	2300      	movs	r3, #0
}
 80047aa:	4618      	mov	r0, r3
 80047ac:	3708      	adds	r7, #8
 80047ae:	46bd      	mov	sp, r7
 80047b0:	bd80      	pop	{r7, pc}

080047b2 <HAL_TIM_Base_Start>:
  * @brief  Starts the TIM Base generation.
  * @param  htim TIM Base handle
  * @retval HAL status
  */
HAL_StatusTypeDef HAL_TIM_Base_Start(TIM_HandleTypeDef *htim)
{
 80047b2:	b480      	push	{r7}
 80047b4:	b085      	sub	sp, #20
 80047b6:	af00      	add	r7, sp, #0
 80047b8:	6078      	str	r0, [r7, #4]

  /* Check the parameters */
  assert_param(IS_TIM_INSTANCE(htim->Instance));

  /* Set the TIM state */
  htim->State = HAL_TIM_STATE_BUSY;
 80047ba:	687b      	ldr	r3, [r7, #4]
 80047bc:	2202      	movs	r2, #2
 80047be:	f883 203d 	strb.w	r2, [r3, #61]	; 0x3d

  /* Enable the Peripheral, except in trigger mode where enable is automatically done with trigger */
  tmpsmcr = htim->Instance->SMCR & TIM_SMCR_SMS;
 80047c2:	687b      	ldr	r3, [r7, #4]
 80047c4:	681b      	ldr	r3, [r3, #0]
 80047c6:	689b      	ldr	r3, [r3, #8]
 80047c8:	f003 0307 	and.w	r3, r3, #7
 80047cc:	60fb      	str	r3, [r7, #12]
  if (!IS_TIM_SLAVEMODE_TRIGGER_ENABLED(tmpsmcr))
 80047ce:	68fb      	ldr	r3, [r7, #12]
 80047d0:	2b06      	cmp	r3, #6
 80047d2:	d007      	beq.n	80047e4 <HAL_TIM_Base_Start+0x32>
  {
    __HAL_TIM_ENABLE(htim);
 80047d4:	687b      	ldr	r3, [r7, #4]
 80047d6:	681b      	ldr	r3, [r3, #0]
 80047d8:	681a      	ldr	r2, [r3, #0]
 80047da:	687b      	ldr	r3, [r7, #4]
 80047dc:	681b      	ldr	r3, [r3, #0]
 80047de:	f042 0201 	orr.w	r2, r2, #1
 80047e2:	601a      	str	r2, [r3, #0]
  }

  /* Change the TIM state*/
  htim->State = HAL_TIM_STATE_READY;
 80047e4:	687b      	ldr	r3, [r7, #4]
 80047e6:	2201      	movs	r2, #1
 80047e8:	f883 203d 	strb.w	r2, [r3, #61]	; 0x3d

  /* Return function status */
  return HAL_OK;
 80047ec:	2300      	movs	r3, #0
}
 80047ee:	4618      	mov	r0, r3
 80047f0:	3714      	adds	r7, #20
 80047f2:	46bd      	mov	sp, r7
 80047f4:	bc80      	pop	{r7}
 80047f6:	4770      	bx	lr

080047f8 <HAL_TIM_Base_Start_IT>:
  * @brief  Starts the TIM Base generation in interrupt mode.
  * @param  htim TIM Base handle
  * @retval HAL status
  */
HAL_StatusTypeDef HAL_TIM_Base_Start_IT(TIM_HandleTypeDef *htim)
{
 80047f8:	b480      	push	{r7}
 80047fa:	b085      	sub	sp, #20
 80047fc:	af00      	add	r7, sp, #0
 80047fe:	6078      	str	r0, [r7, #4]

  /* Check the parameters */
  assert_param(IS_TIM_INSTANCE(htim->Instance));

  /* Enable the TIM Update interrupt */
  __HAL_TIM_ENABLE_IT(htim, TIM_IT_UPDATE);
 8004800:	687b      	ldr	r3, [r7, #4]
 8004802:	681b      	ldr	r3, [r3, #0]
 8004804:	68da      	ldr	r2, [r3, #12]
 8004806:	687b      	ldr	r3, [r7, #4]
 8004808:	681b      	ldr	r3, [r3, #0]
 800480a:	f042 0201 	orr.w	r2, r2, #1
 800480e:	60da      	str	r2, [r3, #12]

  /* Enable the Peripheral, except in trigger mode where enable is automatically done with trigger */
  tmpsmcr = htim->Instance->SMCR & TIM_SMCR_SMS;
 8004810:	687b      	ldr	r3, [r7, #4]
 8004812:	681b      	ldr	r3, [r3, #0]
 8004814:	689b      	ldr	r3, [r3, #8]
 8004816:	f003 0307 	and.w	r3, r3, #7
 800481a:	60fb      	str	r3, [r7, #12]
  if (!IS_TIM_SLAVEMODE_TRIGGER_ENABLED(tmpsmcr))
 800481c:	68fb      	ldr	r3, [r7, #12]
 800481e:	2b06      	cmp	r3, #6
 8004820:	d007      	beq.n	8004832 <HAL_TIM_Base_Start_IT+0x3a>
  {
    __HAL_TIM_ENABLE(htim);
 8004822:	687b      	ldr	r3, [r7, #4]
 8004824:	681b      	ldr	r3, [r3, #0]
 8004826:	681a      	ldr	r2, [r3, #0]
 8004828:	687b      	ldr	r3, [r7, #4]
 800482a:	681b      	ldr	r3, [r3, #0]
 800482c:	f042 0201 	orr.w	r2, r2, #1
 8004830:	601a      	str	r2, [r3, #0]
  }

  /* Return function status */
  return HAL_OK;
 8004832:	2300      	movs	r3, #0
}
 8004834:	4618      	mov	r0, r3
 8004836:	3714      	adds	r7, #20
 8004838:	46bd      	mov	sp, r7
 800483a:	bc80      	pop	{r7}
 800483c:	4770      	bx	lr

0800483e <HAL_TIM_IRQHandler>:
  * @brief  This function handles TIM interrupts requests.
  * @param  htim TIM  handle
  * @retval None
  */
void HAL_TIM_IRQHandler(TIM_HandleTypeDef *htim)
{
 800483e:	b580      	push	{r7, lr}
 8004840:	b082      	sub	sp, #8
 8004842:	af00      	add	r7, sp, #0
 8004844:	6078      	str	r0, [r7, #4]
  /* Capture compare 1 event */
  if (__HAL_TIM_GET_FLAG(htim, TIM_FLAG_CC1) != RESET)
 8004846:	687b      	ldr	r3, [r7, #4]
 8004848:	681b      	ldr	r3, [r3, #0]
 800484a:	691b      	ldr	r3, [r3, #16]
 800484c:	f003 0302 	and.w	r3, r3, #2
 8004850:	2b02      	cmp	r3, #2
 8004852:	d122      	bne.n	800489a <HAL_TIM_IRQHandler+0x5c>
  {
    if (__HAL_TIM_GET_IT_SOURCE(htim, TIM_IT_CC1) != RESET)
 8004854:	687b      	ldr	r3, [r7, #4]
 8004856:	681b      	ldr	r3, [r3, #0]
 8004858:	68db      	ldr	r3, [r3, #12]
 800485a:	f003 0302 	and.w	r3, r3, #2
 800485e:	2b02      	cmp	r3, #2
 8004860:	d11b      	bne.n	800489a <HAL_TIM_IRQHandler+0x5c>
    {
      {
        __HAL_TIM_CLEAR_IT(htim, TIM_IT_CC1);
 8004862:	687b      	ldr	r3, [r7, #4]
 8004864:	681b      	ldr	r3, [r3, #0]
 8004866:	f06f 0202 	mvn.w	r2, #2
 800486a:	611a      	str	r2, [r3, #16]
        htim->Channel = HAL_TIM_ACTIVE_CHANNEL_1;
 800486c:	687b      	ldr	r3, [r7, #4]
 800486e:	2201      	movs	r2, #1
 8004870:	771a      	strb	r2, [r3, #28]

        /* Input capture event */
        if ((htim->Instance->CCMR1 & TIM_CCMR1_CC1S) != 0x00U)
 8004872:	687b      	ldr	r3, [r7, #4]
 8004874:	681b      	ldr	r3, [r3, #0]
 8004876:	699b      	ldr	r3, [r3, #24]
 8004878:	f003 0303 	and.w	r3, r3, #3
 800487c:	2b00      	cmp	r3, #0
 800487e:	d003      	beq.n	8004888 <HAL_TIM_IRQHandler+0x4a>
        {
#if (USE_HAL_TIM_REGISTER_CALLBACKS == 1)
          htim->IC_CaptureCallback(htim);
#else
          HAL_TIM_IC_CaptureCallback(htim);
 8004880:	6878      	ldr	r0, [r7, #4]
 8004882:	f000 f9a4 	bl	8004bce <HAL_TIM_IC_CaptureCallback>
 8004886:	e005      	b.n	8004894 <HAL_TIM_IRQHandler+0x56>
        {
#if (USE_HAL_TIM_REGISTER_CALLBACKS == 1)
          htim->OC_DelayElapsedCallback(htim);
          htim->PWM_PulseFinishedCallback(htim);
#else
          HAL_TIM_OC_DelayElapsedCallback(htim);
 8004888:	6878      	ldr	r0, [r7, #4]
 800488a:	f000 f997 	bl	8004bbc <HAL_TIM_OC_DelayElapsedCallback>
          HAL_TIM_PWM_PulseFinishedCallback(htim);
 800488e:	6878      	ldr	r0, [r7, #4]
 8004890:	f000 f9a6 	bl	8004be0 <HAL_TIM_PWM_PulseFinishedCallback>
#endif /* USE_HAL_TIM_REGISTER_CALLBACKS */
        }
        htim->Channel = HAL_TIM_ACTIVE_CHANNEL_CLEARED;
 8004894:	687b      	ldr	r3, [r7, #4]
 8004896:	2200      	movs	r2, #0
 8004898:	771a      	strb	r2, [r3, #28]
      }
    }
  }
  /* Capture compare 2 event */
  if (__HAL_TIM_GET_FLAG(htim, TIM_FLAG_CC2) != RESET)
 800489a:	687b      	ldr	r3, [r7, #4]
 800489c:	681b      	ldr	r3, [r3, #0]
 800489e:	691b      	ldr	r3, [r3, #16]
 80048a0:	f003 0304 	and.w	r3, r3, #4
 80048a4:	2b04      	cmp	r3, #4
 80048a6:	d122      	bne.n	80048ee <HAL_TIM_IRQHandler+0xb0>
  {
    if (__HAL_TIM_GET_IT_SOURCE(htim, TIM_IT_CC2) != RESET)
 80048a8:	687b      	ldr	r3, [r7, #4]
 80048aa:	681b      	ldr	r3, [r3, #0]
 80048ac:	68db      	ldr	r3, [r3, #12]
 80048ae:	f003 0304 	and.w	r3, r3, #4
 80048b2:	2b04      	cmp	r3, #4
 80048b4:	d11b      	bne.n	80048ee <HAL_TIM_IRQHandler+0xb0>
    {
      __HAL_TIM_CLEAR_IT(htim, TIM_IT_CC2);
 80048b6:	687b      	ldr	r3, [r7, #4]
 80048b8:	681b      	ldr	r3, [r3, #0]
 80048ba:	f06f 0204 	mvn.w	r2, #4
 80048be:	611a      	str	r2, [r3, #16]
      htim->Channel = HAL_TIM_ACTIVE_CHANNEL_2;
 80048c0:	687b      	ldr	r3, [r7, #4]
 80048c2:	2202      	movs	r2, #2
 80048c4:	771a      	strb	r2, [r3, #28]
      /* Input capture event */
      if ((htim->Instance->CCMR1 & TIM_CCMR1_CC2S) != 0x00U)
 80048c6:	687b      	ldr	r3, [r7, #4]
 80048c8:	681b      	ldr	r3, [r3, #0]
 80048ca:	699b      	ldr	r3, [r3, #24]
 80048cc:	f403 7340 	and.w	r3, r3, #768	; 0x300
 80048d0:	2b00      	cmp	r3, #0
 80048d2:	d003      	beq.n	80048dc <HAL_TIM_IRQHandler+0x9e>
      {
#if (USE_HAL_TIM_REGISTER_CALLBACKS == 1)
        htim->IC_CaptureCallback(htim);
#else
        HAL_TIM_IC_CaptureCallback(htim);
 80048d4:	6878      	ldr	r0, [r7, #4]
 80048d6:	f000 f97a 	bl	8004bce <HAL_TIM_IC_CaptureCallback>
 80048da:	e005      	b.n	80048e8 <HAL_TIM_IRQHandler+0xaa>
      {
#if (USE_HAL_TIM_REGISTER_CALLBACKS == 1)
        htim->OC_DelayElapsedCallback(htim);
        htim->PWM_PulseFinishedCallback(htim);
#else
        HAL_TIM_OC_DelayElapsedCallback(htim);
 80048dc:	6878      	ldr	r0, [r7, #4]
 80048de:	f000 f96d 	bl	8004bbc <HAL_TIM_OC_DelayElapsedCallback>
        HAL_TIM_PWM_PulseFinishedCallback(htim);
 80048e2:	6878      	ldr	r0, [r7, #4]
 80048e4:	f000 f97c 	bl	8004be0 <HAL_TIM_PWM_PulseFinishedCallback>
#endif /* USE_HAL_TIM_REGISTER_CALLBACKS */
      }
      htim->Channel = HAL_TIM_ACTIVE_CHANNEL_CLEARED;
 80048e8:	687b      	ldr	r3, [r7, #4]
 80048ea:	2200      	movs	r2, #0
 80048ec:	771a      	strb	r2, [r3, #28]
    }
  }
  /* Capture compare 3 event */
  if (__HAL_TIM_GET_FLAG(htim, TIM_FLAG_CC3) != RESET)
 80048ee:	687b      	ldr	r3, [r7, #4]
 80048f0:	681b      	ldr	r3, [r3, #0]
 80048f2:	691b      	ldr	r3, [r3, #16]
 80048f4:	f003 0308 	and.w	r3, r3, #8
 80048f8:	2b08      	cmp	r3, #8
 80048fa:	d122      	bne.n	8004942 <HAL_TIM_IRQHandler+0x104>
  {
    if (__HAL_TIM_GET_IT_SOURCE(htim, TIM_IT_CC3) != RESET)
 80048fc:	687b      	ldr	r3, [r7, #4]
 80048fe:	681b      	ldr	r3, [r3, #0]
 8004900:	68db      	ldr	r3, [r3, #12]
 8004902:	f003 0308 	and.w	r3, r3, #8
 8004906:	2b08      	cmp	r3, #8
 8004908:	d11b      	bne.n	8004942 <HAL_TIM_IRQHandler+0x104>
    {
      __HAL_TIM_CLEAR_IT(htim, TIM_IT_CC3);
 800490a:	687b      	ldr	r3, [r7, #4]
 800490c:	681b      	ldr	r3, [r3, #0]
 800490e:	f06f 0208 	mvn.w	r2, #8
 8004912:	611a      	str	r2, [r3, #16]
      htim->Channel = HAL_TIM_ACTIVE_CHANNEL_3;
 8004914:	687b      	ldr	r3, [r7, #4]
 8004916:	2204      	movs	r2, #4
 8004918:	771a      	strb	r2, [r3, #28]
      /* Input capture event */
      if ((htim->Instance->CCMR2 & TIM_CCMR2_CC3S) != 0x00U)
 800491a:	687b      	ldr	r3, [r7, #4]
 800491c:	681b      	ldr	r3, [r3, #0]
 800491e:	69db      	ldr	r3, [r3, #28]
 8004920:	f003 0303 	and.w	r3, r3, #3
 8004924:	2b00      	cmp	r3, #0
 8004926:	d003      	beq.n	8004930 <HAL_TIM_IRQHandler+0xf2>
      {
#if (USE_HAL_TIM_REGISTER_CALLBACKS == 1)
        htim->IC_CaptureCallback(htim);
#else
        HAL_TIM_IC_CaptureCallback(htim);
 8004928:	6878      	ldr	r0, [r7, #4]
 800492a:	f000 f950 	bl	8004bce <HAL_TIM_IC_CaptureCallback>
 800492e:	e005      	b.n	800493c <HAL_TIM_IRQHandler+0xfe>
      {
#if (USE_HAL_TIM_REGISTER_CALLBACKS == 1)
        htim->OC_DelayElapsedCallback(htim);
        htim->PWM_PulseFinishedCallback(htim);
#else
        HAL_TIM_OC_DelayElapsedCallback(htim);
 8004930:	6878      	ldr	r0, [r7, #4]
 8004932:	f000 f943 	bl	8004bbc <HAL_TIM_OC_DelayElapsedCallback>
        HAL_TIM_PWM_PulseFinishedCallback(htim);
 8004936:	6878      	ldr	r0, [r7, #4]
 8004938:	f000 f952 	bl	8004be0 <HAL_TIM_PWM_PulseFinishedCallback>
#endif /* USE_HAL_TIM_REGISTER_CALLBACKS */
      }
      htim->Channel = HAL_TIM_ACTIVE_CHANNEL_CLEARED;
 800493c:	687b      	ldr	r3, [r7, #4]
 800493e:	2200      	movs	r2, #0
 8004940:	771a      	strb	r2, [r3, #28]
    }
  }
  /* Capture compare 4 event */
  if (__HAL_TIM_GET_FLAG(htim, TIM_FLAG_CC4) != RESET)
 8004942:	687b      	ldr	r3, [r7, #4]
 8004944:	681b      	ldr	r3, [r3, #0]
 8004946:	691b      	ldr	r3, [r3, #16]
 8004948:	f003 0310 	and.w	r3, r3, #16
 800494c:	2b10      	cmp	r3, #16
 800494e:	d122      	bne.n	8004996 <HAL_TIM_IRQHandler+0x158>
  {
    if (__HAL_TIM_GET_IT_SOURCE(htim, TIM_IT_CC4) != RESET)
 8004950:	687b      	ldr	r3, [r7, #4]
 8004952:	681b      	ldr	r3, [r3, #0]
 8004954:	68db      	ldr	r3, [r3, #12]
 8004956:	f003 0310 	and.w	r3, r3, #16
 800495a:	2b10      	cmp	r3, #16
 800495c:	d11b      	bne.n	8004996 <HAL_TIM_IRQHandler+0x158>
    {
      __HAL_TIM_CLEAR_IT(htim, TIM_IT_CC4);
 800495e:	687b      	ldr	r3, [r7, #4]
 8004960:	681b      	ldr	r3, [r3, #0]
 8004962:	f06f 0210 	mvn.w	r2, #16
 8004966:	611a      	str	r2, [r3, #16]
      htim->Channel = HAL_TIM_ACTIVE_CHANNEL_4;
 8004968:	687b      	ldr	r3, [r7, #4]
 800496a:	2208      	movs	r2, #8
 800496c:	771a      	strb	r2, [r3, #28]
      /* Input capture event */
      if ((htim->Instance->CCMR2 & TIM_CCMR2_CC4S) != 0x00U)
 800496e:	687b      	ldr	r3, [r7, #4]
 8004970:	681b      	ldr	r3, [r3, #0]
 8004972:	69db      	ldr	r3, [r3, #28]
 8004974:	f403 7340 	and.w	r3, r3, #768	; 0x300
 8004978:	2b00      	cmp	r3, #0
 800497a:	d003      	beq.n	8004984 <HAL_TIM_IRQHandler+0x146>
      {
#if (USE_HAL_TIM_REGISTER_CALLBACKS == 1)
        htim->IC_CaptureCallback(htim);
#else
        HAL_TIM_IC_CaptureCallback(htim);
 800497c:	6878      	ldr	r0, [r7, #4]
 800497e:	f000 f926 	bl	8004bce <HAL_TIM_IC_CaptureCallback>
 8004982:	e005      	b.n	8004990 <HAL_TIM_IRQHandler+0x152>
      {
#if (USE_HAL_TIM_REGISTER_CALLBACKS == 1)
        htim->OC_DelayElapsedCallback(htim);
        htim->PWM_PulseFinishedCallback(htim);
#else
        HAL_TIM_OC_DelayElapsedCallback(htim);
 8004984:	6878      	ldr	r0, [r7, #4]
 8004986:	f000 f919 	bl	8004bbc <HAL_TIM_OC_DelayElapsedCallback>
        HAL_TIM_PWM_PulseFinishedCallback(htim);
 800498a:	6878      	ldr	r0, [r7, #4]
 800498c:	f000 f928 	bl	8004be0 <HAL_TIM_PWM_PulseFinishedCallback>
#endif /* USE_HAL_TIM_REGISTER_CALLBACKS */
      }
      htim->Channel = HAL_TIM_ACTIVE_CHANNEL_CLEARED;
 8004990:	687b      	ldr	r3, [r7, #4]
 8004992:	2200      	movs	r2, #0
 8004994:	771a      	strb	r2, [r3, #28]
    }
  }
  /* TIM Update event */
  if (__HAL_TIM_GET_FLAG(htim, TIM_FLAG_UPDATE) != RESET)
 8004996:	687b      	ldr	r3, [r7, #4]
 8004998:	681b      	ldr	r3, [r3, #0]
 800499a:	691b      	ldr	r3, [r3, #16]
 800499c:	f003 0301 	and.w	r3, r3, #1
 80049a0:	2b01      	cmp	r3, #1
 80049a2:	d10e      	bne.n	80049c2 <HAL_TIM_IRQHandler+0x184>
  {
    if (__HAL_TIM_GET_IT_SOURCE(htim, TIM_IT_UPDATE) != RESET)
 80049a4:	687b      	ldr	r3, [r7, #4]
 80049a6:	681b      	ldr	r3, [r3, #0]
 80049a8:	68db      	ldr	r3, [r3, #12]
 80049aa:	f003 0301 	and.w	r3, r3, #1
 80049ae:	2b01      	cmp	r3, #1
 80049b0:	d107      	bne.n	80049c2 <HAL_TIM_IRQHandler+0x184>
    {
      __HAL_TIM_CLEAR_IT(htim, TIM_IT_UPDATE);
 80049b2:	687b      	ldr	r3, [r7, #4]
 80049b4:	681b      	ldr	r3, [r3, #0]
 80049b6:	f06f 0201 	mvn.w	r2, #1
 80049ba:	611a      	str	r2, [r3, #16]
#if (USE_HAL_TIM_REGISTER_CALLBACKS == 1)
      htim->PeriodElapsedCallback(htim);
#else
      HAL_TIM_PeriodElapsedCallback(htim);
 80049bc:	6878      	ldr	r0, [r7, #4]
 80049be:	f7fc fa2f 	bl	8000e20 <HAL_TIM_PeriodElapsedCallback>
#endif /* USE_HAL_TIM_REGISTER_CALLBACKS */
    }
  }
  /* TIM Break input event */
  if (__HAL_TIM_GET_FLAG(htim, TIM_FLAG_BREAK) != RESET)
 80049c2:	687b      	ldr	r3, [r7, #4]
 80049c4:	681b      	ldr	r3, [r3, #0]
 80049c6:	691b      	ldr	r3, [r3, #16]
 80049c8:	f003 0380 	and.w	r3, r3, #128	; 0x80
 80049cc:	2b80      	cmp	r3, #128	; 0x80
 80049ce:	d10e      	bne.n	80049ee <HAL_TIM_IRQHandler+0x1b0>
  {
    if (__HAL_TIM_GET_IT_SOURCE(htim, TIM_IT_BREAK) != RESET)
 80049d0:	687b      	ldr	r3, [r7, #4]
 80049d2:	681b      	ldr	r3, [r3, #0]
 80049d4:	68db      	ldr	r3, [r3, #12]
 80049d6:	f003 0380 	and.w	r3, r3, #128	; 0x80
 80049da:	2b80      	cmp	r3, #128	; 0x80
 80049dc:	d107      	bne.n	80049ee <HAL_TIM_IRQHandler+0x1b0>
    {
      __HAL_TIM_CLEAR_IT(htim, TIM_IT_BREAK);
 80049de:	687b      	ldr	r3, [r7, #4]
 80049e0:	681b      	ldr	r3, [r3, #0]
 80049e2:	f06f 0280 	mvn.w	r2, #128	; 0x80
 80049e6:	611a      	str	r2, [r3, #16]
#if (USE_HAL_TIM_REGISTER_CALLBACKS == 1)
      htim->BreakCallback(htim);
#else
      HAL_TIMEx_BreakCallback(htim);
 80049e8:	6878      	ldr	r0, [r7, #4]
 80049ea:	f000 fa50 	bl	8004e8e <HAL_TIMEx_BreakCallback>
#endif /* USE_HAL_TIM_REGISTER_CALLBACKS */
    }
  }
  /* TIM Trigger detection event */
  if (__HAL_TIM_GET_FLAG(htim, TIM_FLAG_TRIGGER) != RESET)
 80049ee:	687b      	ldr	r3, [r7, #4]
 80049f0:	681b      	ldr	r3, [r3, #0]
 80049f2:	691b      	ldr	r3, [r3, #16]
 80049f4:	f003 0340 	and.w	r3, r3, #64	; 0x40
 80049f8:	2b40      	cmp	r3, #64	; 0x40
 80049fa:	d10e      	bne.n	8004a1a <HAL_TIM_IRQHandler+0x1dc>
  {
    if (__HAL_TIM_GET_IT_SOURCE(htim, TIM_IT_TRIGGER) != RESET)
 80049fc:	687b      	ldr	r3, [r7, #4]
 80049fe:	681b      	ldr	r3, [r3, #0]
 8004a00:	68db      	ldr	r3, [r3, #12]
 8004a02:	f003 0340 	and.w	r3, r3, #64	; 0x40
 8004a06:	2b40      	cmp	r3, #64	; 0x40
 8004a08:	d107      	bne.n	8004a1a <HAL_TIM_IRQHandler+0x1dc>
    {
      __HAL_TIM_CLEAR_IT(htim, TIM_IT_TRIGGER);
 8004a0a:	687b      	ldr	r3, [r7, #4]
 8004a0c:	681b      	ldr	r3, [r3, #0]
 8004a0e:	f06f 0240 	mvn.w	r2, #64	; 0x40
 8004a12:	611a      	str	r2, [r3, #16]
#if (USE_HAL_TIM_REGISTER_CALLBACKS == 1)
      htim->TriggerCallback(htim);
#else
      HAL_TIM_TriggerCallback(htim);
 8004a14:	6878      	ldr	r0, [r7, #4]
 8004a16:	f000 f8ec 	bl	8004bf2 <HAL_TIM_TriggerCallback>
#endif /* USE_HAL_TIM_REGISTER_CALLBACKS */
    }
  }
  /* TIM commutation event */
  if (__HAL_TIM_GET_FLAG(htim, TIM_FLAG_COM) != RESET)
 8004a1a:	687b      	ldr	r3, [r7, #4]
 8004a1c:	681b      	ldr	r3, [r3, #0]
 8004a1e:	691b      	ldr	r3, [r3, #16]
 8004a20:	f003 0320 	and.w	r3, r3, #32
 8004a24:	2b20      	cmp	r3, #32
 8004a26:	d10e      	bne.n	8004a46 <HAL_TIM_IRQHandler+0x208>
  {
    if (__HAL_TIM_GET_IT_SOURCE(htim, TIM_IT_COM) != RESET)
 8004a28:	687b      	ldr	r3, [r7, #4]
 8004a2a:	681b      	ldr	r3, [r3, #0]
 8004a2c:	68db      	ldr	r3, [r3, #12]
 8004a2e:	f003 0320 	and.w	r3, r3, #32
 8004a32:	2b20      	cmp	r3, #32
 8004a34:	d107      	bne.n	8004a46 <HAL_TIM_IRQHandler+0x208>
    {
      __HAL_TIM_CLEAR_IT(htim, TIM_FLAG_COM);
 8004a36:	687b      	ldr	r3, [r7, #4]
 8004a38:	681b      	ldr	r3, [r3, #0]
 8004a3a:	f06f 0220 	mvn.w	r2, #32
 8004a3e:	611a      	str	r2, [r3, #16]
#if (USE_HAL_TIM_REGISTER_CALLBACKS == 1)
      htim->CommutationCallback(htim);
#else
      HAL_TIMEx_CommutCallback(htim);
 8004a40:	6878      	ldr	r0, [r7, #4]
 8004a42:	f000 fa1b 	bl	8004e7c <HAL_TIMEx_CommutCallback>
#endif /* USE_HAL_TIM_REGISTER_CALLBACKS */
    }
  }
}
 8004a46:	bf00      	nop
 8004a48:	3708      	adds	r7, #8
 8004a4a:	46bd      	mov	sp, r7
 8004a4c:	bd80      	pop	{r7, pc}

08004a4e <HAL_TIM_ConfigClockSource>:
  * @param  sClockSourceConfig pointer to a TIM_ClockConfigTypeDef structure that
  *         contains the clock source information for the TIM peripheral.
  * @retval HAL status
  */
HAL_StatusTypeDef HAL_TIM_ConfigClockSource(TIM_HandleTypeDef *htim, TIM_ClockConfigTypeDef *sClockSourceConfig)
{
 8004a4e:	b580      	push	{r7, lr}
 8004a50:	b084      	sub	sp, #16
 8004a52:	af00      	add	r7, sp, #0
 8004a54:	6078      	str	r0, [r7, #4]
 8004a56:	6039      	str	r1, [r7, #0]
  uint32_t tmpsmcr;

  /* Process Locked */
  __HAL_LOCK(htim);
 8004a58:	687b      	ldr	r3, [r7, #4]
 8004a5a:	f893 303c 	ldrb.w	r3, [r3, #60]	; 0x3c
 8004a5e:	2b01      	cmp	r3, #1
 8004a60:	d101      	bne.n	8004a66 <HAL_TIM_ConfigClockSource+0x18>
 8004a62:	2302      	movs	r3, #2
 8004a64:	e0a6      	b.n	8004bb4 <HAL_TIM_ConfigClockSource+0x166>
 8004a66:	687b      	ldr	r3, [r7, #4]
 8004a68:	2201      	movs	r2, #1
 8004a6a:	f883 203c 	strb.w	r2, [r3, #60]	; 0x3c

  htim->State = HAL_TIM_STATE_BUSY;
 8004a6e:	687b      	ldr	r3, [r7, #4]
 8004a70:	2202      	movs	r2, #2
 8004a72:	f883 203d 	strb.w	r2, [r3, #61]	; 0x3d

  /* Check the parameters */
  assert_param(IS_TIM_CLOCKSOURCE(sClockSourceConfig->ClockSource));

  /* Reset the SMS, TS, ECE, ETPS and ETRF bits */
  tmpsmcr = htim->Instance->SMCR;
 8004a76:	687b      	ldr	r3, [r7, #4]
 8004a78:	681b      	ldr	r3, [r3, #0]
 8004a7a:	689b      	ldr	r3, [r3, #8]
 8004a7c:	60fb      	str	r3, [r7, #12]
  tmpsmcr &= ~(TIM_SMCR_SMS | TIM_SMCR_TS);
 8004a7e:	68fb      	ldr	r3, [r7, #12]
 8004a80:	f023 0377 	bic.w	r3, r3, #119	; 0x77
 8004a84:	60fb      	str	r3, [r7, #12]
  tmpsmcr &= ~(TIM_SMCR_ETF | TIM_SMCR_ETPS | TIM_SMCR_ECE | TIM_SMCR_ETP);
 8004a86:	68fb      	ldr	r3, [r7, #12]
 8004a88:	f423 437f 	bic.w	r3, r3, #65280	; 0xff00
 8004a8c:	60fb      	str	r3, [r7, #12]
  htim->Instance->SMCR = tmpsmcr;
 8004a8e:	687b      	ldr	r3, [r7, #4]
 8004a90:	681b      	ldr	r3, [r3, #0]
 8004a92:	68fa      	ldr	r2, [r7, #12]
 8004a94:	609a      	str	r2, [r3, #8]

  switch (sClockSourceConfig->ClockSource)
 8004a96:	683b      	ldr	r3, [r7, #0]
 8004a98:	681b      	ldr	r3, [r3, #0]
 8004a9a:	2b40      	cmp	r3, #64	; 0x40
 8004a9c:	d067      	beq.n	8004b6e <HAL_TIM_ConfigClockSource+0x120>
 8004a9e:	2b40      	cmp	r3, #64	; 0x40
 8004aa0:	d80b      	bhi.n	8004aba <HAL_TIM_ConfigClockSource+0x6c>
 8004aa2:	2b10      	cmp	r3, #16
 8004aa4:	d073      	beq.n	8004b8e <HAL_TIM_ConfigClockSource+0x140>
 8004aa6:	2b10      	cmp	r3, #16
 8004aa8:	d802      	bhi.n	8004ab0 <HAL_TIM_ConfigClockSource+0x62>
 8004aaa:	2b00      	cmp	r3, #0
 8004aac:	d06f      	beq.n	8004b8e <HAL_TIM_ConfigClockSource+0x140>
      TIM_ITRx_SetConfig(htim->Instance, sClockSourceConfig->ClockSource);
      break;
    }

    default:
      break;
 8004aae:	e078      	b.n	8004ba2 <HAL_TIM_ConfigClockSource+0x154>
  switch (sClockSourceConfig->ClockSource)
 8004ab0:	2b20      	cmp	r3, #32
 8004ab2:	d06c      	beq.n	8004b8e <HAL_TIM_ConfigClockSource+0x140>
 8004ab4:	2b30      	cmp	r3, #48	; 0x30
 8004ab6:	d06a      	beq.n	8004b8e <HAL_TIM_ConfigClockSource+0x140>
      break;
 8004ab8:	e073      	b.n	8004ba2 <HAL_TIM_ConfigClockSource+0x154>
  switch (sClockSourceConfig->ClockSource)
 8004aba:	2b70      	cmp	r3, #112	; 0x70
 8004abc:	d00d      	beq.n	8004ada <HAL_TIM_ConfigClockSource+0x8c>
 8004abe:	2b70      	cmp	r3, #112	; 0x70
 8004ac0:	d804      	bhi.n	8004acc <HAL_TIM_ConfigClockSource+0x7e>
 8004ac2:	2b50      	cmp	r3, #80	; 0x50
 8004ac4:	d033      	beq.n	8004b2e <HAL_TIM_ConfigClockSource+0xe0>
 8004ac6:	2b60      	cmp	r3, #96	; 0x60
 8004ac8:	d041      	beq.n	8004b4e <HAL_TIM_ConfigClockSource+0x100>
      break;
 8004aca:	e06a      	b.n	8004ba2 <HAL_TIM_ConfigClockSource+0x154>
  switch (sClockSourceConfig->ClockSource)
 8004acc:	f5b3 5f80 	cmp.w	r3, #4096	; 0x1000
 8004ad0:	d066      	beq.n	8004ba0 <HAL_TIM_ConfigClockSource+0x152>
 8004ad2:	f5b3 5f00 	cmp.w	r3, #8192	; 0x2000
 8004ad6:	d017      	beq.n	8004b08 <HAL_TIM_ConfigClockSource+0xba>
      break;
 8004ad8:	e063      	b.n	8004ba2 <HAL_TIM_ConfigClockSource+0x154>
      TIM_ETR_SetConfig(htim->Instance,
 8004ada:	687b      	ldr	r3, [r7, #4]
 8004adc:	6818      	ldr	r0, [r3, #0]
 8004ade:	683b      	ldr	r3, [r7, #0]
 8004ae0:	6899      	ldr	r1, [r3, #8]
 8004ae2:	683b      	ldr	r3, [r7, #0]
 8004ae4:	685a      	ldr	r2, [r3, #4]
 8004ae6:	683b      	ldr	r3, [r7, #0]
 8004ae8:	68db      	ldr	r3, [r3, #12]
 8004aea:	f000 f964 	bl	8004db6 <TIM_ETR_SetConfig>
      tmpsmcr = htim->Instance->SMCR;
 8004aee:	687b      	ldr	r3, [r7, #4]
 8004af0:	681b      	ldr	r3, [r3, #0]
 8004af2:	689b      	ldr	r3, [r3, #8]
 8004af4:	60fb      	str	r3, [r7, #12]
      tmpsmcr |= (TIM_SLAVEMODE_EXTERNAL1 | TIM_CLOCKSOURCE_ETRMODE1);
 8004af6:	68fb      	ldr	r3, [r7, #12]
 8004af8:	f043 0377 	orr.w	r3, r3, #119	; 0x77
 8004afc:	60fb      	str	r3, [r7, #12]
      htim->Instance->SMCR = tmpsmcr;
 8004afe:	687b      	ldr	r3, [r7, #4]
 8004b00:	681b      	ldr	r3, [r3, #0]
 8004b02:	68fa      	ldr	r2, [r7, #12]
 8004b04:	609a      	str	r2, [r3, #8]
      break;
 8004b06:	e04c      	b.n	8004ba2 <HAL_TIM_ConfigClockSource+0x154>
      TIM_ETR_SetConfig(htim->Instance,
 8004b08:	687b      	ldr	r3, [r7, #4]
 8004b0a:	6818      	ldr	r0, [r3, #0]
 8004b0c:	683b      	ldr	r3, [r7, #0]
 8004b0e:	6899      	ldr	r1, [r3, #8]
 8004b10:	683b      	ldr	r3, [r7, #0]
 8004b12:	685a      	ldr	r2, [r3, #4]
 8004b14:	683b      	ldr	r3, [r7, #0]
 8004b16:	68db      	ldr	r3, [r3, #12]
 8004b18:	f000 f94d 	bl	8004db6 <TIM_ETR_SetConfig>
      htim->Instance->SMCR |= TIM_SMCR_ECE;
 8004b1c:	687b      	ldr	r3, [r7, #4]
 8004b1e:	681b      	ldr	r3, [r3, #0]
 8004b20:	689a      	ldr	r2, [r3, #8]
 8004b22:	687b      	ldr	r3, [r7, #4]
 8004b24:	681b      	ldr	r3, [r3, #0]
 8004b26:	f442 4280 	orr.w	r2, r2, #16384	; 0x4000
 8004b2a:	609a      	str	r2, [r3, #8]
      break;
 8004b2c:	e039      	b.n	8004ba2 <HAL_TIM_ConfigClockSource+0x154>
      TIM_TI1_ConfigInputStage(htim->Instance,
 8004b2e:	687b      	ldr	r3, [r7, #4]
 8004b30:	6818      	ldr	r0, [r3, #0]
 8004b32:	683b      	ldr	r3, [r7, #0]
 8004b34:	6859      	ldr	r1, [r3, #4]
 8004b36:	683b      	ldr	r3, [r7, #0]
 8004b38:	68db      	ldr	r3, [r3, #12]
 8004b3a:	461a      	mov	r2, r3
 8004b3c:	f000 f8c4 	bl	8004cc8 <TIM_TI1_ConfigInputStage>
      TIM_ITRx_SetConfig(htim->Instance, TIM_CLOCKSOURCE_TI1);
 8004b40:	687b      	ldr	r3, [r7, #4]
 8004b42:	681b      	ldr	r3, [r3, #0]
 8004b44:	2150      	movs	r1, #80	; 0x50
 8004b46:	4618      	mov	r0, r3
 8004b48:	f000 f91b 	bl	8004d82 <TIM_ITRx_SetConfig>
      break;
 8004b4c:	e029      	b.n	8004ba2 <HAL_TIM_ConfigClockSource+0x154>
      TIM_TI2_ConfigInputStage(htim->Instance,
 8004b4e:	687b      	ldr	r3, [r7, #4]
 8004b50:	6818      	ldr	r0, [r3, #0]
 8004b52:	683b      	ldr	r3, [r7, #0]
 8004b54:	6859      	ldr	r1, [r3, #4]
 8004b56:	683b      	ldr	r3, [r7, #0]
 8004b58:	68db      	ldr	r3, [r3, #12]
 8004b5a:	461a      	mov	r2, r3
 8004b5c:	f000 f8e2 	bl	8004d24 <TIM_TI2_ConfigInputStage>
      TIM_ITRx_SetConfig(htim->Instance, TIM_CLOCKSOURCE_TI2);
 8004b60:	687b      	ldr	r3, [r7, #4]
 8004b62:	681b      	ldr	r3, [r3, #0]
 8004b64:	2160      	movs	r1, #96	; 0x60
 8004b66:	4618      	mov	r0, r3
 8004b68:	f000 f90b 	bl	8004d82 <TIM_ITRx_SetConfig>
      break;
 8004b6c:	e019      	b.n	8004ba2 <HAL_TIM_ConfigClockSource+0x154>
      TIM_TI1_ConfigInputStage(htim->Instance,
 8004b6e:	687b      	ldr	r3, [r7, #4]
 8004b70:	6818      	ldr	r0, [r3, #0]
 8004b72:	683b      	ldr	r3, [r7, #0]
 8004b74:	6859      	ldr	r1, [r3, #4]
 8004b76:	683b      	ldr	r3, [r7, #0]
 8004b78:	68db      	ldr	r3, [r3, #12]
 8004b7a:	461a      	mov	r2, r3
 8004b7c:	f000 f8a4 	bl	8004cc8 <TIM_TI1_ConfigInputStage>
      TIM_ITRx_SetConfig(htim->Instance, TIM_CLOCKSOURCE_TI1ED);
 8004b80:	687b      	ldr	r3, [r7, #4]
 8004b82:	681b      	ldr	r3, [r3, #0]
 8004b84:	2140      	movs	r1, #64	; 0x40
 8004b86:	4618      	mov	r0, r3
 8004b88:	f000 f8fb 	bl	8004d82 <TIM_ITRx_SetConfig>
      break;
 8004b8c:	e009      	b.n	8004ba2 <HAL_TIM_ConfigClockSource+0x154>
      TIM_ITRx_SetConfig(htim->Instance, sClockSourceConfig->ClockSource);
 8004b8e:	687b      	ldr	r3, [r7, #4]
 8004b90:	681a      	ldr	r2, [r3, #0]
 8004b92:	683b      	ldr	r3, [r7, #0]
 8004b94:	681b      	ldr	r3, [r3, #0]
 8004b96:	4619      	mov	r1, r3
 8004b98:	4610      	mov	r0, r2
 8004b9a:	f000 f8f2 	bl	8004d82 <TIM_ITRx_SetConfig>
      break;
 8004b9e:	e000      	b.n	8004ba2 <HAL_TIM_ConfigClockSource+0x154>
      break;
 8004ba0:	bf00      	nop
  }
  htim->State = HAL_TIM_STATE_READY;
 8004ba2:	687b      	ldr	r3, [r7, #4]
 8004ba4:	2201      	movs	r2, #1
 8004ba6:	f883 203d 	strb.w	r2, [r3, #61]	; 0x3d

  __HAL_UNLOCK(htim);
 8004baa:	687b      	ldr	r3, [r7, #4]
 8004bac:	2200      	movs	r2, #0
 8004bae:	f883 203c 	strb.w	r2, [r3, #60]	; 0x3c

  return HAL_OK;
 8004bb2:	2300      	movs	r3, #0
}
 8004bb4:	4618      	mov	r0, r3
 8004bb6:	3710      	adds	r7, #16
 8004bb8:	46bd      	mov	sp, r7
 8004bba:	bd80      	pop	{r7, pc}

08004bbc <HAL_TIM_OC_DelayElapsedCallback>:
  * @brief  Output Compare callback in non-blocking mode
  * @param  htim TIM OC handle
  * @retval None
  */
__weak void HAL_TIM_OC_DelayElapsedCallback(TIM_HandleTypeDef *htim)
{
 8004bbc:	b480      	push	{r7}
 8004bbe:	b083      	sub	sp, #12
 8004bc0:	af00      	add	r7, sp, #0
 8004bc2:	6078      	str	r0, [r7, #4]
  UNUSED(htim);

  /* NOTE : This function should not be modified, when the callback is needed,
            the HAL_TIM_OC_DelayElapsedCallback could be implemented in the user file
   */
}
 8004bc4:	bf00      	nop
 8004bc6:	370c      	adds	r7, #12
 8004bc8:	46bd      	mov	sp, r7
 8004bca:	bc80      	pop	{r7}
 8004bcc:	4770      	bx	lr

08004bce <HAL_TIM_IC_CaptureCallback>:
  * @brief  Input Capture callback in non-blocking mode
  * @param  htim TIM IC handle
  * @retval None
  */
__weak void HAL_TIM_IC_CaptureCallback(TIM_HandleTypeDef *htim)
{
 8004bce:	b480      	push	{r7}
 8004bd0:	b083      	sub	sp, #12
 8004bd2:	af00      	add	r7, sp, #0
 8004bd4:	6078      	str	r0, [r7, #4]
  UNUSED(htim);

  /* NOTE : This function should not be modified, when the callback is needed,
            the HAL_TIM_IC_CaptureCallback could be implemented in the user file
   */
}
 8004bd6:	bf00      	nop
 8004bd8:	370c      	adds	r7, #12
 8004bda:	46bd      	mov	sp, r7
 8004bdc:	bc80      	pop	{r7}
 8004bde:	4770      	bx	lr

08004be0 <HAL_TIM_PWM_PulseFinishedCallback>:
  * @brief  PWM Pulse finished callback in non-blocking mode
  * @param  htim TIM handle
  * @retval None
  */
__weak void HAL_TIM_PWM_PulseFinishedCallback(TIM_HandleTypeDef *htim)
{
 8004be0:	b480      	push	{r7}
 8004be2:	b083      	sub	sp, #12
 8004be4:	af00      	add	r7, sp, #0
 8004be6:	6078      	str	r0, [r7, #4]
  UNUSED(htim);

  /* NOTE : This function should not be modified, when the callback is needed,
            the HAL_TIM_PWM_PulseFinishedCallback could be implemented in the user file
   */
}
 8004be8:	bf00      	nop
 8004bea:	370c      	adds	r7, #12
 8004bec:	46bd      	mov	sp, r7
 8004bee:	bc80      	pop	{r7}
 8004bf0:	4770      	bx	lr

08004bf2 <HAL_TIM_TriggerCallback>:
  * @brief  Hall Trigger detection callback in non-blocking mode
  * @param  htim TIM handle
  * @retval None
  */
__weak void HAL_TIM_TriggerCallback(TIM_HandleTypeDef *htim)
{
 8004bf2:	b480      	push	{r7}
 8004bf4:	b083      	sub	sp, #12
 8004bf6:	af00      	add	r7, sp, #0
 8004bf8:	6078      	str	r0, [r7, #4]
  UNUSED(htim);

  /* NOTE : This function should not be modified, when the callback is needed,
            the HAL_TIM_TriggerCallback could be implemented in the user file
   */
}
 8004bfa:	bf00      	nop
 8004bfc:	370c      	adds	r7, #12
 8004bfe:	46bd      	mov	sp, r7
 8004c00:	bc80      	pop	{r7}
 8004c02:	4770      	bx	lr

08004c04 <TIM_Base_SetConfig>:
  * @param  TIMx TIM peripheral
  * @param  Structure TIM Base configuration structure
  * @retval None
  */
void TIM_Base_SetConfig(TIM_TypeDef *TIMx, TIM_Base_InitTypeDef *Structure)
{
 8004c04:	b480      	push	{r7}
 8004c06:	b085      	sub	sp, #20
 8004c08:	af00      	add	r7, sp, #0
 8004c0a:	6078      	str	r0, [r7, #4]
 8004c0c:	6039      	str	r1, [r7, #0]
  uint32_t tmpcr1;
  tmpcr1 = TIMx->CR1;
 8004c0e:	687b      	ldr	r3, [r7, #4]
 8004c10:	681b      	ldr	r3, [r3, #0]
 8004c12:	60fb      	str	r3, [r7, #12]

  /* Set TIM Time Base Unit parameters ---------------------------------------*/
  if (IS_TIM_COUNTER_MODE_SELECT_INSTANCE(TIMx))
 8004c14:	687b      	ldr	r3, [r7, #4]
 8004c16:	4a29      	ldr	r2, [pc, #164]	; (8004cbc <TIM_Base_SetConfig+0xb8>)
 8004c18:	4293      	cmp	r3, r2
 8004c1a:	d00b      	beq.n	8004c34 <TIM_Base_SetConfig+0x30>
 8004c1c:	687b      	ldr	r3, [r7, #4]
 8004c1e:	f1b3 4f80 	cmp.w	r3, #1073741824	; 0x40000000
 8004c22:	d007      	beq.n	8004c34 <TIM_Base_SetConfig+0x30>
 8004c24:	687b      	ldr	r3, [r7, #4]
 8004c26:	4a26      	ldr	r2, [pc, #152]	; (8004cc0 <TIM_Base_SetConfig+0xbc>)
 8004c28:	4293      	cmp	r3, r2
 8004c2a:	d003      	beq.n	8004c34 <TIM_Base_SetConfig+0x30>
 8004c2c:	687b      	ldr	r3, [r7, #4]
 8004c2e:	4a25      	ldr	r2, [pc, #148]	; (8004cc4 <TIM_Base_SetConfig+0xc0>)
 8004c30:	4293      	cmp	r3, r2
 8004c32:	d108      	bne.n	8004c46 <TIM_Base_SetConfig+0x42>
  {
    /* Select the Counter Mode */
    tmpcr1 &= ~(TIM_CR1_DIR | TIM_CR1_CMS);
 8004c34:	68fb      	ldr	r3, [r7, #12]
 8004c36:	f023 0370 	bic.w	r3, r3, #112	; 0x70
 8004c3a:	60fb      	str	r3, [r7, #12]
    tmpcr1 |= Structure->CounterMode;
 8004c3c:	683b      	ldr	r3, [r7, #0]
 8004c3e:	685b      	ldr	r3, [r3, #4]
 8004c40:	68fa      	ldr	r2, [r7, #12]
 8004c42:	4313      	orrs	r3, r2
 8004c44:	60fb      	str	r3, [r7, #12]
  }

  if (IS_TIM_CLOCK_DIVISION_INSTANCE(TIMx))
 8004c46:	687b      	ldr	r3, [r7, #4]
 8004c48:	4a1c      	ldr	r2, [pc, #112]	; (8004cbc <TIM_Base_SetConfig+0xb8>)
 8004c4a:	4293      	cmp	r3, r2
 8004c4c:	d00b      	beq.n	8004c66 <TIM_Base_SetConfig+0x62>
 8004c4e:	687b      	ldr	r3, [r7, #4]
 8004c50:	f1b3 4f80 	cmp.w	r3, #1073741824	; 0x40000000
 8004c54:	d007      	beq.n	8004c66 <TIM_Base_SetConfig+0x62>
 8004c56:	687b      	ldr	r3, [r7, #4]
 8004c58:	4a19      	ldr	r2, [pc, #100]	; (8004cc0 <TIM_Base_SetConfig+0xbc>)
 8004c5a:	4293      	cmp	r3, r2
 8004c5c:	d003      	beq.n	8004c66 <TIM_Base_SetConfig+0x62>
 8004c5e:	687b      	ldr	r3, [r7, #4]
 8004c60:	4a18      	ldr	r2, [pc, #96]	; (8004cc4 <TIM_Base_SetConfig+0xc0>)
 8004c62:	4293      	cmp	r3, r2
 8004c64:	d108      	bne.n	8004c78 <TIM_Base_SetConfig+0x74>
  {
    /* Set the clock division */
    tmpcr1 &= ~TIM_CR1_CKD;
 8004c66:	68fb      	ldr	r3, [r7, #12]
 8004c68:	f423 7340 	bic.w	r3, r3, #768	; 0x300
 8004c6c:	60fb      	str	r3, [r7, #12]
    tmpcr1 |= (uint32_t)Structure->ClockDivision;
 8004c6e:	683b      	ldr	r3, [r7, #0]
 8004c70:	68db      	ldr	r3, [r3, #12]
 8004c72:	68fa      	ldr	r2, [r7, #12]
 8004c74:	4313      	orrs	r3, r2
 8004c76:	60fb      	str	r3, [r7, #12]
  }

  /* Set the auto-reload preload */
  MODIFY_REG(tmpcr1, TIM_CR1_ARPE, Structure->AutoReloadPreload);
 8004c78:	68fb      	ldr	r3, [r7, #12]
 8004c7a:	f023 0280 	bic.w	r2, r3, #128	; 0x80
 8004c7e:	683b      	ldr	r3, [r7, #0]
 8004c80:	695b      	ldr	r3, [r3, #20]
 8004c82:	4313      	orrs	r3, r2
 8004c84:	60fb      	str	r3, [r7, #12]

  TIMx->CR1 = tmpcr1;
 8004c86:	687b      	ldr	r3, [r7, #4]
 8004c88:	68fa      	ldr	r2, [r7, #12]
 8004c8a:	601a      	str	r2, [r3, #0]

  /* Set the Autoreload value */
  TIMx->ARR = (uint32_t)Structure->Period ;
 8004c8c:	683b      	ldr	r3, [r7, #0]
 8004c8e:	689a      	ldr	r2, [r3, #8]
 8004c90:	687b      	ldr	r3, [r7, #4]
 8004c92:	62da      	str	r2, [r3, #44]	; 0x2c

  /* Set the Prescaler value */
  TIMx->PSC = Structure->Prescaler;
 8004c94:	683b      	ldr	r3, [r7, #0]
 8004c96:	681a      	ldr	r2, [r3, #0]
 8004c98:	687b      	ldr	r3, [r7, #4]
 8004c9a:	629a      	str	r2, [r3, #40]	; 0x28

  if (IS_TIM_REPETITION_COUNTER_INSTANCE(TIMx))
 8004c9c:	687b      	ldr	r3, [r7, #4]
 8004c9e:	4a07      	ldr	r2, [pc, #28]	; (8004cbc <TIM_Base_SetConfig+0xb8>)
 8004ca0:	4293      	cmp	r3, r2
 8004ca2:	d103      	bne.n	8004cac <TIM_Base_SetConfig+0xa8>
  {
    /* Set the Repetition Counter value */
    TIMx->RCR = Structure->RepetitionCounter;
 8004ca4:	683b      	ldr	r3, [r7, #0]
 8004ca6:	691a      	ldr	r2, [r3, #16]
 8004ca8:	687b      	ldr	r3, [r7, #4]
 8004caa:	631a      	str	r2, [r3, #48]	; 0x30
  }

  /* Generate an update event to reload the Prescaler
     and the repetition counter (only for advanced timer) value immediately */
  TIMx->EGR = TIM_EGR_UG;
 8004cac:	687b      	ldr	r3, [r7, #4]
 8004cae:	2201      	movs	r2, #1
 8004cb0:	615a      	str	r2, [r3, #20]
}
 8004cb2:	bf00      	nop
 8004cb4:	3714      	adds	r7, #20
 8004cb6:	46bd      	mov	sp, r7
 8004cb8:	bc80      	pop	{r7}
 8004cba:	4770      	bx	lr
 8004cbc:	40012c00 	.word	0x40012c00
 8004cc0:	40000400 	.word	0x40000400
 8004cc4:	40000800 	.word	0x40000800

08004cc8 <TIM_TI1_ConfigInputStage>:
  * @param  TIM_ICFilter Specifies the Input Capture Filter.
  *          This parameter must be a value between 0x00 and 0x0F.
  * @retval None
  */
static void TIM_TI1_ConfigInputStage(TIM_TypeDef *TIMx, uint32_t TIM_ICPolarity, uint32_t TIM_ICFilter)
{
 8004cc8:	b480      	push	{r7}
 8004cca:	b087      	sub	sp, #28
 8004ccc:	af00      	add	r7, sp, #0
 8004cce:	60f8      	str	r0, [r7, #12]
 8004cd0:	60b9      	str	r1, [r7, #8]
 8004cd2:	607a      	str	r2, [r7, #4]
  uint32_t tmpccmr1;
  uint32_t tmpccer;

  /* Disable the Channel 1: Reset the CC1E Bit */
  tmpccer = TIMx->CCER;
 8004cd4:	68fb      	ldr	r3, [r7, #12]
 8004cd6:	6a1b      	ldr	r3, [r3, #32]
 8004cd8:	617b      	str	r3, [r7, #20]
  TIMx->CCER &= ~TIM_CCER_CC1E;
 8004cda:	68fb      	ldr	r3, [r7, #12]
 8004cdc:	6a1b      	ldr	r3, [r3, #32]
 8004cde:	f023 0201 	bic.w	r2, r3, #1
 8004ce2:	68fb      	ldr	r3, [r7, #12]
 8004ce4:	621a      	str	r2, [r3, #32]
  tmpccmr1 = TIMx->CCMR1;
 8004ce6:	68fb      	ldr	r3, [r7, #12]
 8004ce8:	699b      	ldr	r3, [r3, #24]
 8004cea:	613b      	str	r3, [r7, #16]

  /* Set the filter */
  tmpccmr1 &= ~TIM_CCMR1_IC1F;
 8004cec:	693b      	ldr	r3, [r7, #16]
 8004cee:	f023 03f0 	bic.w	r3, r3, #240	; 0xf0
 8004cf2:	613b      	str	r3, [r7, #16]
  tmpccmr1 |= (TIM_ICFilter << 4U);
 8004cf4:	687b      	ldr	r3, [r7, #4]
 8004cf6:	011b      	lsls	r3, r3, #4
 8004cf8:	693a      	ldr	r2, [r7, #16]
 8004cfa:	4313      	orrs	r3, r2
 8004cfc:	613b      	str	r3, [r7, #16]

  /* Select the Polarity and set the CC1E Bit */
  tmpccer &= ~(TIM_CCER_CC1P | TIM_CCER_CC1NP);
 8004cfe:	697b      	ldr	r3, [r7, #20]
 8004d00:	f023 030a 	bic.w	r3, r3, #10
 8004d04:	617b      	str	r3, [r7, #20]
  tmpccer |= TIM_ICPolarity;
 8004d06:	697a      	ldr	r2, [r7, #20]
 8004d08:	68bb      	ldr	r3, [r7, #8]
 8004d0a:	4313      	orrs	r3, r2
 8004d0c:	617b      	str	r3, [r7, #20]

  /* Write to TIMx CCMR1 and CCER registers */
  TIMx->CCMR1 = tmpccmr1;
 8004d0e:	68fb      	ldr	r3, [r7, #12]
 8004d10:	693a      	ldr	r2, [r7, #16]
 8004d12:	619a      	str	r2, [r3, #24]
  TIMx->CCER = tmpccer;
 8004d14:	68fb      	ldr	r3, [r7, #12]
 8004d16:	697a      	ldr	r2, [r7, #20]
 8004d18:	621a      	str	r2, [r3, #32]
}
 8004d1a:	bf00      	nop
 8004d1c:	371c      	adds	r7, #28
 8004d1e:	46bd      	mov	sp, r7
 8004d20:	bc80      	pop	{r7}
 8004d22:	4770      	bx	lr

08004d24 <TIM_TI2_ConfigInputStage>:
  * @param  TIM_ICFilter Specifies the Input Capture Filter.
  *          This parameter must be a value between 0x00 and 0x0F.
  * @retval None
  */
static void TIM_TI2_ConfigInputStage(TIM_TypeDef *TIMx, uint32_t TIM_ICPolarity, uint32_t TIM_ICFilter)
{
 8004d24:	b480      	push	{r7}
 8004d26:	b087      	sub	sp, #28
 8004d28:	af00      	add	r7, sp, #0
 8004d2a:	60f8      	str	r0, [r7, #12]
 8004d2c:	60b9      	str	r1, [r7, #8]
 8004d2e:	607a      	str	r2, [r7, #4]
  uint32_t tmpccmr1;
  uint32_t tmpccer;

  /* Disable the Channel 2: Reset the CC2E Bit */
  TIMx->CCER &= ~TIM_CCER_CC2E;
 8004d30:	68fb      	ldr	r3, [r7, #12]
 8004d32:	6a1b      	ldr	r3, [r3, #32]
 8004d34:	f023 0210 	bic.w	r2, r3, #16
 8004d38:	68fb      	ldr	r3, [r7, #12]
 8004d3a:	621a      	str	r2, [r3, #32]
  tmpccmr1 = TIMx->CCMR1;
 8004d3c:	68fb      	ldr	r3, [r7, #12]
 8004d3e:	699b      	ldr	r3, [r3, #24]
 8004d40:	617b      	str	r3, [r7, #20]
  tmpccer = TIMx->CCER;
 8004d42:	68fb      	ldr	r3, [r7, #12]
 8004d44:	6a1b      	ldr	r3, [r3, #32]
 8004d46:	613b      	str	r3, [r7, #16]

  /* Set the filter */
  tmpccmr1 &= ~TIM_CCMR1_IC2F;
 8004d48:	697b      	ldr	r3, [r7, #20]
 8004d4a:	f423 4370 	bic.w	r3, r3, #61440	; 0xf000
 8004d4e:	617b      	str	r3, [r7, #20]
  tmpccmr1 |= (TIM_ICFilter << 12U);
 8004d50:	687b      	ldr	r3, [r7, #4]
 8004d52:	031b      	lsls	r3, r3, #12
 8004d54:	697a      	ldr	r2, [r7, #20]
 8004d56:	4313      	orrs	r3, r2
 8004d58:	617b      	str	r3, [r7, #20]

  /* Select the Polarity and set the CC2E Bit */
  tmpccer &= ~(TIM_CCER_CC2P | TIM_CCER_CC2NP);
 8004d5a:	693b      	ldr	r3, [r7, #16]
 8004d5c:	f023 03a0 	bic.w	r3, r3, #160	; 0xa0
 8004d60:	613b      	str	r3, [r7, #16]
  tmpccer |= (TIM_ICPolarity << 4U);
 8004d62:	68bb      	ldr	r3, [r7, #8]
 8004d64:	011b      	lsls	r3, r3, #4
 8004d66:	693a      	ldr	r2, [r7, #16]
 8004d68:	4313      	orrs	r3, r2
 8004d6a:	613b      	str	r3, [r7, #16]

  /* Write to TIMx CCMR1 and CCER registers */
  TIMx->CCMR1 = tmpccmr1 ;
 8004d6c:	68fb      	ldr	r3, [r7, #12]
 8004d6e:	697a      	ldr	r2, [r7, #20]
 8004d70:	619a      	str	r2, [r3, #24]
  TIMx->CCER = tmpccer;
 8004d72:	68fb      	ldr	r3, [r7, #12]
 8004d74:	693a      	ldr	r2, [r7, #16]
 8004d76:	621a      	str	r2, [r3, #32]
}
 8004d78:	bf00      	nop
 8004d7a:	371c      	adds	r7, #28
 8004d7c:	46bd      	mov	sp, r7
 8004d7e:	bc80      	pop	{r7}
 8004d80:	4770      	bx	lr

08004d82 <TIM_ITRx_SetConfig>:
  *            @arg TIM_TS_TI2FP2: Filtered Timer Input 2
  *            @arg TIM_TS_ETRF: External Trigger input
  * @retval None
  */
static void TIM_ITRx_SetConfig(TIM_TypeDef *TIMx, uint32_t InputTriggerSource)
{
 8004d82:	b480      	push	{r7}
 8004d84:	b085      	sub	sp, #20
 8004d86:	af00      	add	r7, sp, #0
 8004d88:	6078      	str	r0, [r7, #4]
 8004d8a:	6039      	str	r1, [r7, #0]
  uint32_t tmpsmcr;

  /* Get the TIMx SMCR register value */
  tmpsmcr = TIMx->SMCR;
 8004d8c:	687b      	ldr	r3, [r7, #4]
 8004d8e:	689b      	ldr	r3, [r3, #8]
 8004d90:	60fb      	str	r3, [r7, #12]
  /* Reset the TS Bits */
  tmpsmcr &= ~TIM_SMCR_TS;
 8004d92:	68fb      	ldr	r3, [r7, #12]
 8004d94:	f023 0370 	bic.w	r3, r3, #112	; 0x70
 8004d98:	60fb      	str	r3, [r7, #12]
  /* Set the Input Trigger source and the slave mode*/
  tmpsmcr |= (InputTriggerSource | TIM_SLAVEMODE_EXTERNAL1);
 8004d9a:	683a      	ldr	r2, [r7, #0]
 8004d9c:	68fb      	ldr	r3, [r7, #12]
 8004d9e:	4313      	orrs	r3, r2
 8004da0:	f043 0307 	orr.w	r3, r3, #7
 8004da4:	60fb      	str	r3, [r7, #12]
  /* Write to TIMx SMCR */
  TIMx->SMCR = tmpsmcr;
 8004da6:	687b      	ldr	r3, [r7, #4]
 8004da8:	68fa      	ldr	r2, [r7, #12]
 8004daa:	609a      	str	r2, [r3, #8]
}
 8004dac:	bf00      	nop
 8004dae:	3714      	adds	r7, #20
 8004db0:	46bd      	mov	sp, r7
 8004db2:	bc80      	pop	{r7}
 8004db4:	4770      	bx	lr

08004db6 <TIM_ETR_SetConfig>:
  *          This parameter must be a value between 0x00 and 0x0F
  * @retval None
  */
void TIM_ETR_SetConfig(TIM_TypeDef *TIMx, uint32_t TIM_ExtTRGPrescaler,
                       uint32_t TIM_ExtTRGPolarity, uint32_t ExtTRGFilter)
{
 8004db6:	b480      	push	{r7}
 8004db8:	b087      	sub	sp, #28
 8004dba:	af00      	add	r7, sp, #0
 8004dbc:	60f8      	str	r0, [r7, #12]
 8004dbe:	60b9      	str	r1, [r7, #8]
 8004dc0:	607a      	str	r2, [r7, #4]
 8004dc2:	603b      	str	r3, [r7, #0]
  uint32_t tmpsmcr;

  tmpsmcr = TIMx->SMCR;
 8004dc4:	68fb      	ldr	r3, [r7, #12]
 8004dc6:	689b      	ldr	r3, [r3, #8]
 8004dc8:	617b      	str	r3, [r7, #20]

  /* Reset the ETR Bits */
  tmpsmcr &= ~(TIM_SMCR_ETF | TIM_SMCR_ETPS | TIM_SMCR_ECE | TIM_SMCR_ETP);
 8004dca:	697b      	ldr	r3, [r7, #20]
 8004dcc:	f423 437f 	bic.w	r3, r3, #65280	; 0xff00
 8004dd0:	617b      	str	r3, [r7, #20]

  /* Set the Prescaler, the Filter value and the Polarity */
  tmpsmcr |= (uint32_t)(TIM_ExtTRGPrescaler | (TIM_ExtTRGPolarity | (ExtTRGFilter << 8U)));
 8004dd2:	683b      	ldr	r3, [r7, #0]
 8004dd4:	021a      	lsls	r2, r3, #8
 8004dd6:	687b      	ldr	r3, [r7, #4]
 8004dd8:	431a      	orrs	r2, r3
 8004dda:	68bb      	ldr	r3, [r7, #8]
 8004ddc:	4313      	orrs	r3, r2
 8004dde:	697a      	ldr	r2, [r7, #20]
 8004de0:	4313      	orrs	r3, r2
 8004de2:	617b      	str	r3, [r7, #20]

  /* Write to TIMx SMCR */
  TIMx->SMCR = tmpsmcr;
 8004de4:	68fb      	ldr	r3, [r7, #12]
 8004de6:	697a      	ldr	r2, [r7, #20]
 8004de8:	609a      	str	r2, [r3, #8]
}
 8004dea:	bf00      	nop
 8004dec:	371c      	adds	r7, #28
 8004dee:	46bd      	mov	sp, r7
 8004df0:	bc80      	pop	{r7}
 8004df2:	4770      	bx	lr

08004df4 <HAL_TIMEx_MasterConfigSynchronization>:
  *         mode.
  * @retval HAL status
  */
HAL_StatusTypeDef HAL_TIMEx_MasterConfigSynchronization(TIM_HandleTypeDef *htim,
                                                        TIM_MasterConfigTypeDef *sMasterConfig)
{
 8004df4:	b480      	push	{r7}
 8004df6:	b085      	sub	sp, #20
 8004df8:	af00      	add	r7, sp, #0
 8004dfa:	6078      	str	r0, [r7, #4]
 8004dfc:	6039      	str	r1, [r7, #0]
  assert_param(IS_TIM_SYNCHRO_INSTANCE(htim->Instance));
  assert_param(IS_TIM_TRGO_SOURCE(sMasterConfig->MasterOutputTrigger));
  assert_param(IS_TIM_MSM_STATE(sMasterConfig->MasterSlaveMode));

  /* Check input state */
  __HAL_LOCK(htim);
 8004dfe:	687b      	ldr	r3, [r7, #4]
 8004e00:	f893 303c 	ldrb.w	r3, [r3, #60]	; 0x3c
 8004e04:	2b01      	cmp	r3, #1
 8004e06:	d101      	bne.n	8004e0c <HAL_TIMEx_MasterConfigSynchronization+0x18>
 8004e08:	2302      	movs	r3, #2
 8004e0a:	e032      	b.n	8004e72 <HAL_TIMEx_MasterConfigSynchronization+0x7e>
 8004e0c:	687b      	ldr	r3, [r7, #4]
 8004e0e:	2201      	movs	r2, #1
 8004e10:	f883 203c 	strb.w	r2, [r3, #60]	; 0x3c

  /* Change the handler state */
  htim->State = HAL_TIM_STATE_BUSY;
 8004e14:	687b      	ldr	r3, [r7, #4]
 8004e16:	2202      	movs	r2, #2
 8004e18:	f883 203d 	strb.w	r2, [r3, #61]	; 0x3d

  /* Get the TIMx CR2 register value */
  tmpcr2 = htim->Instance->CR2;
 8004e1c:	687b      	ldr	r3, [r7, #4]
 8004e1e:	681b      	ldr	r3, [r3, #0]
 8004e20:	685b      	ldr	r3, [r3, #4]
 8004e22:	60fb      	str	r3, [r7, #12]

  /* Get the TIMx SMCR register value */
  tmpsmcr = htim->Instance->SMCR;
 8004e24:	687b      	ldr	r3, [r7, #4]
 8004e26:	681b      	ldr	r3, [r3, #0]
 8004e28:	689b      	ldr	r3, [r3, #8]
 8004e2a:	60bb      	str	r3, [r7, #8]

  /* Reset the MMS Bits */
  tmpcr2 &= ~TIM_CR2_MMS;
 8004e2c:	68fb      	ldr	r3, [r7, #12]
 8004e2e:	f023 0370 	bic.w	r3, r3, #112	; 0x70
 8004e32:	60fb      	str	r3, [r7, #12]
  /* Select the TRGO source */
  tmpcr2 |=  sMasterConfig->MasterOutputTrigger;
 8004e34:	683b      	ldr	r3, [r7, #0]
 8004e36:	681b      	ldr	r3, [r3, #0]
 8004e38:	68fa      	ldr	r2, [r7, #12]
 8004e3a:	4313      	orrs	r3, r2
 8004e3c:	60fb      	str	r3, [r7, #12]

  /* Reset the MSM Bit */
  tmpsmcr &= ~TIM_SMCR_MSM;
 8004e3e:	68bb      	ldr	r3, [r7, #8]
 8004e40:	f023 0380 	bic.w	r3, r3, #128	; 0x80
 8004e44:	60bb      	str	r3, [r7, #8]
  /* Set master mode */
  tmpsmcr |= sMasterConfig->MasterSlaveMode;
 8004e46:	683b      	ldr	r3, [r7, #0]
 8004e48:	685b      	ldr	r3, [r3, #4]
 8004e4a:	68ba      	ldr	r2, [r7, #8]
 8004e4c:	4313      	orrs	r3, r2
 8004e4e:	60bb      	str	r3, [r7, #8]

  /* Update TIMx CR2 */
  htim->Instance->CR2 = tmpcr2;
 8004e50:	687b      	ldr	r3, [r7, #4]
 8004e52:	681b      	ldr	r3, [r3, #0]
 8004e54:	68fa      	ldr	r2, [r7, #12]
 8004e56:	605a      	str	r2, [r3, #4]

  /* Update TIMx SMCR */
  htim->Instance->SMCR = tmpsmcr;
 8004e58:	687b      	ldr	r3, [r7, #4]
 8004e5a:	681b      	ldr	r3, [r3, #0]
 8004e5c:	68ba      	ldr	r2, [r7, #8]
 8004e5e:	609a      	str	r2, [r3, #8]

  /* Change the htim state */
  htim->State = HAL_TIM_STATE_READY;
 8004e60:	687b      	ldr	r3, [r7, #4]
 8004e62:	2201      	movs	r2, #1
 8004e64:	f883 203d 	strb.w	r2, [r3, #61]	; 0x3d

  __HAL_UNLOCK(htim);
 8004e68:	687b      	ldr	r3, [r7, #4]
 8004e6a:	2200      	movs	r2, #0
 8004e6c:	f883 203c 	strb.w	r2, [r3, #60]	; 0x3c

  return HAL_OK;
 8004e70:	2300      	movs	r3, #0
}
 8004e72:	4618      	mov	r0, r3
 8004e74:	3714      	adds	r7, #20
 8004e76:	46bd      	mov	sp, r7
 8004e78:	bc80      	pop	{r7}
 8004e7a:	4770      	bx	lr

08004e7c <HAL_TIMEx_CommutCallback>:
  * @brief  Hall commutation changed callback in non-blocking mode
  * @param  htim TIM handle
  * @retval None
  */
__weak void HAL_TIMEx_CommutCallback(TIM_HandleTypeDef *htim)
{
 8004e7c:	b480      	push	{r7}
 8004e7e:	b083      	sub	sp, #12
 8004e80:	af00      	add	r7, sp, #0
 8004e82:	6078      	str	r0, [r7, #4]
  UNUSED(htim);

  /* NOTE : This function should not be modified, when the callback is needed,
            the HAL_TIMEx_CommutCallback could be implemented in the user file
   */
}
 8004e84:	bf00      	nop
 8004e86:	370c      	adds	r7, #12
 8004e88:	46bd      	mov	sp, r7
 8004e8a:	bc80      	pop	{r7}
 8004e8c:	4770      	bx	lr

08004e8e <HAL_TIMEx_BreakCallback>:
  * @brief  Hall Break detection callback in non-blocking mode
  * @param  htim TIM handle
  * @retval None
  */
__weak void HAL_TIMEx_BreakCallback(TIM_HandleTypeDef *htim)
{
 8004e8e:	b480      	push	{r7}
 8004e90:	b083      	sub	sp, #12
 8004e92:	af00      	add	r7, sp, #0
 8004e94:	6078      	str	r0, [r7, #4]
  UNUSED(htim);

  /* NOTE : This function should not be modified, when the callback is needed,
            the HAL_TIMEx_BreakCallback could be implemented in the user file
   */
}
 8004e96:	bf00      	nop
 8004e98:	370c      	adds	r7, #12
 8004e9a:	46bd      	mov	sp, r7
 8004e9c:	bc80      	pop	{r7}
 8004e9e:	4770      	bx	lr

08004ea0 <HAL_UART_Init>:
  * @param  huart  Pointer to a UART_HandleTypeDef structure that contains
  *                the configuration information for the specified UART module.
  * @retval HAL status
  */
HAL_StatusTypeDef HAL_UART_Init(UART_HandleTypeDef *huart)
{
 8004ea0:	b580      	push	{r7, lr}
 8004ea2:	b082      	sub	sp, #8
 8004ea4:	af00      	add	r7, sp, #0
 8004ea6:	6078      	str	r0, [r7, #4]
  /* Check the UART handle allocation */
  if (huart == NULL)
 8004ea8:	687b      	ldr	r3, [r7, #4]
 8004eaa:	2b00      	cmp	r3, #0
 8004eac:	d101      	bne.n	8004eb2 <HAL_UART_Init+0x12>
  {
    return HAL_ERROR;
 8004eae:	2301      	movs	r3, #1
 8004eb0:	e03f      	b.n	8004f32 <HAL_UART_Init+0x92>
  assert_param(IS_UART_WORD_LENGTH(huart->Init.WordLength));
#if defined(USART_CR1_OVER8)
  assert_param(IS_UART_OVERSAMPLING(huart->Init.OverSampling));
#endif /* USART_CR1_OVER8 */

  if (huart->gState == HAL_UART_STATE_RESET)
 8004eb2:	687b      	ldr	r3, [r7, #4]
 8004eb4:	f893 3039 	ldrb.w	r3, [r3, #57]	; 0x39
 8004eb8:	b2db      	uxtb	r3, r3
 8004eba:	2b00      	cmp	r3, #0
 8004ebc:	d106      	bne.n	8004ecc <HAL_UART_Init+0x2c>
  {
    /* Allocate lock resource and initialize it */
    huart->Lock = HAL_UNLOCKED;
 8004ebe:	687b      	ldr	r3, [r7, #4]
 8004ec0:	2200      	movs	r2, #0
 8004ec2:	f883 2038 	strb.w	r2, [r3, #56]	; 0x38

    /* Init the low level hardware */
    huart->MspInitCallback(huart);
#else
    /* Init the low level hardware : GPIO, CLOCK */
    HAL_UART_MspInit(huart);
 8004ec6:	6878      	ldr	r0, [r7, #4]
 8004ec8:	f7fc fd1a 	bl	8001900 <HAL_UART_MspInit>
#endif /* (USE_HAL_UART_REGISTER_CALLBACKS) */
  }

  huart->gState = HAL_UART_STATE_BUSY;
 8004ecc:	687b      	ldr	r3, [r7, #4]
 8004ece:	2224      	movs	r2, #36	; 0x24
 8004ed0:	f883 2039 	strb.w	r2, [r3, #57]	; 0x39

  /* Disable the peripheral */
  __HAL_UART_DISABLE(huart);
 8004ed4:	687b      	ldr	r3, [r7, #4]
 8004ed6:	681b      	ldr	r3, [r3, #0]
 8004ed8:	68da      	ldr	r2, [r3, #12]
 8004eda:	687b      	ldr	r3, [r7, #4]
 8004edc:	681b      	ldr	r3, [r3, #0]
 8004ede:	f422 5200 	bic.w	r2, r2, #8192	; 0x2000
 8004ee2:	60da      	str	r2, [r3, #12]

  /* Set the UART Communication parameters */
  UART_SetConfig(huart);
 8004ee4:	6878      	ldr	r0, [r7, #4]
 8004ee6:	f000 f829 	bl	8004f3c <UART_SetConfig>

  /* In asynchronous mode, the following bits must be kept cleared:
     - LINEN and CLKEN bits in the USART_CR2 register,
     - SCEN, HDSEL and IREN  bits in the USART_CR3 register.*/
  CLEAR_BIT(huart->Instance->CR2, (USART_CR2_LINEN | USART_CR2_CLKEN));
 8004eea:	687b      	ldr	r3, [r7, #4]
 8004eec:	681b      	ldr	r3, [r3, #0]
 8004eee:	691a      	ldr	r2, [r3, #16]
 8004ef0:	687b      	ldr	r3, [r7, #4]
 8004ef2:	681b      	ldr	r3, [r3, #0]
 8004ef4:	f422 4290 	bic.w	r2, r2, #18432	; 0x4800
 8004ef8:	611a      	str	r2, [r3, #16]
  CLEAR_BIT(huart->Instance->CR3, (USART_CR3_SCEN | USART_CR3_HDSEL | USART_CR3_IREN));
 8004efa:	687b      	ldr	r3, [r7, #4]
 8004efc:	681b      	ldr	r3, [r3, #0]
 8004efe:	695a      	ldr	r2, [r3, #20]
 8004f00:	687b      	ldr	r3, [r7, #4]
 8004f02:	681b      	ldr	r3, [r3, #0]
 8004f04:	f022 022a 	bic.w	r2, r2, #42	; 0x2a
 8004f08:	615a      	str	r2, [r3, #20]

  /* Enable the peripheral */
  __HAL_UART_ENABLE(huart);
 8004f0a:	687b      	ldr	r3, [r7, #4]
 8004f0c:	681b      	ldr	r3, [r3, #0]
 8004f0e:	68da      	ldr	r2, [r3, #12]
 8004f10:	687b      	ldr	r3, [r7, #4]
 8004f12:	681b      	ldr	r3, [r3, #0]
 8004f14:	f442 5200 	orr.w	r2, r2, #8192	; 0x2000
 8004f18:	60da      	str	r2, [r3, #12]

  /* Initialize the UART state */
  huart->ErrorCode = HAL_UART_ERROR_NONE;
 8004f1a:	687b      	ldr	r3, [r7, #4]
 8004f1c:	2200      	movs	r2, #0
 8004f1e:	63da      	str	r2, [r3, #60]	; 0x3c
  huart->gState = HAL_UART_STATE_READY;
 8004f20:	687b      	ldr	r3, [r7, #4]
 8004f22:	2220      	movs	r2, #32
 8004f24:	f883 2039 	strb.w	r2, [r3, #57]	; 0x39
  huart->RxState = HAL_UART_STATE_READY;
 8004f28:	687b      	ldr	r3, [r7, #4]
 8004f2a:	2220      	movs	r2, #32
 8004f2c:	f883 203a 	strb.w	r2, [r3, #58]	; 0x3a

  return HAL_OK;
 8004f30:	2300      	movs	r3, #0
}
 8004f32:	4618      	mov	r0, r3
 8004f34:	3708      	adds	r7, #8
 8004f36:	46bd      	mov	sp, r7
 8004f38:	bd80      	pop	{r7, pc}
	...

08004f3c <UART_SetConfig>:
  * @param  huart  Pointer to a UART_HandleTypeDef structure that contains
  *                the configuration information for the specified UART module.
  * @retval None
  */
static void UART_SetConfig(UART_HandleTypeDef *huart)
{
 8004f3c:	b580      	push	{r7, lr}
 8004f3e:	b084      	sub	sp, #16
 8004f40:	af00      	add	r7, sp, #0
 8004f42:	6078      	str	r0, [r7, #4]
  assert_param(IS_UART_MODE(huart->Init.Mode));

  /*-------------------------- USART CR2 Configuration -----------------------*/
  /* Configure the UART Stop Bits: Set STOP[13:12] bits
     according to huart->Init.StopBits value */
  MODIFY_REG(huart->Instance->CR2, USART_CR2_STOP, huart->Init.StopBits);
 8004f44:	687b      	ldr	r3, [r7, #4]
 8004f46:	681b      	ldr	r3, [r3, #0]
 8004f48:	691b      	ldr	r3, [r3, #16]
 8004f4a:	f423 5140 	bic.w	r1, r3, #12288	; 0x3000
 8004f4e:	687b      	ldr	r3, [r7, #4]
 8004f50:	68da      	ldr	r2, [r3, #12]
 8004f52:	687b      	ldr	r3, [r7, #4]
 8004f54:	681b      	ldr	r3, [r3, #0]
 8004f56:	430a      	orrs	r2, r1
 8004f58:	611a      	str	r2, [r3, #16]
  tmpreg = (uint32_t)huart->Init.WordLength | huart->Init.Parity | huart->Init.Mode | huart->Init.OverSampling;
  MODIFY_REG(huart->Instance->CR1,
             (uint32_t)(USART_CR1_M | USART_CR1_PCE | USART_CR1_PS | USART_CR1_TE | USART_CR1_RE | USART_CR1_OVER8),
             tmpreg);
#else
  tmpreg = (uint32_t)huart->Init.WordLength | huart->Init.Parity | huart->Init.Mode;
 8004f5a:	687b      	ldr	r3, [r7, #4]
 8004f5c:	689a      	ldr	r2, [r3, #8]
 8004f5e:	687b      	ldr	r3, [r7, #4]
 8004f60:	691b      	ldr	r3, [r3, #16]
 8004f62:	431a      	orrs	r2, r3
 8004f64:	687b      	ldr	r3, [r7, #4]
 8004f66:	695b      	ldr	r3, [r3, #20]
 8004f68:	4313      	orrs	r3, r2
 8004f6a:	60fb      	str	r3, [r7, #12]
  MODIFY_REG(huart->Instance->CR1,
 8004f6c:	687b      	ldr	r3, [r7, #4]
 8004f6e:	681b      	ldr	r3, [r3, #0]
 8004f70:	68db      	ldr	r3, [r3, #12]
 8004f72:	f423 53b0 	bic.w	r3, r3, #5632	; 0x1600
 8004f76:	f023 030c 	bic.w	r3, r3, #12
 8004f7a:	687a      	ldr	r2, [r7, #4]
 8004f7c:	6812      	ldr	r2, [r2, #0]
 8004f7e:	68f9      	ldr	r1, [r7, #12]
 8004f80:	430b      	orrs	r3, r1
 8004f82:	60d3      	str	r3, [r2, #12]
             tmpreg);
#endif /* USART_CR1_OVER8 */

  /*-------------------------- USART CR3 Configuration -----------------------*/
  /* Configure the UART HFC: Set CTSE and RTSE bits according to huart->Init.HwFlowCtl value */
  MODIFY_REG(huart->Instance->CR3, (USART_CR3_RTSE | USART_CR3_CTSE), huart->Init.HwFlowCtl);
 8004f84:	687b      	ldr	r3, [r7, #4]
 8004f86:	681b      	ldr	r3, [r3, #0]
 8004f88:	695b      	ldr	r3, [r3, #20]
 8004f8a:	f423 7140 	bic.w	r1, r3, #768	; 0x300
 8004f8e:	687b      	ldr	r3, [r7, #4]
 8004f90:	699a      	ldr	r2, [r3, #24]
 8004f92:	687b      	ldr	r3, [r7, #4]
 8004f94:	681b      	ldr	r3, [r3, #0]
 8004f96:	430a      	orrs	r2, r1
 8004f98:	615a      	str	r2, [r3, #20]
      huart->Instance->BRR = UART_BRR_SAMPLING16(pclk, huart->Init.BaudRate);
    }
  }
#else
  /*-------------------------- USART BRR Configuration ---------------------*/
  if(huart->Instance == USART1)
 8004f9a:	687b      	ldr	r3, [r7, #4]
 8004f9c:	681b      	ldr	r3, [r3, #0]
 8004f9e:	4a52      	ldr	r2, [pc, #328]	; (80050e8 <UART_SetConfig+0x1ac>)
 8004fa0:	4293      	cmp	r3, r2
 8004fa2:	d14e      	bne.n	8005042 <UART_SetConfig+0x106>
  {
    pclk = HAL_RCC_GetPCLK2Freq();
 8004fa4:	f7fd fe48 	bl	8002c38 <HAL_RCC_GetPCLK2Freq>
 8004fa8:	60b8      	str	r0, [r7, #8]
    huart->Instance->BRR = UART_BRR_SAMPLING16(pclk, huart->Init.BaudRate);
 8004faa:	68ba      	ldr	r2, [r7, #8]
 8004fac:	4613      	mov	r3, r2
 8004fae:	009b      	lsls	r3, r3, #2
 8004fb0:	4413      	add	r3, r2
 8004fb2:	009a      	lsls	r2, r3, #2
 8004fb4:	441a      	add	r2, r3
 8004fb6:	687b      	ldr	r3, [r7, #4]
 8004fb8:	685b      	ldr	r3, [r3, #4]
 8004fba:	009b      	lsls	r3, r3, #2
 8004fbc:	fbb2 f3f3 	udiv	r3, r2, r3
 8004fc0:	4a4a      	ldr	r2, [pc, #296]	; (80050ec <UART_SetConfig+0x1b0>)
 8004fc2:	fba2 2303 	umull	r2, r3, r2, r3
 8004fc6:	095b      	lsrs	r3, r3, #5
 8004fc8:	0119      	lsls	r1, r3, #4
 8004fca:	68ba      	ldr	r2, [r7, #8]
 8004fcc:	4613      	mov	r3, r2
 8004fce:	009b      	lsls	r3, r3, #2
 8004fd0:	4413      	add	r3, r2
 8004fd2:	009a      	lsls	r2, r3, #2
 8004fd4:	441a      	add	r2, r3
 8004fd6:	687b      	ldr	r3, [r7, #4]
 8004fd8:	685b      	ldr	r3, [r3, #4]
 8004fda:	009b      	lsls	r3, r3, #2
 8004fdc:	fbb2 f2f3 	udiv	r2, r2, r3
 8004fe0:	4b42      	ldr	r3, [pc, #264]	; (80050ec <UART_SetConfig+0x1b0>)
 8004fe2:	fba3 0302 	umull	r0, r3, r3, r2
 8004fe6:	095b      	lsrs	r3, r3, #5
 8004fe8:	2064      	movs	r0, #100	; 0x64
 8004fea:	fb00 f303 	mul.w	r3, r0, r3
 8004fee:	1ad3      	subs	r3, r2, r3
 8004ff0:	011b      	lsls	r3, r3, #4
 8004ff2:	3332      	adds	r3, #50	; 0x32
 8004ff4:	4a3d      	ldr	r2, [pc, #244]	; (80050ec <UART_SetConfig+0x1b0>)
 8004ff6:	fba2 2303 	umull	r2, r3, r2, r3
 8004ffa:	095b      	lsrs	r3, r3, #5
 8004ffc:	f003 03f0 	and.w	r3, r3, #240	; 0xf0
 8005000:	4419      	add	r1, r3
 8005002:	68ba      	ldr	r2, [r7, #8]
 8005004:	4613      	mov	r3, r2
 8005006:	009b      	lsls	r3, r3, #2
 8005008:	4413      	add	r3, r2
 800500a:	009a      	lsls	r2, r3, #2
 800500c:	441a      	add	r2, r3
 800500e:	687b      	ldr	r3, [r7, #4]
 8005010:	685b      	ldr	r3, [r3, #4]
 8005012:	009b      	lsls	r3, r3, #2
 8005014:	fbb2 f2f3 	udiv	r2, r2, r3
 8005018:	4b34      	ldr	r3, [pc, #208]	; (80050ec <UART_SetConfig+0x1b0>)
 800501a:	fba3 0302 	umull	r0, r3, r3, r2
 800501e:	095b      	lsrs	r3, r3, #5
 8005020:	2064      	movs	r0, #100	; 0x64
 8005022:	fb00 f303 	mul.w	r3, r0, r3
 8005026:	1ad3      	subs	r3, r2, r3
 8005028:	011b      	lsls	r3, r3, #4
 800502a:	3332      	adds	r3, #50	; 0x32
 800502c:	4a2f      	ldr	r2, [pc, #188]	; (80050ec <UART_SetConfig+0x1b0>)
 800502e:	fba2 2303 	umull	r2, r3, r2, r3
 8005032:	095b      	lsrs	r3, r3, #5
 8005034:	f003 020f 	and.w	r2, r3, #15
 8005038:	687b      	ldr	r3, [r7, #4]
 800503a:	681b      	ldr	r3, [r3, #0]
 800503c:	440a      	add	r2, r1
 800503e:	609a      	str	r2, [r3, #8]
  {
    pclk = HAL_RCC_GetPCLK1Freq();
    huart->Instance->BRR = UART_BRR_SAMPLING16(pclk, huart->Init.BaudRate);
  }
#endif /* USART_CR1_OVER8 */
}
 8005040:	e04d      	b.n	80050de <UART_SetConfig+0x1a2>
    pclk = HAL_RCC_GetPCLK1Freq();
 8005042:	f7fd fde5 	bl	8002c10 <HAL_RCC_GetPCLK1Freq>
 8005046:	60b8      	str	r0, [r7, #8]
    huart->Instance->BRR = UART_BRR_SAMPLING16(pclk, huart->Init.BaudRate);
 8005048:	68ba      	ldr	r2, [r7, #8]
 800504a:	4613      	mov	r3, r2
 800504c:	009b      	lsls	r3, r3, #2
 800504e:	4413      	add	r3, r2
 8005050:	009a      	lsls	r2, r3, #2
 8005052:	441a      	add	r2, r3
 8005054:	687b      	ldr	r3, [r7, #4]
 8005056:	685b      	ldr	r3, [r3, #4]
 8005058:	009b      	lsls	r3, r3, #2
 800505a:	fbb2 f3f3 	udiv	r3, r2, r3
 800505e:	4a23      	ldr	r2, [pc, #140]	; (80050ec <UART_SetConfig+0x1b0>)
 8005060:	fba2 2303 	umull	r2, r3, r2, r3
 8005064:	095b      	lsrs	r3, r3, #5
 8005066:	0119      	lsls	r1, r3, #4
 8005068:	68ba      	ldr	r2, [r7, #8]
 800506a:	4613      	mov	r3, r2
 800506c:	009b      	lsls	r3, r3, #2
 800506e:	4413      	add	r3, r2
 8005070:	009a      	lsls	r2, r3, #2
 8005072:	441a      	add	r2, r3
 8005074:	687b      	ldr	r3, [r7, #4]
 8005076:	685b      	ldr	r3, [r3, #4]
 8005078:	009b      	lsls	r3, r3, #2
 800507a:	fbb2 f2f3 	udiv	r2, r2, r3
 800507e:	4b1b      	ldr	r3, [pc, #108]	; (80050ec <UART_SetConfig+0x1b0>)
 8005080:	fba3 0302 	umull	r0, r3, r3, r2
 8005084:	095b      	lsrs	r3, r3, #5
 8005086:	2064      	movs	r0, #100	; 0x64
 8005088:	fb00 f303 	mul.w	r3, r0, r3
 800508c:	1ad3      	subs	r3, r2, r3
 800508e:	011b      	lsls	r3, r3, #4
 8005090:	3332      	adds	r3, #50	; 0x32
 8005092:	4a16      	ldr	r2, [pc, #88]	; (80050ec <UART_SetConfig+0x1b0>)
 8005094:	fba2 2303 	umull	r2, r3, r2, r3
 8005098:	095b      	lsrs	r3, r3, #5
 800509a:	f003 03f0 	and.w	r3, r3, #240	; 0xf0
 800509e:	4419      	add	r1, r3
 80050a0:	68ba      	ldr	r2, [r7, #8]
 80050a2:	4613      	mov	r3, r2
 80050a4:	009b      	lsls	r3, r3, #2
 80050a6:	4413      	add	r3, r2
 80050a8:	009a      	lsls	r2, r3, #2
 80050aa:	441a      	add	r2, r3
 80050ac:	687b      	ldr	r3, [r7, #4]
 80050ae:	685b      	ldr	r3, [r3, #4]
 80050b0:	009b      	lsls	r3, r3, #2
 80050b2:	fbb2 f2f3 	udiv	r2, r2, r3
 80050b6:	4b0d      	ldr	r3, [pc, #52]	; (80050ec <UART_SetConfig+0x1b0>)
 80050b8:	fba3 0302 	umull	r0, r3, r3, r2
 80050bc:	095b      	lsrs	r3, r3, #5
 80050be:	2064      	movs	r0, #100	; 0x64
 80050c0:	fb00 f303 	mul.w	r3, r0, r3
 80050c4:	1ad3      	subs	r3, r2, r3
 80050c6:	011b      	lsls	r3, r3, #4
 80050c8:	3332      	adds	r3, #50	; 0x32
 80050ca:	4a08      	ldr	r2, [pc, #32]	; (80050ec <UART_SetConfig+0x1b0>)
 80050cc:	fba2 2303 	umull	r2, r3, r2, r3
 80050d0:	095b      	lsrs	r3, r3, #5
 80050d2:	f003 020f 	and.w	r2, r3, #15
 80050d6:	687b      	ldr	r3, [r7, #4]
 80050d8:	681b      	ldr	r3, [r3, #0]
 80050da:	440a      	add	r2, r1
 80050dc:	609a      	str	r2, [r3, #8]
}
 80050de:	bf00      	nop
 80050e0:	3710      	adds	r7, #16
 80050e2:	46bd      	mov	sp, r7
 80050e4:	bd80      	pop	{r7, pc}
 80050e6:	bf00      	nop
 80050e8:	40013800 	.word	0x40013800
 80050ec:	51eb851f 	.word	0x51eb851f

080050f0 <__libc_init_array>:
 80050f0:	b570      	push	{r4, r5, r6, lr}
 80050f2:	2500      	movs	r5, #0
 80050f4:	4e0c      	ldr	r6, [pc, #48]	; (8005128 <__libc_init_array+0x38>)
 80050f6:	4c0d      	ldr	r4, [pc, #52]	; (800512c <__libc_init_array+0x3c>)
 80050f8:	1ba4      	subs	r4, r4, r6
 80050fa:	10a4      	asrs	r4, r4, #2
 80050fc:	42a5      	cmp	r5, r4
 80050fe:	d109      	bne.n	8005114 <__libc_init_array+0x24>
 8005100:	f000 f822 	bl	8005148 <_init>
 8005104:	2500      	movs	r5, #0
 8005106:	4e0a      	ldr	r6, [pc, #40]	; (8005130 <__libc_init_array+0x40>)
 8005108:	4c0a      	ldr	r4, [pc, #40]	; (8005134 <__libc_init_array+0x44>)
 800510a:	1ba4      	subs	r4, r4, r6
 800510c:	10a4      	asrs	r4, r4, #2
 800510e:	42a5      	cmp	r5, r4
 8005110:	d105      	bne.n	800511e <__libc_init_array+0x2e>
 8005112:	bd70      	pop	{r4, r5, r6, pc}
 8005114:	f856 3025 	ldr.w	r3, [r6, r5, lsl #2]
 8005118:	4798      	blx	r3
 800511a:	3501      	adds	r5, #1
 800511c:	e7ee      	b.n	80050fc <__libc_init_array+0xc>
 800511e:	f856 3025 	ldr.w	r3, [r6, r5, lsl #2]
 8005122:	4798      	blx	r3
 8005124:	3501      	adds	r5, #1
 8005126:	e7f2      	b.n	800510e <__libc_init_array+0x1e>
 8005128:	08005378 	.word	0x08005378
 800512c:	08005378 	.word	0x08005378
 8005130:	08005378 	.word	0x08005378
 8005134:	0800537c 	.word	0x0800537c

08005138 <memset>:
 8005138:	4603      	mov	r3, r0
 800513a:	4402      	add	r2, r0
 800513c:	4293      	cmp	r3, r2
 800513e:	d100      	bne.n	8005142 <memset+0xa>
 8005140:	4770      	bx	lr
 8005142:	f803 1b01 	strb.w	r1, [r3], #1
 8005146:	e7f9      	b.n	800513c <memset+0x4>

08005148 <_init>:
 8005148:	b5f8      	push	{r3, r4, r5, r6, r7, lr}
 800514a:	bf00      	nop
 800514c:	bcf8      	pop	{r3, r4, r5, r6, r7}
 800514e:	bc08      	pop	{r3}
 8005150:	469e      	mov	lr, r3
 8005152:	4770      	bx	lr

08005154 <_fini>:
 8005154:	b5f8      	push	{r3, r4, r5, r6, r7, lr}
 8005156:	bf00      	nop
 8005158:	bcf8      	pop	{r3, r4, r5, r6, r7}
 800515a:	bc08      	pop	{r3}
 800515c:	469e      	mov	lr, r3
 800515e:	4770      	bx	lr
