
tableroPileta_STM32F103C8T6.elf:     file format elf32-littlearm

Sections:
Idx Name          Size      VMA       LMA       File off  Algn
  0 .isr_vector   0000010c  08000000  08000000  00010000  2**0
                  CONTENTS, ALLOC, LOAD, READONLY, DATA
  1 .text         00006af8  0800010c  0800010c  0001010c  2**2
                  CONTENTS, ALLOC, LOAD, READONLY, CODE
  2 .rodata       00000264  08006c04  08006c04  00016c04  2**2
                  CONTENTS, ALLOC, LOAD, READONLY, DATA
  3 .ARM.extab    00000000  08006e68  08006e68  000200f8  2**0
                  CONTENTS
  4 .ARM          00000000  08006e68  08006e68  000200f8  2**0
                  CONTENTS
  5 .preinit_array 00000000  08006e68  08006e68  000200f8  2**0
                  CONTENTS, ALLOC, LOAD, DATA
  6 .init_array   00000004  08006e68  08006e68  00016e68  2**2
                  CONTENTS, ALLOC, LOAD, DATA
  7 .fini_array   00000004  08006e6c  08006e6c  00016e6c  2**2
                  CONTENTS, ALLOC, LOAD, DATA
  8 .data         000000f8  20000000  08006e70  00020000  2**2
                  CONTENTS, ALLOC, LOAD, DATA
  9 .bss          00000658  200000f8  08006f68  000200f8  2**2
                  ALLOC
 10 ._user_heap_stack 00000600  20000750  08006f68  00020750  2**0
                  ALLOC
 11 .ARM.attributes 00000029  00000000  00000000  000200f8  2**0
                  CONTENTS, READONLY
 12 .debug_info   000159f8  00000000  00000000  00020121  2**0
                  CONTENTS, READONLY, DEBUGGING
 13 .debug_abbrev 00003c1e  00000000  00000000  00035b19  2**0
                  CONTENTS, READONLY, DEBUGGING
 14 .debug_aranges 00001440  00000000  00000000  00039738  2**3
                  CONTENTS, READONLY, DEBUGGING
 15 .debug_ranges 00001230  00000000  00000000  0003ab78  2**3
                  CONTENTS, READONLY, DEBUGGING
 16 .debug_macro  0001856a  00000000  00000000  0003bda8  2**0
                  CONTENTS, READONLY, DEBUGGING
 17 .debug_line   000130dc  00000000  00000000  00054312  2**0
                  CONTENTS, READONLY, DEBUGGING
 18 .debug_str    0007c054  00000000  00000000  000673ee  2**0
                  CONTENTS, READONLY, DEBUGGING
 19 .comment      0000007b  00000000  00000000  000e3442  2**0
                  CONTENTS, READONLY
 20 .debug_frame  000052cc  00000000  00000000  000e34c0  2**2
                  CONTENTS, READONLY, DEBUGGING

Disassembly of section .text:

0800010c <__do_global_dtors_aux>:
 800010c:	b510      	push	{r4, lr}
 800010e:	4c05      	ldr	r4, [pc, #20]	; (8000124 <__do_global_dtors_aux+0x18>)
 8000110:	7823      	ldrb	r3, [r4, #0]
 8000112:	b933      	cbnz	r3, 8000122 <__do_global_dtors_aux+0x16>
 8000114:	4b04      	ldr	r3, [pc, #16]	; (8000128 <__do_global_dtors_aux+0x1c>)
 8000116:	b113      	cbz	r3, 800011e <__do_global_dtors_aux+0x12>
 8000118:	4804      	ldr	r0, [pc, #16]	; (800012c <__do_global_dtors_aux+0x20>)
 800011a:	f3af 8000 	nop.w
 800011e:	2301      	movs	r3, #1
 8000120:	7023      	strb	r3, [r4, #0]
 8000122:	bd10      	pop	{r4, pc}
 8000124:	200000f8 	.word	0x200000f8
 8000128:	00000000 	.word	0x00000000
 800012c:	08006bec 	.word	0x08006bec

08000130 <frame_dummy>:
 8000130:	b508      	push	{r3, lr}
 8000132:	4b03      	ldr	r3, [pc, #12]	; (8000140 <frame_dummy+0x10>)
 8000134:	b11b      	cbz	r3, 800013e <frame_dummy+0xe>
 8000136:	4903      	ldr	r1, [pc, #12]	; (8000144 <frame_dummy+0x14>)
 8000138:	4803      	ldr	r0, [pc, #12]	; (8000148 <frame_dummy+0x18>)
 800013a:	f3af 8000 	nop.w
 800013e:	bd08      	pop	{r3, pc}
 8000140:	00000000 	.word	0x00000000
 8000144:	200000fc 	.word	0x200000fc
 8000148:	08006bec 	.word	0x08006bec

0800014c <spi_74HC165_init>:
 800014c:	b480      	push	{r7}
 800014e:	b085      	sub	sp, #20
 8000150:	af00      	add	r7, sp, #0
 8000152:	60f8      	str	r0, [r7, #12]
 8000154:	60b9      	str	r1, [r7, #8]
 8000156:	603b      	str	r3, [r7, #0]
 8000158:	4613      	mov	r3, r2
 800015a:	80fb      	strh	r3, [r7, #6]
 800015c:	4a09      	ldr	r2, [pc, #36]	; (8000184 <spi_74HC165_init+0x38>)
 800015e:	68fb      	ldr	r3, [r7, #12]
 8000160:	6013      	str	r3, [r2, #0]
 8000162:	4a09      	ldr	r2, [pc, #36]	; (8000188 <spi_74HC165_init+0x3c>)
 8000164:	68bb      	ldr	r3, [r7, #8]
 8000166:	6013      	str	r3, [r2, #0]
 8000168:	4a08      	ldr	r2, [pc, #32]	; (800018c <spi_74HC165_init+0x40>)
 800016a:	88fb      	ldrh	r3, [r7, #6]
 800016c:	8013      	strh	r3, [r2, #0]
 800016e:	4a08      	ldr	r2, [pc, #32]	; (8000190 <spi_74HC165_init+0x44>)
 8000170:	683b      	ldr	r3, [r7, #0]
 8000172:	6013      	str	r3, [r2, #0]
 8000174:	4a07      	ldr	r2, [pc, #28]	; (8000194 <spi_74HC165_init+0x48>)
 8000176:	8b3b      	ldrh	r3, [r7, #24]
 8000178:	8013      	strh	r3, [r2, #0]
 800017a:	bf00      	nop
 800017c:	3714      	adds	r7, #20
 800017e:	46bd      	mov	sp, r7
 8000180:	bc80      	pop	{r7}
 8000182:	4770      	bx	lr
 8000184:	20000150 	.word	0x20000150
 8000188:	20000158 	.word	0x20000158
 800018c:	20000154 	.word	0x20000154
 8000190:	20000160 	.word	0x20000160
 8000194:	2000015c 	.word	0x2000015c

08000198 <spi_74HC165_receiveBotones>:
 8000198:	b580      	push	{r7, lr}
 800019a:	b082      	sub	sp, #8
 800019c:	af00      	add	r7, sp, #0
 800019e:	6078      	str	r0, [r7, #4]
 80001a0:	460b      	mov	r3, r1
 80001a2:	807b      	strh	r3, [r7, #2]
 80001a4:	4b15      	ldr	r3, [pc, #84]	; (80001fc <spi_74HC165_receiveBotones+0x64>)
 80001a6:	6818      	ldr	r0, [r3, #0]
 80001a8:	4b15      	ldr	r3, [pc, #84]	; (8000200 <spi_74HC165_receiveBotones+0x68>)
 80001aa:	881b      	ldrh	r3, [r3, #0]
 80001ac:	2200      	movs	r2, #0
 80001ae:	4619      	mov	r1, r3
 80001b0:	f003 fa6d 	bl	800368e <HAL_GPIO_WritePin>
 80001b4:	4b11      	ldr	r3, [pc, #68]	; (80001fc <spi_74HC165_receiveBotones+0x64>)
 80001b6:	6818      	ldr	r0, [r3, #0]
 80001b8:	4b11      	ldr	r3, [pc, #68]	; (8000200 <spi_74HC165_receiveBotones+0x68>)
 80001ba:	881b      	ldrh	r3, [r3, #0]
 80001bc:	2201      	movs	r2, #1
 80001be:	4619      	mov	r1, r3
 80001c0:	f003 fa65 	bl	800368e <HAL_GPIO_WritePin>
 80001c4:	4b0f      	ldr	r3, [pc, #60]	; (8000204 <spi_74HC165_receiveBotones+0x6c>)
 80001c6:	6818      	ldr	r0, [r3, #0]
 80001c8:	4b0f      	ldr	r3, [pc, #60]	; (8000208 <spi_74HC165_receiveBotones+0x70>)
 80001ca:	881b      	ldrh	r3, [r3, #0]
 80001cc:	2200      	movs	r2, #0
 80001ce:	4619      	mov	r1, r3
 80001d0:	f003 fa5d 	bl	800368e <HAL_GPIO_WritePin>
 80001d4:	4b0d      	ldr	r3, [pc, #52]	; (800020c <spi_74HC165_receiveBotones+0x74>)
 80001d6:	6818      	ldr	r0, [r3, #0]
 80001d8:	887a      	ldrh	r2, [r7, #2]
 80001da:	2364      	movs	r3, #100	; 0x64
 80001dc:	6879      	ldr	r1, [r7, #4]
 80001de:	f005 f872 	bl	80052c6 <HAL_SPI_Receive>
 80001e2:	4b08      	ldr	r3, [pc, #32]	; (8000204 <spi_74HC165_receiveBotones+0x6c>)
 80001e4:	6818      	ldr	r0, [r3, #0]
 80001e6:	4b08      	ldr	r3, [pc, #32]	; (8000208 <spi_74HC165_receiveBotones+0x70>)
 80001e8:	881b      	ldrh	r3, [r3, #0]
 80001ea:	2201      	movs	r2, #1
 80001ec:	4619      	mov	r1, r3
 80001ee:	f003 fa4e 	bl	800368e <HAL_GPIO_WritePin>
 80001f2:	bf00      	nop
 80001f4:	3708      	adds	r7, #8
 80001f6:	46bd      	mov	sp, r7
 80001f8:	bd80      	pop	{r7, pc}
 80001fa:	bf00      	nop
 80001fc:	20000158 	.word	0x20000158
 8000200:	20000154 	.word	0x20000154
 8000204:	20000160 	.word	0x20000160
 8000208:	2000015c 	.word	0x2000015c
 800020c:	20000150 	.word	0x20000150

08000210 <spi_74HC165_receiveTeclado>:
 8000210:	b580      	push	{r7, lr}
 8000212:	b084      	sub	sp, #16
 8000214:	af00      	add	r7, sp, #0
 8000216:	6078      	str	r0, [r7, #4]
 8000218:	460b      	mov	r3, r1
 800021a:	807b      	strh	r3, [r7, #2]
 800021c:	4b17      	ldr	r3, [pc, #92]	; (800027c <spi_74HC165_receiveTeclado+0x6c>)
 800021e:	6818      	ldr	r0, [r3, #0]
 8000220:	4b17      	ldr	r3, [pc, #92]	; (8000280 <spi_74HC165_receiveTeclado+0x70>)
 8000222:	881b      	ldrh	r3, [r3, #0]
 8000224:	2200      	movs	r2, #0
 8000226:	4619      	mov	r1, r3
 8000228:	f003 fa31 	bl	800368e <HAL_GPIO_WritePin>
 800022c:	4b13      	ldr	r3, [pc, #76]	; (800027c <spi_74HC165_receiveTeclado+0x6c>)
 800022e:	6818      	ldr	r0, [r3, #0]
 8000230:	4b13      	ldr	r3, [pc, #76]	; (8000280 <spi_74HC165_receiveTeclado+0x70>)
 8000232:	881b      	ldrh	r3, [r3, #0]
 8000234:	2201      	movs	r2, #1
 8000236:	4619      	mov	r1, r3
 8000238:	f003 fa29 	bl	800368e <HAL_GPIO_WritePin>
 800023c:	4b11      	ldr	r3, [pc, #68]	; (8000284 <spi_74HC165_receiveTeclado+0x74>)
 800023e:	6818      	ldr	r0, [r3, #0]
 8000240:	4b11      	ldr	r3, [pc, #68]	; (8000288 <spi_74HC165_receiveTeclado+0x78>)
 8000242:	881b      	ldrh	r3, [r3, #0]
 8000244:	2200      	movs	r2, #0
 8000246:	4619      	mov	r1, r3
 8000248:	f003 fa21 	bl	800368e <HAL_GPIO_WritePin>
 800024c:	4b0f      	ldr	r3, [pc, #60]	; (800028c <spi_74HC165_receiveTeclado+0x7c>)
 800024e:	6818      	ldr	r0, [r3, #0]
 8000250:	f107 010c 	add.w	r1, r7, #12
 8000254:	2364      	movs	r3, #100	; 0x64
 8000256:	2202      	movs	r2, #2
 8000258:	f005 f835 	bl	80052c6 <HAL_SPI_Receive>
 800025c:	4b09      	ldr	r3, [pc, #36]	; (8000284 <spi_74HC165_receiveTeclado+0x74>)
 800025e:	6818      	ldr	r0, [r3, #0]
 8000260:	4b09      	ldr	r3, [pc, #36]	; (8000288 <spi_74HC165_receiveTeclado+0x78>)
 8000262:	881b      	ldrh	r3, [r3, #0]
 8000264:	2201      	movs	r2, #1
 8000266:	4619      	mov	r1, r3
 8000268:	f003 fa11 	bl	800368e <HAL_GPIO_WritePin>
 800026c:	7b7a      	ldrb	r2, [r7, #13]
 800026e:	687b      	ldr	r3, [r7, #4]
 8000270:	701a      	strb	r2, [r3, #0]
 8000272:	bf00      	nop
 8000274:	3710      	adds	r7, #16
 8000276:	46bd      	mov	sp, r7
 8000278:	bd80      	pop	{r7, pc}
 800027a:	bf00      	nop
 800027c:	20000158 	.word	0x20000158
 8000280:	20000154 	.word	0x20000154
 8000284:	20000160 	.word	0x20000160
 8000288:	2000015c 	.word	0x2000015c
 800028c:	20000150 	.word	0x20000150

08000290 <spi_74HC595_init>:
 8000290:	b580      	push	{r7, lr}
 8000292:	b084      	sub	sp, #16
 8000294:	af00      	add	r7, sp, #0
 8000296:	60f8      	str	r0, [r7, #12]
 8000298:	60b9      	str	r1, [r7, #8]
 800029a:	4613      	mov	r3, r2
 800029c:	80fb      	strh	r3, [r7, #6]
 800029e:	4a0a      	ldr	r2, [pc, #40]	; (80002c8 <spi_74HC595_init+0x38>)
 80002a0:	68fb      	ldr	r3, [r7, #12]
 80002a2:	6013      	str	r3, [r2, #0]
 80002a4:	4a09      	ldr	r2, [pc, #36]	; (80002cc <spi_74HC595_init+0x3c>)
 80002a6:	68bb      	ldr	r3, [r7, #8]
 80002a8:	6013      	str	r3, [r2, #0]
 80002aa:	4a09      	ldr	r2, [pc, #36]	; (80002d0 <spi_74HC595_init+0x40>)
 80002ac:	88fb      	ldrh	r3, [r7, #6]
 80002ae:	8013      	strh	r3, [r2, #0]
 80002b0:	4b06      	ldr	r3, [pc, #24]	; (80002cc <spi_74HC595_init+0x3c>)
 80002b2:	6818      	ldr	r0, [r3, #0]
 80002b4:	4b06      	ldr	r3, [pc, #24]	; (80002d0 <spi_74HC595_init+0x40>)
 80002b6:	881b      	ldrh	r3, [r3, #0]
 80002b8:	2200      	movs	r2, #0
 80002ba:	4619      	mov	r1, r3
 80002bc:	f003 f9e7 	bl	800368e <HAL_GPIO_WritePin>
 80002c0:	bf00      	nop
 80002c2:	3710      	adds	r7, #16
 80002c4:	46bd      	mov	sp, r7
 80002c6:	bd80      	pop	{r7, pc}
 80002c8:	20000150 	.word	0x20000150
 80002cc:	20000168 	.word	0x20000168
 80002d0:	20000164 	.word	0x20000164

080002d4 <spi_74HC595_Transmit>:
 80002d4:	b580      	push	{r7, lr}
 80002d6:	b082      	sub	sp, #8
 80002d8:	af00      	add	r7, sp, #0
 80002da:	6078      	str	r0, [r7, #4]
 80002dc:	460b      	mov	r3, r1
 80002de:	807b      	strh	r3, [r7, #2]
 80002e0:	4b0d      	ldr	r3, [pc, #52]	; (8000318 <spi_74HC595_Transmit+0x44>)
 80002e2:	6818      	ldr	r0, [r3, #0]
 80002e4:	887a      	ldrh	r2, [r7, #2]
 80002e6:	2364      	movs	r3, #100	; 0x64
 80002e8:	6879      	ldr	r1, [r7, #4]
 80002ea:	f004 feb8 	bl	800505e <HAL_SPI_Transmit>
 80002ee:	4b0b      	ldr	r3, [pc, #44]	; (800031c <spi_74HC595_Transmit+0x48>)
 80002f0:	6818      	ldr	r0, [r3, #0]
 80002f2:	4b0b      	ldr	r3, [pc, #44]	; (8000320 <spi_74HC595_Transmit+0x4c>)
 80002f4:	881b      	ldrh	r3, [r3, #0]
 80002f6:	2201      	movs	r2, #1
 80002f8:	4619      	mov	r1, r3
 80002fa:	f003 f9c8 	bl	800368e <HAL_GPIO_WritePin>
 80002fe:	4b07      	ldr	r3, [pc, #28]	; (800031c <spi_74HC595_Transmit+0x48>)
 8000300:	6818      	ldr	r0, [r3, #0]
 8000302:	4b07      	ldr	r3, [pc, #28]	; (8000320 <spi_74HC595_Transmit+0x4c>)
 8000304:	881b      	ldrh	r3, [r3, #0]
 8000306:	2200      	movs	r2, #0
 8000308:	4619      	mov	r1, r3
 800030a:	f003 f9c0 	bl	800368e <HAL_GPIO_WritePin>
 800030e:	bf00      	nop
 8000310:	3708      	adds	r7, #8
 8000312:	46bd      	mov	sp, r7
 8000314:	bd80      	pop	{r7, pc}
 8000316:	bf00      	nop
 8000318:	20000150 	.word	0x20000150
 800031c:	20000168 	.word	0x20000168
 8000320:	20000164 	.word	0x20000164

08000324 <turnONFila>:
 8000324:	b580      	push	{r7, lr}
 8000326:	b082      	sub	sp, #8
 8000328:	af00      	add	r7, sp, #0
 800032a:	4603      	mov	r3, r0
 800032c:	71fb      	strb	r3, [r7, #7]
 800032e:	79fb      	ldrb	r3, [r7, #7]
 8000330:	2b03      	cmp	r3, #3
 8000332:	d862      	bhi.n	80003fa <turnONFila+0xd6>
 8000334:	a201      	add	r2, pc, #4	; (adr r2, 800033c <turnONFila+0x18>)
 8000336:	f852 f023 	ldr.w	pc, [r2, r3, lsl #2]
 800033a:	bf00      	nop
 800033c:	0800034d 	.word	0x0800034d
 8000340:	08000379 	.word	0x08000379
 8000344:	080003a5 	.word	0x080003a5
 8000348:	080003d1 	.word	0x080003d1
 800034c:	2201      	movs	r2, #1
 800034e:	2120      	movs	r1, #32
 8000350:	482c      	ldr	r0, [pc, #176]	; (8000404 <turnONFila+0xe0>)
 8000352:	f003 f99c 	bl	800368e <HAL_GPIO_WritePin>
 8000356:	2201      	movs	r2, #1
 8000358:	2110      	movs	r1, #16
 800035a:	482a      	ldr	r0, [pc, #168]	; (8000404 <turnONFila+0xe0>)
 800035c:	f003 f997 	bl	800368e <HAL_GPIO_WritePin>
 8000360:	2201      	movs	r2, #1
 8000362:	2108      	movs	r1, #8
 8000364:	4827      	ldr	r0, [pc, #156]	; (8000404 <turnONFila+0xe0>)
 8000366:	f003 f992 	bl	800368e <HAL_GPIO_WritePin>
 800036a:	2200      	movs	r2, #0
 800036c:	f44f 4100 	mov.w	r1, #32768	; 0x8000
 8000370:	4825      	ldr	r0, [pc, #148]	; (8000408 <turnONFila+0xe4>)
 8000372:	f003 f98c 	bl	800368e <HAL_GPIO_WritePin>
 8000376:	e041      	b.n	80003fc <turnONFila+0xd8>
 8000378:	2201      	movs	r2, #1
 800037a:	2120      	movs	r1, #32
 800037c:	4821      	ldr	r0, [pc, #132]	; (8000404 <turnONFila+0xe0>)
 800037e:	f003 f986 	bl	800368e <HAL_GPIO_WritePin>
 8000382:	2201      	movs	r2, #1
 8000384:	2110      	movs	r1, #16
 8000386:	481f      	ldr	r0, [pc, #124]	; (8000404 <turnONFila+0xe0>)
 8000388:	f003 f981 	bl	800368e <HAL_GPIO_WritePin>
 800038c:	2200      	movs	r2, #0
 800038e:	2108      	movs	r1, #8
 8000390:	481c      	ldr	r0, [pc, #112]	; (8000404 <turnONFila+0xe0>)
 8000392:	f003 f97c 	bl	800368e <HAL_GPIO_WritePin>
 8000396:	2201      	movs	r2, #1
 8000398:	f44f 4100 	mov.w	r1, #32768	; 0x8000
 800039c:	481a      	ldr	r0, [pc, #104]	; (8000408 <turnONFila+0xe4>)
 800039e:	f003 f976 	bl	800368e <HAL_GPIO_WritePin>
 80003a2:	e02b      	b.n	80003fc <turnONFila+0xd8>
 80003a4:	2201      	movs	r2, #1
 80003a6:	2120      	movs	r1, #32
 80003a8:	4816      	ldr	r0, [pc, #88]	; (8000404 <turnONFila+0xe0>)
 80003aa:	f003 f970 	bl	800368e <HAL_GPIO_WritePin>
 80003ae:	2200      	movs	r2, #0
 80003b0:	2110      	movs	r1, #16
 80003b2:	4814      	ldr	r0, [pc, #80]	; (8000404 <turnONFila+0xe0>)
 80003b4:	f003 f96b 	bl	800368e <HAL_GPIO_WritePin>
 80003b8:	2201      	movs	r2, #1
 80003ba:	2108      	movs	r1, #8
 80003bc:	4811      	ldr	r0, [pc, #68]	; (8000404 <turnONFila+0xe0>)
 80003be:	f003 f966 	bl	800368e <HAL_GPIO_WritePin>
 80003c2:	2201      	movs	r2, #1
 80003c4:	f44f 4100 	mov.w	r1, #32768	; 0x8000
 80003c8:	480f      	ldr	r0, [pc, #60]	; (8000408 <turnONFila+0xe4>)
 80003ca:	f003 f960 	bl	800368e <HAL_GPIO_WritePin>
 80003ce:	e015      	b.n	80003fc <turnONFila+0xd8>
 80003d0:	2200      	movs	r2, #0
 80003d2:	2120      	movs	r1, #32
 80003d4:	480b      	ldr	r0, [pc, #44]	; (8000404 <turnONFila+0xe0>)
 80003d6:	f003 f95a 	bl	800368e <HAL_GPIO_WritePin>
 80003da:	2201      	movs	r2, #1
 80003dc:	2110      	movs	r1, #16
 80003de:	4809      	ldr	r0, [pc, #36]	; (8000404 <turnONFila+0xe0>)
 80003e0:	f003 f955 	bl	800368e <HAL_GPIO_WritePin>
 80003e4:	2201      	movs	r2, #1
 80003e6:	2108      	movs	r1, #8
 80003e8:	4806      	ldr	r0, [pc, #24]	; (8000404 <turnONFila+0xe0>)
 80003ea:	f003 f950 	bl	800368e <HAL_GPIO_WritePin>
 80003ee:	2201      	movs	r2, #1
 80003f0:	f44f 4100 	mov.w	r1, #32768	; 0x8000
 80003f4:	4804      	ldr	r0, [pc, #16]	; (8000408 <turnONFila+0xe4>)
 80003f6:	f003 f94a 	bl	800368e <HAL_GPIO_WritePin>
 80003fa:	bf00      	nop
 80003fc:	bf00      	nop
 80003fe:	3708      	adds	r7, #8
 8000400:	46bd      	mov	sp, r7
 8000402:	bd80      	pop	{r7, pc}
 8000404:	40010c00 	.word	0x40010c00
 8000408:	40010800 	.word	0x40010800

0800040c <lecturaTeclas>:
 800040c:	b580      	push	{r7, lr}
 800040e:	b082      	sub	sp, #8
 8000410:	af00      	add	r7, sp, #0
 8000412:	2101      	movs	r1, #1
 8000414:	481a      	ldr	r0, [pc, #104]	; (8000480 <lecturaTeclas+0x74>)
 8000416:	f7ff febf 	bl	8000198 <spi_74HC165_receiveBotones>
 800041a:	2300      	movs	r3, #0
 800041c:	71fb      	strb	r3, [r7, #7]
 800041e:	e00d      	b.n	800043c <lecturaTeclas+0x30>
 8000420:	79fb      	ldrb	r3, [r7, #7]
 8000422:	4618      	mov	r0, r3
 8000424:	f7ff ff7e 	bl	8000324 <turnONFila>
 8000428:	79fb      	ldrb	r3, [r7, #7]
 800042a:	4a16      	ldr	r2, [pc, #88]	; (8000484 <lecturaTeclas+0x78>)
 800042c:	4413      	add	r3, r2
 800042e:	2101      	movs	r1, #1
 8000430:	4618      	mov	r0, r3
 8000432:	f7ff feed 	bl	8000210 <spi_74HC165_receiveTeclado>
 8000436:	79fb      	ldrb	r3, [r7, #7]
 8000438:	3301      	adds	r3, #1
 800043a:	71fb      	strb	r3, [r7, #7]
 800043c:	79fb      	ldrb	r3, [r7, #7]
 800043e:	2b03      	cmp	r3, #3
 8000440:	d9ee      	bls.n	8000420 <lecturaTeclas+0x14>
 8000442:	4b10      	ldr	r3, [pc, #64]	; (8000484 <lecturaTeclas+0x78>)
 8000444:	781b      	ldrb	r3, [r3, #0]
 8000446:	f003 020f 	and.w	r2, r3, #15
 800044a:	4b0e      	ldr	r3, [pc, #56]	; (8000484 <lecturaTeclas+0x78>)
 800044c:	785b      	ldrb	r3, [r3, #1]
 800044e:	011b      	lsls	r3, r3, #4
 8000450:	b2db      	uxtb	r3, r3
 8000452:	431a      	orrs	r2, r3
 8000454:	4b0b      	ldr	r3, [pc, #44]	; (8000484 <lecturaTeclas+0x78>)
 8000456:	789b      	ldrb	r3, [r3, #2]
 8000458:	021b      	lsls	r3, r3, #8
 800045a:	f403 6370 	and.w	r3, r3, #3840	; 0xf00
 800045e:	431a      	orrs	r2, r3
 8000460:	4b08      	ldr	r3, [pc, #32]	; (8000484 <lecturaTeclas+0x78>)
 8000462:	78db      	ldrb	r3, [r3, #3]
 8000464:	031b      	lsls	r3, r3, #12
 8000466:	b29b      	uxth	r3, r3
 8000468:	431a      	orrs	r2, r3
 800046a:	4b05      	ldr	r3, [pc, #20]	; (8000480 <lecturaTeclas+0x74>)
 800046c:	781b      	ldrb	r3, [r3, #0]
 800046e:	041b      	lsls	r3, r3, #16
 8000470:	4313      	orrs	r3, r2
 8000472:	461a      	mov	r2, r3
 8000474:	4b04      	ldr	r3, [pc, #16]	; (8000488 <lecturaTeclas+0x7c>)
 8000476:	601a      	str	r2, [r3, #0]
 8000478:	bf00      	nop
 800047a:	3708      	adds	r7, #8
 800047c:	46bd      	mov	sp, r7
 800047e:	bd80      	pop	{r7, pc}
 8000480:	2000019c 	.word	0x2000019c
 8000484:	20000170 	.word	0x20000170
 8000488:	20000174 	.word	0x20000174

0800048c <update_teclas>:
 800048c:	b480      	push	{r7}
 800048e:	af00      	add	r7, sp, #0
 8000490:	4b0b      	ldr	r3, [pc, #44]	; (80004c0 <update_teclas+0x34>)
 8000492:	681b      	ldr	r3, [r3, #0]
 8000494:	43da      	mvns	r2, r3
 8000496:	4b0b      	ldr	r3, [pc, #44]	; (80004c4 <update_teclas+0x38>)
 8000498:	681b      	ldr	r3, [r3, #0]
 800049a:	4013      	ands	r3, r2
 800049c:	4a0a      	ldr	r2, [pc, #40]	; (80004c8 <update_teclas+0x3c>)
 800049e:	6013      	str	r3, [r2, #0]
 80004a0:	4b08      	ldr	r3, [pc, #32]	; (80004c4 <update_teclas+0x38>)
 80004a2:	681b      	ldr	r3, [r3, #0]
 80004a4:	43da      	mvns	r2, r3
 80004a6:	4b06      	ldr	r3, [pc, #24]	; (80004c0 <update_teclas+0x34>)
 80004a8:	681b      	ldr	r3, [r3, #0]
 80004aa:	4013      	ands	r3, r2
 80004ac:	4a07      	ldr	r2, [pc, #28]	; (80004cc <update_teclas+0x40>)
 80004ae:	6013      	str	r3, [r2, #0]
 80004b0:	4b03      	ldr	r3, [pc, #12]	; (80004c0 <update_teclas+0x34>)
 80004b2:	681b      	ldr	r3, [r3, #0]
 80004b4:	4a03      	ldr	r2, [pc, #12]	; (80004c4 <update_teclas+0x38>)
 80004b6:	6013      	str	r3, [r2, #0]
 80004b8:	bf00      	nop
 80004ba:	46bd      	mov	sp, r7
 80004bc:	bc80      	pop	{r7}
 80004be:	4770      	bx	lr
 80004c0:	20000174 	.word	0x20000174
 80004c4:	20000198 	.word	0x20000198
 80004c8:	20000178 	.word	0x20000178
 80004cc:	2000017c 	.word	0x2000017c

080004d0 <getStatBoton>:
 80004d0:	b480      	push	{r7}
 80004d2:	b083      	sub	sp, #12
 80004d4:	af00      	add	r7, sp, #0
 80004d6:	4603      	mov	r3, r0
 80004d8:	71fb      	strb	r3, [r7, #7]
 80004da:	79fb      	ldrb	r3, [r7, #7]
 80004dc:	2201      	movs	r2, #1
 80004de:	fa02 f303 	lsl.w	r3, r2, r3
 80004e2:	461a      	mov	r2, r3
 80004e4:	4b17      	ldr	r3, [pc, #92]	; (8000544 <getStatBoton+0x74>)
 80004e6:	681b      	ldr	r3, [r3, #0]
 80004e8:	4013      	ands	r3, r2
 80004ea:	2b00      	cmp	r3, #0
 80004ec:	d001      	beq.n	80004f2 <getStatBoton+0x22>
 80004ee:	2302      	movs	r3, #2
 80004f0:	e022      	b.n	8000538 <getStatBoton+0x68>
 80004f2:	79fb      	ldrb	r3, [r7, #7]
 80004f4:	2201      	movs	r2, #1
 80004f6:	fa02 f303 	lsl.w	r3, r2, r3
 80004fa:	2b00      	cmp	r3, #0
 80004fc:	bf14      	ite	ne
 80004fe:	2301      	movne	r3, #1
 8000500:	2300      	moveq	r3, #0
 8000502:	b2db      	uxtb	r3, r3
 8000504:	461a      	mov	r2, r3
 8000506:	4b10      	ldr	r3, [pc, #64]	; (8000548 <getStatBoton+0x78>)
 8000508:	681b      	ldr	r3, [r3, #0]
 800050a:	4013      	ands	r3, r2
 800050c:	2b00      	cmp	r3, #0
 800050e:	d001      	beq.n	8000514 <getStatBoton+0x44>
 8000510:	2303      	movs	r3, #3
 8000512:	e011      	b.n	8000538 <getStatBoton+0x68>
 8000514:	79fb      	ldrb	r3, [r7, #7]
 8000516:	2201      	movs	r2, #1
 8000518:	fa02 f303 	lsl.w	r3, r2, r3
 800051c:	2b00      	cmp	r3, #0
 800051e:	bf14      	ite	ne
 8000520:	2301      	movne	r3, #1
 8000522:	2300      	moveq	r3, #0
 8000524:	b2db      	uxtb	r3, r3
 8000526:	461a      	mov	r2, r3
 8000528:	4b08      	ldr	r3, [pc, #32]	; (800054c <getStatBoton+0x7c>)
 800052a:	681b      	ldr	r3, [r3, #0]
 800052c:	4013      	ands	r3, r2
 800052e:	2b00      	cmp	r3, #0
 8000530:	d001      	beq.n	8000536 <getStatBoton+0x66>
 8000532:	2301      	movs	r3, #1
 8000534:	e000      	b.n	8000538 <getStatBoton+0x68>
 8000536:	2300      	movs	r3, #0
 8000538:	4618      	mov	r0, r3
 800053a:	370c      	adds	r7, #12
 800053c:	46bd      	mov	sp, r7
 800053e:	bc80      	pop	{r7}
 8000540:	4770      	bx	lr
 8000542:	bf00      	nop
 8000544:	20000178 	.word	0x20000178
 8000548:	2000017c 	.word	0x2000017c
 800054c:	20000174 	.word	0x20000174

08000550 <getNumber>:
 8000550:	b480      	push	{r7}
 8000552:	af00      	add	r7, sp, #0
 8000554:	4b2a      	ldr	r3, [pc, #168]	; (8000600 <getNumber+0xb0>)
 8000556:	681b      	ldr	r3, [r3, #0]
 8000558:	f403 5300 	and.w	r3, r3, #8192	; 0x2000
 800055c:	2b00      	cmp	r3, #0
 800055e:	d001      	beq.n	8000564 <getNumber+0x14>
 8000560:	2300      	movs	r3, #0
 8000562:	e049      	b.n	80005f8 <getNumber+0xa8>
 8000564:	4b26      	ldr	r3, [pc, #152]	; (8000600 <getNumber+0xb0>)
 8000566:	681b      	ldr	r3, [r3, #0]
 8000568:	f003 0301 	and.w	r3, r3, #1
 800056c:	2b00      	cmp	r3, #0
 800056e:	d001      	beq.n	8000574 <getNumber+0x24>
 8000570:	2301      	movs	r3, #1
 8000572:	e041      	b.n	80005f8 <getNumber+0xa8>
 8000574:	4b22      	ldr	r3, [pc, #136]	; (8000600 <getNumber+0xb0>)
 8000576:	681b      	ldr	r3, [r3, #0]
 8000578:	f003 0302 	and.w	r3, r3, #2
 800057c:	2b00      	cmp	r3, #0
 800057e:	d001      	beq.n	8000584 <getNumber+0x34>
 8000580:	2302      	movs	r3, #2
 8000582:	e039      	b.n	80005f8 <getNumber+0xa8>
 8000584:	4b1e      	ldr	r3, [pc, #120]	; (8000600 <getNumber+0xb0>)
 8000586:	681b      	ldr	r3, [r3, #0]
 8000588:	f003 0304 	and.w	r3, r3, #4
 800058c:	2b00      	cmp	r3, #0
 800058e:	d001      	beq.n	8000594 <getNumber+0x44>
 8000590:	2303      	movs	r3, #3
 8000592:	e031      	b.n	80005f8 <getNumber+0xa8>
 8000594:	4b1a      	ldr	r3, [pc, #104]	; (8000600 <getNumber+0xb0>)
 8000596:	681b      	ldr	r3, [r3, #0]
 8000598:	f003 0310 	and.w	r3, r3, #16
 800059c:	2b00      	cmp	r3, #0
 800059e:	d001      	beq.n	80005a4 <getNumber+0x54>
 80005a0:	2304      	movs	r3, #4
 80005a2:	e029      	b.n	80005f8 <getNumber+0xa8>
 80005a4:	4b16      	ldr	r3, [pc, #88]	; (8000600 <getNumber+0xb0>)
 80005a6:	681b      	ldr	r3, [r3, #0]
 80005a8:	f003 0320 	and.w	r3, r3, #32
 80005ac:	2b00      	cmp	r3, #0
 80005ae:	d001      	beq.n	80005b4 <getNumber+0x64>
 80005b0:	2305      	movs	r3, #5
 80005b2:	e021      	b.n	80005f8 <getNumber+0xa8>
 80005b4:	4b12      	ldr	r3, [pc, #72]	; (8000600 <getNumber+0xb0>)
 80005b6:	681b      	ldr	r3, [r3, #0]
 80005b8:	f003 0340 	and.w	r3, r3, #64	; 0x40
 80005bc:	2b00      	cmp	r3, #0
 80005be:	d001      	beq.n	80005c4 <getNumber+0x74>
 80005c0:	2306      	movs	r3, #6
 80005c2:	e019      	b.n	80005f8 <getNumber+0xa8>
 80005c4:	4b0e      	ldr	r3, [pc, #56]	; (8000600 <getNumber+0xb0>)
 80005c6:	681b      	ldr	r3, [r3, #0]
 80005c8:	f403 7380 	and.w	r3, r3, #256	; 0x100
 80005cc:	2b00      	cmp	r3, #0
 80005ce:	d001      	beq.n	80005d4 <getNumber+0x84>
 80005d0:	2307      	movs	r3, #7
 80005d2:	e011      	b.n	80005f8 <getNumber+0xa8>
 80005d4:	4b0a      	ldr	r3, [pc, #40]	; (8000600 <getNumber+0xb0>)
 80005d6:	681b      	ldr	r3, [r3, #0]
 80005d8:	f403 7300 	and.w	r3, r3, #512	; 0x200
 80005dc:	2b00      	cmp	r3, #0
 80005de:	d001      	beq.n	80005e4 <getNumber+0x94>
 80005e0:	2308      	movs	r3, #8
 80005e2:	e009      	b.n	80005f8 <getNumber+0xa8>
 80005e4:	4b06      	ldr	r3, [pc, #24]	; (8000600 <getNumber+0xb0>)
 80005e6:	681b      	ldr	r3, [r3, #0]
 80005e8:	f403 6380 	and.w	r3, r3, #1024	; 0x400
 80005ec:	2b00      	cmp	r3, #0
 80005ee:	d001      	beq.n	80005f4 <getNumber+0xa4>
 80005f0:	2309      	movs	r3, #9
 80005f2:	e001      	b.n	80005f8 <getNumber+0xa8>
 80005f4:	f04f 33ff 	mov.w	r3, #4294967295
 80005f8:	4618      	mov	r0, r3
 80005fa:	46bd      	mov	sp, r7
 80005fc:	bc80      	pop	{r7}
 80005fe:	4770      	bx	lr
 8000600:	20000178 	.word	0x20000178

08000604 <setOutput>:
 8000604:	b480      	push	{r7}
 8000606:	b083      	sub	sp, #12
 8000608:	af00      	add	r7, sp, #0
 800060a:	4603      	mov	r3, r0
 800060c:	460a      	mov	r2, r1
 800060e:	71fb      	strb	r3, [r7, #7]
 8000610:	4613      	mov	r3, r2
 8000612:	71bb      	strb	r3, [r7, #6]
 8000614:	79bb      	ldrb	r3, [r7, #6]
 8000616:	2b00      	cmp	r3, #0
 8000618:	d00b      	beq.n	8000632 <setOutput+0x2e>
 800061a:	79fb      	ldrb	r3, [r7, #7]
 800061c:	2201      	movs	r2, #1
 800061e:	fa02 f303 	lsl.w	r3, r2, r3
 8000622:	b29a      	uxth	r2, r3
 8000624:	4b0c      	ldr	r3, [pc, #48]	; (8000658 <setOutput+0x54>)
 8000626:	881b      	ldrh	r3, [r3, #0]
 8000628:	4313      	orrs	r3, r2
 800062a:	b29a      	uxth	r2, r3
 800062c:	4b0a      	ldr	r3, [pc, #40]	; (8000658 <setOutput+0x54>)
 800062e:	801a      	strh	r2, [r3, #0]
 8000630:	e00e      	b.n	8000650 <setOutput+0x4c>
 8000632:	79fb      	ldrb	r3, [r7, #7]
 8000634:	2201      	movs	r2, #1
 8000636:	fa02 f303 	lsl.w	r3, r2, r3
 800063a:	b21b      	sxth	r3, r3
 800063c:	43db      	mvns	r3, r3
 800063e:	b21a      	sxth	r2, r3
 8000640:	4b05      	ldr	r3, [pc, #20]	; (8000658 <setOutput+0x54>)
 8000642:	881b      	ldrh	r3, [r3, #0]
 8000644:	b21b      	sxth	r3, r3
 8000646:	4013      	ands	r3, r2
 8000648:	b21b      	sxth	r3, r3
 800064a:	b29a      	uxth	r2, r3
 800064c:	4b02      	ldr	r3, [pc, #8]	; (8000658 <setOutput+0x54>)
 800064e:	801a      	strh	r2, [r3, #0]
 8000650:	370c      	adds	r7, #12
 8000652:	46bd      	mov	sp, r7
 8000654:	bc80      	pop	{r7}
 8000656:	4770      	bx	lr
 8000658:	2000016c 	.word	0x2000016c

0800065c <toggleOutput>:
 800065c:	b480      	push	{r7}
 800065e:	b083      	sub	sp, #12
 8000660:	af00      	add	r7, sp, #0
 8000662:	4603      	mov	r3, r0
 8000664:	71fb      	strb	r3, [r7, #7]
 8000666:	79fb      	ldrb	r3, [r7, #7]
 8000668:	2201      	movs	r2, #1
 800066a:	fa02 f303 	lsl.w	r3, r2, r3
 800066e:	b29a      	uxth	r2, r3
 8000670:	4b05      	ldr	r3, [pc, #20]	; (8000688 <toggleOutput+0x2c>)
 8000672:	881b      	ldrh	r3, [r3, #0]
 8000674:	4053      	eors	r3, r2
 8000676:	b29a      	uxth	r2, r3
 8000678:	4b03      	ldr	r3, [pc, #12]	; (8000688 <toggleOutput+0x2c>)
 800067a:	801a      	strh	r2, [r3, #0]
 800067c:	bf00      	nop
 800067e:	370c      	adds	r7, #12
 8000680:	46bd      	mov	sp, r7
 8000682:	bc80      	pop	{r7}
 8000684:	4770      	bx	lr
 8000686:	bf00      	nop
 8000688:	2000016c 	.word	0x2000016c

0800068c <update_outputs>:
 800068c:	b580      	push	{r7, lr}
 800068e:	af00      	add	r7, sp, #0
 8000690:	2102      	movs	r1, #2
 8000692:	4802      	ldr	r0, [pc, #8]	; (800069c <update_outputs+0x10>)
 8000694:	f7ff fe1e 	bl	80002d4 <spi_74HC595_Transmit>
 8000698:	bf00      	nop
 800069a:	bd80      	pop	{r7, pc}
 800069c:	2000016c 	.word	0x2000016c

080006a0 <SendByteSPI>:
 80006a0:	b580      	push	{r7, lr}
 80006a2:	b084      	sub	sp, #16
 80006a4:	af00      	add	r7, sp, #0
 80006a6:	4603      	mov	r3, r0
 80006a8:	71fb      	strb	r3, [r7, #7]
 80006aa:	2300      	movs	r3, #0
 80006ac:	60fb      	str	r3, [r7, #12]
 80006ae:	e01f      	b.n	80006f0 <SendByteSPI+0x50>
 80006b0:	79fa      	ldrb	r2, [r7, #7]
 80006b2:	68fb      	ldr	r3, [r7, #12]
 80006b4:	fa02 f303 	lsl.w	r3, r2, r3
 80006b8:	f003 0380 	and.w	r3, r3, #128	; 0x80
 80006bc:	2b00      	cmp	r3, #0
 80006be:	d005      	beq.n	80006cc <SendByteSPI+0x2c>
 80006c0:	2201      	movs	r2, #1
 80006c2:	2180      	movs	r1, #128	; 0x80
 80006c4:	480e      	ldr	r0, [pc, #56]	; (8000700 <SendByteSPI+0x60>)
 80006c6:	f002 ffe2 	bl	800368e <HAL_GPIO_WritePin>
 80006ca:	e004      	b.n	80006d6 <SendByteSPI+0x36>
 80006cc:	2200      	movs	r2, #0
 80006ce:	2180      	movs	r1, #128	; 0x80
 80006d0:	480b      	ldr	r0, [pc, #44]	; (8000700 <SendByteSPI+0x60>)
 80006d2:	f002 ffdc 	bl	800368e <HAL_GPIO_WritePin>
 80006d6:	2200      	movs	r2, #0
 80006d8:	2120      	movs	r1, #32
 80006da:	4809      	ldr	r0, [pc, #36]	; (8000700 <SendByteSPI+0x60>)
 80006dc:	f002 ffd7 	bl	800368e <HAL_GPIO_WritePin>
 80006e0:	2201      	movs	r2, #1
 80006e2:	2120      	movs	r1, #32
 80006e4:	4806      	ldr	r0, [pc, #24]	; (8000700 <SendByteSPI+0x60>)
 80006e6:	f002 ffd2 	bl	800368e <HAL_GPIO_WritePin>
 80006ea:	68fb      	ldr	r3, [r7, #12]
 80006ec:	3301      	adds	r3, #1
 80006ee:	60fb      	str	r3, [r7, #12]
 80006f0:	68fb      	ldr	r3, [r7, #12]
 80006f2:	2b07      	cmp	r3, #7
 80006f4:	dddc      	ble.n	80006b0 <SendByteSPI+0x10>
 80006f6:	bf00      	nop
 80006f8:	3710      	adds	r7, #16
 80006fa:	46bd      	mov	sp, r7
 80006fc:	bd80      	pop	{r7, pc}
 80006fe:	bf00      	nop
 8000700:	40010800 	.word	0x40010800

08000704 <ST7920_SendCmd>:
 8000704:	b580      	push	{r7, lr}
 8000706:	b082      	sub	sp, #8
 8000708:	af00      	add	r7, sp, #0
 800070a:	4603      	mov	r3, r0
 800070c:	71fb      	strb	r3, [r7, #7]
 800070e:	2201      	movs	r2, #1
 8000710:	2140      	movs	r1, #64	; 0x40
 8000712:	480f      	ldr	r0, [pc, #60]	; (8000750 <ST7920_SendCmd+0x4c>)
 8000714:	f002 ffbb 	bl	800368e <HAL_GPIO_WritePin>
 8000718:	20f8      	movs	r0, #248	; 0xf8
 800071a:	f7ff ffc1 	bl	80006a0 <SendByteSPI>
 800071e:	79fb      	ldrb	r3, [r7, #7]
 8000720:	f023 030f 	bic.w	r3, r3, #15
 8000724:	b2db      	uxtb	r3, r3
 8000726:	4618      	mov	r0, r3
 8000728:	f7ff ffba 	bl	80006a0 <SendByteSPI>
 800072c:	79fb      	ldrb	r3, [r7, #7]
 800072e:	011b      	lsls	r3, r3, #4
 8000730:	b2db      	uxtb	r3, r3
 8000732:	4618      	mov	r0, r3
 8000734:	f7ff ffb4 	bl	80006a0 <SendByteSPI>
 8000738:	2032      	movs	r0, #50	; 0x32
 800073a:	f000 fa05 	bl	8000b48 <delay_us>
 800073e:	2200      	movs	r2, #0
 8000740:	2140      	movs	r1, #64	; 0x40
 8000742:	4803      	ldr	r0, [pc, #12]	; (8000750 <ST7920_SendCmd+0x4c>)
 8000744:	f002 ffa3 	bl	800368e <HAL_GPIO_WritePin>
 8000748:	bf00      	nop
 800074a:	3708      	adds	r7, #8
 800074c:	46bd      	mov	sp, r7
 800074e:	bd80      	pop	{r7, pc}
 8000750:	40010800 	.word	0x40010800

08000754 <ST7920_SendData>:
 8000754:	b580      	push	{r7, lr}
 8000756:	b082      	sub	sp, #8
 8000758:	af00      	add	r7, sp, #0
 800075a:	4603      	mov	r3, r0
 800075c:	71fb      	strb	r3, [r7, #7]
 800075e:	2201      	movs	r2, #1
 8000760:	2140      	movs	r1, #64	; 0x40
 8000762:	480f      	ldr	r0, [pc, #60]	; (80007a0 <ST7920_SendData+0x4c>)
 8000764:	f002 ff93 	bl	800368e <HAL_GPIO_WritePin>
 8000768:	20fa      	movs	r0, #250	; 0xfa
 800076a:	f7ff ff99 	bl	80006a0 <SendByteSPI>
 800076e:	79fb      	ldrb	r3, [r7, #7]
 8000770:	f023 030f 	bic.w	r3, r3, #15
 8000774:	b2db      	uxtb	r3, r3
 8000776:	4618      	mov	r0, r3
 8000778:	f7ff ff92 	bl	80006a0 <SendByteSPI>
 800077c:	79fb      	ldrb	r3, [r7, #7]
 800077e:	011b      	lsls	r3, r3, #4
 8000780:	b2db      	uxtb	r3, r3
 8000782:	4618      	mov	r0, r3
 8000784:	f7ff ff8c 	bl	80006a0 <SendByteSPI>
 8000788:	2032      	movs	r0, #50	; 0x32
 800078a:	f000 f9dd 	bl	8000b48 <delay_us>
 800078e:	2200      	movs	r2, #0
 8000790:	2140      	movs	r1, #64	; 0x40
 8000792:	4803      	ldr	r0, [pc, #12]	; (80007a0 <ST7920_SendData+0x4c>)
 8000794:	f002 ff7b 	bl	800368e <HAL_GPIO_WritePin>
 8000798:	bf00      	nop
 800079a:	3708      	adds	r7, #8
 800079c:	46bd      	mov	sp, r7
 800079e:	bd80      	pop	{r7, pc}
 80007a0:	40010800 	.word	0x40010800

080007a4 <ST7920_SendString>:
 80007a4:	b580      	push	{r7, lr}
 80007a6:	b084      	sub	sp, #16
 80007a8:	af00      	add	r7, sp, #0
 80007aa:	60f8      	str	r0, [r7, #12]
 80007ac:	60b9      	str	r1, [r7, #8]
 80007ae:	607a      	str	r2, [r7, #4]
 80007b0:	68fb      	ldr	r3, [r7, #12]
 80007b2:	2b03      	cmp	r3, #3
 80007b4:	d81e      	bhi.n	80007f4 <ST7920_SendString+0x50>
 80007b6:	a201      	add	r2, pc, #4	; (adr r2, 80007bc <ST7920_SendString+0x18>)
 80007b8:	f852 f023 	ldr.w	pc, [r2, r3, lsl #2]
 80007bc:	080007cd 	.word	0x080007cd
 80007c0:	080007d7 	.word	0x080007d7
 80007c4:	080007e1 	.word	0x080007e1
 80007c8:	080007eb 	.word	0x080007eb
 80007cc:	68bb      	ldr	r3, [r7, #8]
 80007ce:	f043 0380 	orr.w	r3, r3, #128	; 0x80
 80007d2:	60bb      	str	r3, [r7, #8]
 80007d4:	e013      	b.n	80007fe <ST7920_SendString+0x5a>
 80007d6:	68bb      	ldr	r3, [r7, #8]
 80007d8:	f043 0390 	orr.w	r3, r3, #144	; 0x90
 80007dc:	60bb      	str	r3, [r7, #8]
 80007de:	e00e      	b.n	80007fe <ST7920_SendString+0x5a>
 80007e0:	68bb      	ldr	r3, [r7, #8]
 80007e2:	f043 0388 	orr.w	r3, r3, #136	; 0x88
 80007e6:	60bb      	str	r3, [r7, #8]
 80007e8:	e009      	b.n	80007fe <ST7920_SendString+0x5a>
 80007ea:	68bb      	ldr	r3, [r7, #8]
 80007ec:	f043 0398 	orr.w	r3, r3, #152	; 0x98
 80007f0:	60bb      	str	r3, [r7, #8]
 80007f2:	e004      	b.n	80007fe <ST7920_SendString+0x5a>
 80007f4:	68bb      	ldr	r3, [r7, #8]
 80007f6:	f043 0380 	orr.w	r3, r3, #128	; 0x80
 80007fa:	60bb      	str	r3, [r7, #8]
 80007fc:	bf00      	nop
 80007fe:	68bb      	ldr	r3, [r7, #8]
 8000800:	b2db      	uxtb	r3, r3
 8000802:	4618      	mov	r0, r3
 8000804:	f7ff ff7e 	bl	8000704 <ST7920_SendCmd>
 8000808:	e006      	b.n	8000818 <ST7920_SendString+0x74>
 800080a:	687b      	ldr	r3, [r7, #4]
 800080c:	1c5a      	adds	r2, r3, #1
 800080e:	607a      	str	r2, [r7, #4]
 8000810:	781b      	ldrb	r3, [r3, #0]
 8000812:	4618      	mov	r0, r3
 8000814:	f7ff ff9e 	bl	8000754 <ST7920_SendData>
 8000818:	687b      	ldr	r3, [r7, #4]
 800081a:	781b      	ldrb	r3, [r3, #0]
 800081c:	2b00      	cmp	r3, #0
 800081e:	d1f4      	bne.n	800080a <ST7920_SendString+0x66>
 8000820:	bf00      	nop
 8000822:	3710      	adds	r7, #16
 8000824:	46bd      	mov	sp, r7
 8000826:	bd80      	pop	{r7, pc}

08000828 <ST7920_DrawBitmap>:
 8000828:	b580      	push	{r7, lr}
 800082a:	b084      	sub	sp, #16
 800082c:	af00      	add	r7, sp, #0
 800082e:	6078      	str	r0, [r7, #4]
 8000830:	2300      	movs	r3, #0
 8000832:	73bb      	strb	r3, [r7, #14]
 8000834:	e06a      	b.n	800090c <ST7920_DrawBitmap+0xe4>
 8000836:	7bbb      	ldrb	r3, [r7, #14]
 8000838:	2b1f      	cmp	r3, #31
 800083a:	d830      	bhi.n	800089e <ST7920_DrawBitmap+0x76>
 800083c:	2300      	movs	r3, #0
 800083e:	73fb      	strb	r3, [r7, #15]
 8000840:	e029      	b.n	8000896 <ST7920_DrawBitmap+0x6e>
 8000842:	7bbb      	ldrb	r3, [r7, #14]
 8000844:	f063 037f 	orn	r3, r3, #127	; 0x7f
 8000848:	b2db      	uxtb	r3, r3
 800084a:	4618      	mov	r0, r3
 800084c:	f7ff ff5a 	bl	8000704 <ST7920_SendCmd>
 8000850:	7bfb      	ldrb	r3, [r7, #15]
 8000852:	f063 037f 	orn	r3, r3, #127	; 0x7f
 8000856:	b2db      	uxtb	r3, r3
 8000858:	4618      	mov	r0, r3
 800085a:	f7ff ff53 	bl	8000704 <ST7920_SendCmd>
 800085e:	7bfa      	ldrb	r2, [r7, #15]
 8000860:	7bbb      	ldrb	r3, [r7, #14]
 8000862:	00db      	lsls	r3, r3, #3
 8000864:	4413      	add	r3, r2
 8000866:	005b      	lsls	r3, r3, #1
 8000868:	461a      	mov	r2, r3
 800086a:	687b      	ldr	r3, [r7, #4]
 800086c:	4413      	add	r3, r2
 800086e:	781b      	ldrb	r3, [r3, #0]
 8000870:	4618      	mov	r0, r3
 8000872:	f7ff ff6f 	bl	8000754 <ST7920_SendData>
 8000876:	7bfb      	ldrb	r3, [r7, #15]
 8000878:	005b      	lsls	r3, r3, #1
 800087a:	1c5a      	adds	r2, r3, #1
 800087c:	7bbb      	ldrb	r3, [r7, #14]
 800087e:	011b      	lsls	r3, r3, #4
 8000880:	4413      	add	r3, r2
 8000882:	461a      	mov	r2, r3
 8000884:	687b      	ldr	r3, [r7, #4]
 8000886:	4413      	add	r3, r2
 8000888:	781b      	ldrb	r3, [r3, #0]
 800088a:	4618      	mov	r0, r3
 800088c:	f7ff ff62 	bl	8000754 <ST7920_SendData>
 8000890:	7bfb      	ldrb	r3, [r7, #15]
 8000892:	3301      	adds	r3, #1
 8000894:	73fb      	strb	r3, [r7, #15]
 8000896:	7bfb      	ldrb	r3, [r7, #15]
 8000898:	2b07      	cmp	r3, #7
 800089a:	d9d2      	bls.n	8000842 <ST7920_DrawBitmap+0x1a>
 800089c:	e033      	b.n	8000906 <ST7920_DrawBitmap+0xde>
 800089e:	2300      	movs	r3, #0
 80008a0:	73fb      	strb	r3, [r7, #15]
 80008a2:	e02d      	b.n	8000900 <ST7920_DrawBitmap+0xd8>
 80008a4:	7bbb      	ldrb	r3, [r7, #14]
 80008a6:	3b20      	subs	r3, #32
 80008a8:	b2db      	uxtb	r3, r3
 80008aa:	b25b      	sxtb	r3, r3
 80008ac:	f063 037f 	orn	r3, r3, #127	; 0x7f
 80008b0:	b25b      	sxtb	r3, r3
 80008b2:	b2db      	uxtb	r3, r3
 80008b4:	4618      	mov	r0, r3
 80008b6:	f7ff ff25 	bl	8000704 <ST7920_SendCmd>
 80008ba:	7bfb      	ldrb	r3, [r7, #15]
 80008bc:	f063 0377 	orn	r3, r3, #119	; 0x77
 80008c0:	b2db      	uxtb	r3, r3
 80008c2:	4618      	mov	r0, r3
 80008c4:	f7ff ff1e 	bl	8000704 <ST7920_SendCmd>
 80008c8:	7bfa      	ldrb	r2, [r7, #15]
 80008ca:	7bbb      	ldrb	r3, [r7, #14]
 80008cc:	00db      	lsls	r3, r3, #3
 80008ce:	4413      	add	r3, r2
 80008d0:	005b      	lsls	r3, r3, #1
 80008d2:	461a      	mov	r2, r3
 80008d4:	687b      	ldr	r3, [r7, #4]
 80008d6:	4413      	add	r3, r2
 80008d8:	781b      	ldrb	r3, [r3, #0]
 80008da:	4618      	mov	r0, r3
 80008dc:	f7ff ff3a 	bl	8000754 <ST7920_SendData>
 80008e0:	7bfb      	ldrb	r3, [r7, #15]
 80008e2:	005b      	lsls	r3, r3, #1
 80008e4:	1c5a      	adds	r2, r3, #1
 80008e6:	7bbb      	ldrb	r3, [r7, #14]
 80008e8:	011b      	lsls	r3, r3, #4
 80008ea:	4413      	add	r3, r2
 80008ec:	461a      	mov	r2, r3
 80008ee:	687b      	ldr	r3, [r7, #4]
 80008f0:	4413      	add	r3, r2
 80008f2:	781b      	ldrb	r3, [r3, #0]
 80008f4:	4618      	mov	r0, r3
 80008f6:	f7ff ff2d 	bl	8000754 <ST7920_SendData>
 80008fa:	7bfb      	ldrb	r3, [r7, #15]
 80008fc:	3301      	adds	r3, #1
 80008fe:	73fb      	strb	r3, [r7, #15]
 8000900:	7bfb      	ldrb	r3, [r7, #15]
 8000902:	2b07      	cmp	r3, #7
 8000904:	d9ce      	bls.n	80008a4 <ST7920_DrawBitmap+0x7c>
 8000906:	7bbb      	ldrb	r3, [r7, #14]
 8000908:	3301      	adds	r3, #1
 800090a:	73bb      	strb	r3, [r7, #14]
 800090c:	7bbb      	ldrb	r3, [r7, #14]
 800090e:	2b3f      	cmp	r3, #63	; 0x3f
 8000910:	d991      	bls.n	8000836 <ST7920_DrawBitmap+0xe>
 8000912:	bf00      	nop
 8000914:	3710      	adds	r7, #16
 8000916:	46bd      	mov	sp, r7
 8000918:	bd80      	pop	{r7, pc}
	...

0800091c <ST7920_Update>:
 800091c:	b580      	push	{r7, lr}
 800091e:	af00      	add	r7, sp, #0
 8000920:	4802      	ldr	r0, [pc, #8]	; (800092c <ST7920_Update+0x10>)
 8000922:	f7ff ff81 	bl	8000828 <ST7920_DrawBitmap>
 8000926:	bf00      	nop
 8000928:	bd80      	pop	{r7, pc}
 800092a:	bf00      	nop
 800092c:	200001a4 	.word	0x200001a4

08000930 <ST7920_Clear>:
 8000930:	b580      	push	{r7, lr}
 8000932:	b082      	sub	sp, #8
 8000934:	af00      	add	r7, sp, #0
 8000936:	4b21      	ldr	r3, [pc, #132]	; (80009bc <ST7920_Clear+0x8c>)
 8000938:	781b      	ldrb	r3, [r3, #0]
 800093a:	2b01      	cmp	r3, #1
 800093c:	d134      	bne.n	80009a8 <ST7920_Clear+0x78>
 800093e:	2300      	movs	r3, #0
 8000940:	71bb      	strb	r3, [r7, #6]
 8000942:	e02d      	b.n	80009a0 <ST7920_Clear+0x70>
 8000944:	79bb      	ldrb	r3, [r7, #6]
 8000946:	2b1f      	cmp	r3, #31
 8000948:	d80a      	bhi.n	8000960 <ST7920_Clear+0x30>
 800094a:	79bb      	ldrb	r3, [r7, #6]
 800094c:	f063 037f 	orn	r3, r3, #127	; 0x7f
 8000950:	b2db      	uxtb	r3, r3
 8000952:	4618      	mov	r0, r3
 8000954:	f7ff fed6 	bl	8000704 <ST7920_SendCmd>
 8000958:	2080      	movs	r0, #128	; 0x80
 800095a:	f7ff fed3 	bl	8000704 <ST7920_SendCmd>
 800095e:	e00d      	b.n	800097c <ST7920_Clear+0x4c>
 8000960:	79bb      	ldrb	r3, [r7, #6]
 8000962:	3b20      	subs	r3, #32
 8000964:	b2db      	uxtb	r3, r3
 8000966:	b25b      	sxtb	r3, r3
 8000968:	f063 037f 	orn	r3, r3, #127	; 0x7f
 800096c:	b25b      	sxtb	r3, r3
 800096e:	b2db      	uxtb	r3, r3
 8000970:	4618      	mov	r0, r3
 8000972:	f7ff fec7 	bl	8000704 <ST7920_SendCmd>
 8000976:	2088      	movs	r0, #136	; 0x88
 8000978:	f7ff fec4 	bl	8000704 <ST7920_SendCmd>
 800097c:	2300      	movs	r3, #0
 800097e:	71fb      	strb	r3, [r7, #7]
 8000980:	e008      	b.n	8000994 <ST7920_Clear+0x64>
 8000982:	2000      	movs	r0, #0
 8000984:	f7ff fee6 	bl	8000754 <ST7920_SendData>
 8000988:	2000      	movs	r0, #0
 800098a:	f7ff fee3 	bl	8000754 <ST7920_SendData>
 800098e:	79fb      	ldrb	r3, [r7, #7]
 8000990:	3301      	adds	r3, #1
 8000992:	71fb      	strb	r3, [r7, #7]
 8000994:	79fb      	ldrb	r3, [r7, #7]
 8000996:	2b07      	cmp	r3, #7
 8000998:	d9f3      	bls.n	8000982 <ST7920_Clear+0x52>
 800099a:	79bb      	ldrb	r3, [r7, #6]
 800099c:	3301      	adds	r3, #1
 800099e:	71bb      	strb	r3, [r7, #6]
 80009a0:	79bb      	ldrb	r3, [r7, #6]
 80009a2:	2b3f      	cmp	r3, #63	; 0x3f
 80009a4:	d9ce      	bls.n	8000944 <ST7920_Clear+0x14>
 80009a6:	e005      	b.n	80009b4 <ST7920_Clear+0x84>
 80009a8:	2001      	movs	r0, #1
 80009aa:	f7ff feab 	bl	8000704 <ST7920_SendCmd>
 80009ae:	2002      	movs	r0, #2
 80009b0:	f002 f9c2 	bl	8002d38 <HAL_Delay>
 80009b4:	bf00      	nop
 80009b6:	3708      	adds	r7, #8
 80009b8:	46bd      	mov	sp, r7
 80009ba:	bd80      	pop	{r7, pc}
 80009bc:	20000114 	.word	0x20000114

080009c0 <ST7920_Init>:
 80009c0:	b580      	push	{r7, lr}
 80009c2:	af00      	add	r7, sp, #0
 80009c4:	2200      	movs	r2, #0
 80009c6:	2101      	movs	r1, #1
 80009c8:	481c      	ldr	r0, [pc, #112]	; (8000a3c <ST7920_Init+0x7c>)
 80009ca:	f002 fe60 	bl	800368e <HAL_GPIO_WritePin>
 80009ce:	200a      	movs	r0, #10
 80009d0:	f002 f9b2 	bl	8002d38 <HAL_Delay>
 80009d4:	2201      	movs	r2, #1
 80009d6:	2101      	movs	r1, #1
 80009d8:	4818      	ldr	r0, [pc, #96]	; (8000a3c <ST7920_Init+0x7c>)
 80009da:	f002 fe58 	bl	800368e <HAL_GPIO_WritePin>
 80009de:	2032      	movs	r0, #50	; 0x32
 80009e0:	f002 f9aa 	bl	8002d38 <HAL_Delay>
 80009e4:	2030      	movs	r0, #48	; 0x30
 80009e6:	f7ff fe8d 	bl	8000704 <ST7920_SendCmd>
 80009ea:	206e      	movs	r0, #110	; 0x6e
 80009ec:	f000 f8ac 	bl	8000b48 <delay_us>
 80009f0:	2030      	movs	r0, #48	; 0x30
 80009f2:	f7ff fe87 	bl	8000704 <ST7920_SendCmd>
 80009f6:	2028      	movs	r0, #40	; 0x28
 80009f8:	f000 f8a6 	bl	8000b48 <delay_us>
 80009fc:	2008      	movs	r0, #8
 80009fe:	f7ff fe81 	bl	8000704 <ST7920_SendCmd>
 8000a02:	206e      	movs	r0, #110	; 0x6e
 8000a04:	f000 f8a0 	bl	8000b48 <delay_us>
 8000a08:	2001      	movs	r0, #1
 8000a0a:	f7ff fe7b 	bl	8000704 <ST7920_SendCmd>
 8000a0e:	200c      	movs	r0, #12
 8000a10:	f002 f992 	bl	8002d38 <HAL_Delay>
 8000a14:	2006      	movs	r0, #6
 8000a16:	f7ff fe75 	bl	8000704 <ST7920_SendCmd>
 8000a1a:	2001      	movs	r0, #1
 8000a1c:	f002 f98c 	bl	8002d38 <HAL_Delay>
 8000a20:	200c      	movs	r0, #12
 8000a22:	f7ff fe6f 	bl	8000704 <ST7920_SendCmd>
 8000a26:	2001      	movs	r0, #1
 8000a28:	f002 f986 	bl	8002d38 <HAL_Delay>
 8000a2c:	2002      	movs	r0, #2
 8000a2e:	f7ff fe69 	bl	8000704 <ST7920_SendCmd>
 8000a32:	2001      	movs	r0, #1
 8000a34:	f002 f980 	bl	8002d38 <HAL_Delay>
 8000a38:	bf00      	nop
 8000a3a:	bd80      	pop	{r7, pc}
 8000a3c:	40010c00 	.word	0x40010c00

08000a40 <MX_ADC1_Init>:
 8000a40:	b580      	push	{r7, lr}
 8000a42:	b084      	sub	sp, #16
 8000a44:	af00      	add	r7, sp, #0
 8000a46:	1d3b      	adds	r3, r7, #4
 8000a48:	2200      	movs	r2, #0
 8000a4a:	601a      	str	r2, [r3, #0]
 8000a4c:	605a      	str	r2, [r3, #4]
 8000a4e:	609a      	str	r2, [r3, #8]
 8000a50:	4b18      	ldr	r3, [pc, #96]	; (8000ab4 <MX_ADC1_Init+0x74>)
 8000a52:	4a19      	ldr	r2, [pc, #100]	; (8000ab8 <MX_ADC1_Init+0x78>)
 8000a54:	601a      	str	r2, [r3, #0]
 8000a56:	4b17      	ldr	r3, [pc, #92]	; (8000ab4 <MX_ADC1_Init+0x74>)
 8000a58:	2200      	movs	r2, #0
 8000a5a:	609a      	str	r2, [r3, #8]
 8000a5c:	4b15      	ldr	r3, [pc, #84]	; (8000ab4 <MX_ADC1_Init+0x74>)
 8000a5e:	2200      	movs	r2, #0
 8000a60:	731a      	strb	r2, [r3, #12]
 8000a62:	4b14      	ldr	r3, [pc, #80]	; (8000ab4 <MX_ADC1_Init+0x74>)
 8000a64:	2200      	movs	r2, #0
 8000a66:	751a      	strb	r2, [r3, #20]
 8000a68:	4b12      	ldr	r3, [pc, #72]	; (8000ab4 <MX_ADC1_Init+0x74>)
 8000a6a:	f44f 2260 	mov.w	r2, #917504	; 0xe0000
 8000a6e:	61da      	str	r2, [r3, #28]
 8000a70:	4b10      	ldr	r3, [pc, #64]	; (8000ab4 <MX_ADC1_Init+0x74>)
 8000a72:	2200      	movs	r2, #0
 8000a74:	605a      	str	r2, [r3, #4]
 8000a76:	4b0f      	ldr	r3, [pc, #60]	; (8000ab4 <MX_ADC1_Init+0x74>)
 8000a78:	2201      	movs	r2, #1
 8000a7a:	611a      	str	r2, [r3, #16]
 8000a7c:	480d      	ldr	r0, [pc, #52]	; (8000ab4 <MX_ADC1_Init+0x74>)
 8000a7e:	f002 f97d 	bl	8002d7c <HAL_ADC_Init>
 8000a82:	4603      	mov	r3, r0
 8000a84:	2b00      	cmp	r3, #0
 8000a86:	d001      	beq.n	8000a8c <MX_ADC1_Init+0x4c>
 8000a88:	f001 f8d4 	bl	8001c34 <Error_Handler>
 8000a8c:	2300      	movs	r3, #0
 8000a8e:	607b      	str	r3, [r7, #4]
 8000a90:	2301      	movs	r3, #1
 8000a92:	60bb      	str	r3, [r7, #8]
 8000a94:	2300      	movs	r3, #0
 8000a96:	60fb      	str	r3, [r7, #12]
 8000a98:	1d3b      	adds	r3, r7, #4
 8000a9a:	4619      	mov	r1, r3
 8000a9c:	4805      	ldr	r0, [pc, #20]	; (8000ab4 <MX_ADC1_Init+0x74>)
 8000a9e:	f002 fa45 	bl	8002f2c <HAL_ADC_ConfigChannel>
 8000aa2:	4603      	mov	r3, r0
 8000aa4:	2b00      	cmp	r3, #0
 8000aa6:	d001      	beq.n	8000aac <MX_ADC1_Init+0x6c>
 8000aa8:	f001 f8c4 	bl	8001c34 <Error_Handler>
 8000aac:	bf00      	nop
 8000aae:	3710      	adds	r7, #16
 8000ab0:	46bd      	mov	sp, r7
 8000ab2:	bd80      	pop	{r7, pc}
 8000ab4:	200005a8 	.word	0x200005a8
 8000ab8:	40012400 	.word	0x40012400

08000abc <HAL_ADC_MspInit>:
 8000abc:	b580      	push	{r7, lr}
 8000abe:	b088      	sub	sp, #32
 8000ac0:	af00      	add	r7, sp, #0
 8000ac2:	6078      	str	r0, [r7, #4]
 8000ac4:	f107 0310 	add.w	r3, r7, #16
 8000ac8:	2200      	movs	r2, #0
 8000aca:	601a      	str	r2, [r3, #0]
 8000acc:	605a      	str	r2, [r3, #4]
 8000ace:	609a      	str	r2, [r3, #8]
 8000ad0:	60da      	str	r2, [r3, #12]
 8000ad2:	687b      	ldr	r3, [r7, #4]
 8000ad4:	681b      	ldr	r3, [r3, #0]
 8000ad6:	4a14      	ldr	r2, [pc, #80]	; (8000b28 <HAL_ADC_MspInit+0x6c>)
 8000ad8:	4293      	cmp	r3, r2
 8000ada:	d121      	bne.n	8000b20 <HAL_ADC_MspInit+0x64>
 8000adc:	4b13      	ldr	r3, [pc, #76]	; (8000b2c <HAL_ADC_MspInit+0x70>)
 8000ade:	699b      	ldr	r3, [r3, #24]
 8000ae0:	4a12      	ldr	r2, [pc, #72]	; (8000b2c <HAL_ADC_MspInit+0x70>)
 8000ae2:	f443 7300 	orr.w	r3, r3, #512	; 0x200
 8000ae6:	6193      	str	r3, [r2, #24]
 8000ae8:	4b10      	ldr	r3, [pc, #64]	; (8000b2c <HAL_ADC_MspInit+0x70>)
 8000aea:	699b      	ldr	r3, [r3, #24]
 8000aec:	f403 7300 	and.w	r3, r3, #512	; 0x200
 8000af0:	60fb      	str	r3, [r7, #12]
 8000af2:	68fb      	ldr	r3, [r7, #12]
 8000af4:	4b0d      	ldr	r3, [pc, #52]	; (8000b2c <HAL_ADC_MspInit+0x70>)
 8000af6:	699b      	ldr	r3, [r3, #24]
 8000af8:	4a0c      	ldr	r2, [pc, #48]	; (8000b2c <HAL_ADC_MspInit+0x70>)
 8000afa:	f043 0304 	orr.w	r3, r3, #4
 8000afe:	6193      	str	r3, [r2, #24]
 8000b00:	4b0a      	ldr	r3, [pc, #40]	; (8000b2c <HAL_ADC_MspInit+0x70>)
 8000b02:	699b      	ldr	r3, [r3, #24]
 8000b04:	f003 0304 	and.w	r3, r3, #4
 8000b08:	60bb      	str	r3, [r7, #8]
 8000b0a:	68bb      	ldr	r3, [r7, #8]
 8000b0c:	2301      	movs	r3, #1
 8000b0e:	613b      	str	r3, [r7, #16]
 8000b10:	2303      	movs	r3, #3
 8000b12:	617b      	str	r3, [r7, #20]
 8000b14:	f107 0310 	add.w	r3, r7, #16
 8000b18:	4619      	mov	r1, r3
 8000b1a:	4805      	ldr	r0, [pc, #20]	; (8000b30 <HAL_ADC_MspInit+0x74>)
 8000b1c:	f002 fc46 	bl	80033ac <HAL_GPIO_Init>
 8000b20:	bf00      	nop
 8000b22:	3720      	adds	r7, #32
 8000b24:	46bd      	mov	sp, r7
 8000b26:	bd80      	pop	{r7, pc}
 8000b28:	40012400 	.word	0x40012400
 8000b2c:	40021000 	.word	0x40021000
 8000b30:	40010800 	.word	0x40010800

08000b34 <delay_init>:
 8000b34:	b580      	push	{r7, lr}
 8000b36:	af00      	add	r7, sp, #0
 8000b38:	4802      	ldr	r0, [pc, #8]	; (8000b44 <delay_init+0x10>)
 8000b3a:	f004 ff74 	bl	8005a26 <HAL_TIM_Base_Start>
 8000b3e:	bf00      	nop
 8000b40:	bd80      	pop	{r7, pc}
 8000b42:	bf00      	nop
 8000b44:	20000688 	.word	0x20000688

08000b48 <delay_us>:
 8000b48:	b480      	push	{r7}
 8000b4a:	b083      	sub	sp, #12
 8000b4c:	af00      	add	r7, sp, #0
 8000b4e:	4603      	mov	r3, r0
 8000b50:	80fb      	strh	r3, [r7, #6]
 8000b52:	4b08      	ldr	r3, [pc, #32]	; (8000b74 <delay_us+0x2c>)
 8000b54:	681b      	ldr	r3, [r3, #0]
 8000b56:	2200      	movs	r2, #0
 8000b58:	625a      	str	r2, [r3, #36]	; 0x24
 8000b5a:	bf00      	nop
 8000b5c:	4b05      	ldr	r3, [pc, #20]	; (8000b74 <delay_us+0x2c>)
 8000b5e:	681b      	ldr	r3, [r3, #0]
 8000b60:	6a5a      	ldr	r2, [r3, #36]	; 0x24
 8000b62:	88fb      	ldrh	r3, [r7, #6]
 8000b64:	429a      	cmp	r2, r3
 8000b66:	d3f9      	bcc.n	8000b5c <delay_us+0x14>
 8000b68:	bf00      	nop
 8000b6a:	370c      	adds	r7, #12
 8000b6c:	46bd      	mov	sp, r7
 8000b6e:	bc80      	pop	{r7}
 8000b70:	4770      	bx	lr
 8000b72:	bf00      	nop
 8000b74:	20000688 	.word	0x20000688

08000b78 <init_pantalla>:
 8000b78:	b580      	push	{r7, lr}
 8000b7a:	af00      	add	r7, sp, #0
 8000b7c:	f7ff ffda 	bl	8000b34 <delay_init>
 8000b80:	f7ff ff1e 	bl	80009c0 <ST7920_Init>
 8000b84:	bf00      	nop
 8000b86:	bd80      	pop	{r7, pc}

08000b88 <set_pantalla>:
 8000b88:	b580      	push	{r7, lr}
 8000b8a:	b082      	sub	sp, #8
 8000b8c:	af00      	add	r7, sp, #0
 8000b8e:	4603      	mov	r3, r0
 8000b90:	71fb      	strb	r3, [r7, #7]
 8000b92:	f7ff fecd 	bl	8000930 <ST7920_Clear>
 8000b96:	79fb      	ldrb	r3, [r7, #7]
 8000b98:	2b15      	cmp	r3, #21
 8000b9a:	f200 8117 	bhi.w	8000dcc <set_pantalla+0x244>
 8000b9e:	a201      	add	r2, pc, #4	; (adr r2, 8000ba4 <set_pantalla+0x1c>)
 8000ba0:	f852 f023 	ldr.w	pc, [r2, r3, lsl #2]
 8000ba4:	08000bfd 	.word	0x08000bfd
 8000ba8:	08000c13 	.word	0x08000c13
 8000bac:	08000c29 	.word	0x08000c29
 8000bb0:	08000c3f 	.word	0x08000c3f
 8000bb4:	08000c5f 	.word	0x08000c5f
 8000bb8:	08000c6b 	.word	0x08000c6b
 8000bbc:	08000c77 	.word	0x08000c77
 8000bc0:	08000c8d 	.word	0x08000c8d
 8000bc4:	08000ca3 	.word	0x08000ca3
 8000bc8:	08000cb9 	.word	0x08000cb9
 8000bcc:	08000cd9 	.word	0x08000cd9
 8000bd0:	08000cef 	.word	0x08000cef
 8000bd4:	08000d05 	.word	0x08000d05
 8000bd8:	08000d11 	.word	0x08000d11
 8000bdc:	08000d1d 	.word	0x08000d1d
 8000be0:	08000d33 	.word	0x08000d33
 8000be4:	08000d49 	.word	0x08000d49
 8000be8:	08000d5f 	.word	0x08000d5f
 8000bec:	08000d75 	.word	0x08000d75
 8000bf0:	08000d8b 	.word	0x08000d8b
 8000bf4:	08000da1 	.word	0x08000da1
 8000bf8:	08000db7 	.word	0x08000db7
 8000bfc:	4a75      	ldr	r2, [pc, #468]	; (8000dd4 <set_pantalla+0x24c>)
 8000bfe:	2100      	movs	r1, #0
 8000c00:	2000      	movs	r0, #0
 8000c02:	f7ff fdcf 	bl	80007a4 <ST7920_SendString>
 8000c06:	4a74      	ldr	r2, [pc, #464]	; (8000dd8 <set_pantalla+0x250>)
 8000c08:	2100      	movs	r1, #0
 8000c0a:	2001      	movs	r0, #1
 8000c0c:	f7ff fdca 	bl	80007a4 <ST7920_SendString>
 8000c10:	e0dc      	b.n	8000dcc <set_pantalla+0x244>
 8000c12:	4a72      	ldr	r2, [pc, #456]	; (8000ddc <set_pantalla+0x254>)
 8000c14:	2100      	movs	r1, #0
 8000c16:	2000      	movs	r0, #0
 8000c18:	f7ff fdc4 	bl	80007a4 <ST7920_SendString>
 8000c1c:	4a70      	ldr	r2, [pc, #448]	; (8000de0 <set_pantalla+0x258>)
 8000c1e:	2100      	movs	r1, #0
 8000c20:	2001      	movs	r0, #1
 8000c22:	f7ff fdbf 	bl	80007a4 <ST7920_SendString>
 8000c26:	e0d1      	b.n	8000dcc <set_pantalla+0x244>
 8000c28:	4a6e      	ldr	r2, [pc, #440]	; (8000de4 <set_pantalla+0x25c>)
 8000c2a:	2100      	movs	r1, #0
 8000c2c:	2000      	movs	r0, #0
 8000c2e:	f7ff fdb9 	bl	80007a4 <ST7920_SendString>
 8000c32:	4a6d      	ldr	r2, [pc, #436]	; (8000de8 <set_pantalla+0x260>)
 8000c34:	2100      	movs	r1, #0
 8000c36:	2001      	movs	r0, #1
 8000c38:	f7ff fdb4 	bl	80007a4 <ST7920_SendString>
 8000c3c:	e0c6      	b.n	8000dcc <set_pantalla+0x244>
 8000c3e:	4a6b      	ldr	r2, [pc, #428]	; (8000dec <set_pantalla+0x264>)
 8000c40:	2100      	movs	r1, #0
 8000c42:	2000      	movs	r0, #0
 8000c44:	f7ff fdae 	bl	80007a4 <ST7920_SendString>
 8000c48:	4a69      	ldr	r2, [pc, #420]	; (8000df0 <set_pantalla+0x268>)
 8000c4a:	2100      	movs	r1, #0
 8000c4c:	2001      	movs	r0, #1
 8000c4e:	f7ff fda9 	bl	80007a4 <ST7920_SendString>
 8000c52:	4a68      	ldr	r2, [pc, #416]	; (8000df4 <set_pantalla+0x26c>)
 8000c54:	2100      	movs	r1, #0
 8000c56:	2002      	movs	r0, #2
 8000c58:	f7ff fda4 	bl	80007a4 <ST7920_SendString>
 8000c5c:	e0b6      	b.n	8000dcc <set_pantalla+0x244>
 8000c5e:	4a66      	ldr	r2, [pc, #408]	; (8000df8 <set_pantalla+0x270>)
 8000c60:	2100      	movs	r1, #0
 8000c62:	2000      	movs	r0, #0
 8000c64:	f7ff fd9e 	bl	80007a4 <ST7920_SendString>
 8000c68:	e0b0      	b.n	8000dcc <set_pantalla+0x244>
 8000c6a:	4a63      	ldr	r2, [pc, #396]	; (8000df8 <set_pantalla+0x270>)
 8000c6c:	2100      	movs	r1, #0
 8000c6e:	2000      	movs	r0, #0
 8000c70:	f7ff fd98 	bl	80007a4 <ST7920_SendString>
 8000c74:	e0aa      	b.n	8000dcc <set_pantalla+0x244>
 8000c76:	4a61      	ldr	r2, [pc, #388]	; (8000dfc <set_pantalla+0x274>)
 8000c78:	2100      	movs	r1, #0
 8000c7a:	2000      	movs	r0, #0
 8000c7c:	f7ff fd92 	bl	80007a4 <ST7920_SendString>
 8000c80:	4a5f      	ldr	r2, [pc, #380]	; (8000e00 <set_pantalla+0x278>)
 8000c82:	2100      	movs	r1, #0
 8000c84:	2001      	movs	r0, #1
 8000c86:	f7ff fd8d 	bl	80007a4 <ST7920_SendString>
 8000c8a:	e09f      	b.n	8000dcc <set_pantalla+0x244>
 8000c8c:	4a5d      	ldr	r2, [pc, #372]	; (8000e04 <set_pantalla+0x27c>)
 8000c8e:	2100      	movs	r1, #0
 8000c90:	2000      	movs	r0, #0
 8000c92:	f7ff fd87 	bl	80007a4 <ST7920_SendString>
 8000c96:	4a5c      	ldr	r2, [pc, #368]	; (8000e08 <set_pantalla+0x280>)
 8000c98:	2100      	movs	r1, #0
 8000c9a:	2001      	movs	r0, #1
 8000c9c:	f7ff fd82 	bl	80007a4 <ST7920_SendString>
 8000ca0:	e094      	b.n	8000dcc <set_pantalla+0x244>
 8000ca2:	4a58      	ldr	r2, [pc, #352]	; (8000e04 <set_pantalla+0x27c>)
 8000ca4:	2100      	movs	r1, #0
 8000ca6:	2000      	movs	r0, #0
 8000ca8:	f7ff fd7c 	bl	80007a4 <ST7920_SendString>
 8000cac:	4a57      	ldr	r2, [pc, #348]	; (8000e0c <set_pantalla+0x284>)
 8000cae:	2100      	movs	r1, #0
 8000cb0:	2001      	movs	r0, #1
 8000cb2:	f7ff fd77 	bl	80007a4 <ST7920_SendString>
 8000cb6:	e089      	b.n	8000dcc <set_pantalla+0x244>
 8000cb8:	4a4c      	ldr	r2, [pc, #304]	; (8000dec <set_pantalla+0x264>)
 8000cba:	2100      	movs	r1, #0
 8000cbc:	2000      	movs	r0, #0
 8000cbe:	f7ff fd71 	bl	80007a4 <ST7920_SendString>
 8000cc2:	4a53      	ldr	r2, [pc, #332]	; (8000e10 <set_pantalla+0x288>)
 8000cc4:	2100      	movs	r1, #0
 8000cc6:	2001      	movs	r0, #1
 8000cc8:	f7ff fd6c 	bl	80007a4 <ST7920_SendString>
 8000ccc:	4a51      	ldr	r2, [pc, #324]	; (8000e14 <set_pantalla+0x28c>)
 8000cce:	2100      	movs	r1, #0
 8000cd0:	2002      	movs	r0, #2
 8000cd2:	f7ff fd67 	bl	80007a4 <ST7920_SendString>
 8000cd6:	e079      	b.n	8000dcc <set_pantalla+0x244>
 8000cd8:	4a4f      	ldr	r2, [pc, #316]	; (8000e18 <set_pantalla+0x290>)
 8000cda:	2100      	movs	r1, #0
 8000cdc:	2000      	movs	r0, #0
 8000cde:	f7ff fd61 	bl	80007a4 <ST7920_SendString>
 8000ce2:	4a4e      	ldr	r2, [pc, #312]	; (8000e1c <set_pantalla+0x294>)
 8000ce4:	2100      	movs	r1, #0
 8000ce6:	2001      	movs	r0, #1
 8000ce8:	f7ff fd5c 	bl	80007a4 <ST7920_SendString>
 8000cec:	e06e      	b.n	8000dcc <set_pantalla+0x244>
 8000cee:	4a3b      	ldr	r2, [pc, #236]	; (8000ddc <set_pantalla+0x254>)
 8000cf0:	2100      	movs	r1, #0
 8000cf2:	2000      	movs	r0, #0
 8000cf4:	f7ff fd56 	bl	80007a4 <ST7920_SendString>
 8000cf8:	4a39      	ldr	r2, [pc, #228]	; (8000de0 <set_pantalla+0x258>)
 8000cfa:	2100      	movs	r1, #0
 8000cfc:	2001      	movs	r0, #1
 8000cfe:	f7ff fd51 	bl	80007a4 <ST7920_SendString>
 8000d02:	e063      	b.n	8000dcc <set_pantalla+0x244>
 8000d04:	4a46      	ldr	r2, [pc, #280]	; (8000e20 <set_pantalla+0x298>)
 8000d06:	2100      	movs	r1, #0
 8000d08:	2000      	movs	r0, #0
 8000d0a:	f7ff fd4b 	bl	80007a4 <ST7920_SendString>
 8000d0e:	e05d      	b.n	8000dcc <set_pantalla+0x244>
 8000d10:	4a44      	ldr	r2, [pc, #272]	; (8000e24 <set_pantalla+0x29c>)
 8000d12:	2100      	movs	r1, #0
 8000d14:	2000      	movs	r0, #0
 8000d16:	f7ff fd45 	bl	80007a4 <ST7920_SendString>
 8000d1a:	e057      	b.n	8000dcc <set_pantalla+0x244>
 8000d1c:	4a42      	ldr	r2, [pc, #264]	; (8000e28 <set_pantalla+0x2a0>)
 8000d1e:	2100      	movs	r1, #0
 8000d20:	2000      	movs	r0, #0
 8000d22:	f7ff fd3f 	bl	80007a4 <ST7920_SendString>
 8000d26:	4a41      	ldr	r2, [pc, #260]	; (8000e2c <set_pantalla+0x2a4>)
 8000d28:	2100      	movs	r1, #0
 8000d2a:	2001      	movs	r0, #1
 8000d2c:	f7ff fd3a 	bl	80007a4 <ST7920_SendString>
 8000d30:	e04c      	b.n	8000dcc <set_pantalla+0x244>
 8000d32:	4a3f      	ldr	r2, [pc, #252]	; (8000e30 <set_pantalla+0x2a8>)
 8000d34:	2100      	movs	r1, #0
 8000d36:	2000      	movs	r0, #0
 8000d38:	f7ff fd34 	bl	80007a4 <ST7920_SendString>
 8000d3c:	4a3d      	ldr	r2, [pc, #244]	; (8000e34 <set_pantalla+0x2ac>)
 8000d3e:	2100      	movs	r1, #0
 8000d40:	2001      	movs	r0, #1
 8000d42:	f7ff fd2f 	bl	80007a4 <ST7920_SendString>
 8000d46:	e041      	b.n	8000dcc <set_pantalla+0x244>
 8000d48:	4a3b      	ldr	r2, [pc, #236]	; (8000e38 <set_pantalla+0x2b0>)
 8000d4a:	2100      	movs	r1, #0
 8000d4c:	2000      	movs	r0, #0
 8000d4e:	f7ff fd29 	bl	80007a4 <ST7920_SendString>
 8000d52:	4a3a      	ldr	r2, [pc, #232]	; (8000e3c <set_pantalla+0x2b4>)
 8000d54:	2100      	movs	r1, #0
 8000d56:	2001      	movs	r0, #1
 8000d58:	f7ff fd24 	bl	80007a4 <ST7920_SendString>
 8000d5c:	e036      	b.n	8000dcc <set_pantalla+0x244>
 8000d5e:	4a38      	ldr	r2, [pc, #224]	; (8000e40 <set_pantalla+0x2b8>)
 8000d60:	2100      	movs	r1, #0
 8000d62:	2000      	movs	r0, #0
 8000d64:	f7ff fd1e 	bl	80007a4 <ST7920_SendString>
 8000d68:	4a27      	ldr	r2, [pc, #156]	; (8000e08 <set_pantalla+0x280>)
 8000d6a:	2100      	movs	r1, #0
 8000d6c:	2001      	movs	r0, #1
 8000d6e:	f7ff fd19 	bl	80007a4 <ST7920_SendString>
 8000d72:	e02b      	b.n	8000dcc <set_pantalla+0x244>
 8000d74:	4a32      	ldr	r2, [pc, #200]	; (8000e40 <set_pantalla+0x2b8>)
 8000d76:	2100      	movs	r1, #0
 8000d78:	2000      	movs	r0, #0
 8000d7a:	f7ff fd13 	bl	80007a4 <ST7920_SendString>
 8000d7e:	4a23      	ldr	r2, [pc, #140]	; (8000e0c <set_pantalla+0x284>)
 8000d80:	2100      	movs	r1, #0
 8000d82:	2001      	movs	r0, #1
 8000d84:	f7ff fd0e 	bl	80007a4 <ST7920_SendString>
 8000d88:	e020      	b.n	8000dcc <set_pantalla+0x244>
 8000d8a:	4a2e      	ldr	r2, [pc, #184]	; (8000e44 <set_pantalla+0x2bc>)
 8000d8c:	2100      	movs	r1, #0
 8000d8e:	2000      	movs	r0, #0
 8000d90:	f7ff fd08 	bl	80007a4 <ST7920_SendString>
 8000d94:	4a2c      	ldr	r2, [pc, #176]	; (8000e48 <set_pantalla+0x2c0>)
 8000d96:	2100      	movs	r1, #0
 8000d98:	2001      	movs	r0, #1
 8000d9a:	f7ff fd03 	bl	80007a4 <ST7920_SendString>
 8000d9e:	e015      	b.n	8000dcc <set_pantalla+0x244>
 8000da0:	4a2a      	ldr	r2, [pc, #168]	; (8000e4c <set_pantalla+0x2c4>)
 8000da2:	2100      	movs	r1, #0
 8000da4:	2000      	movs	r0, #0
 8000da6:	f7ff fcfd 	bl	80007a4 <ST7920_SendString>
 8000daa:	4a29      	ldr	r2, [pc, #164]	; (8000e50 <set_pantalla+0x2c8>)
 8000dac:	2100      	movs	r1, #0
 8000dae:	2001      	movs	r0, #1
 8000db0:	f7ff fcf8 	bl	80007a4 <ST7920_SendString>
 8000db4:	e00a      	b.n	8000dcc <set_pantalla+0x244>
 8000db6:	4a25      	ldr	r2, [pc, #148]	; (8000e4c <set_pantalla+0x2c4>)
 8000db8:	2100      	movs	r1, #0
 8000dba:	2000      	movs	r0, #0
 8000dbc:	f7ff fcf2 	bl	80007a4 <ST7920_SendString>
 8000dc0:	4a24      	ldr	r2, [pc, #144]	; (8000e54 <set_pantalla+0x2cc>)
 8000dc2:	2100      	movs	r1, #0
 8000dc4:	2001      	movs	r0, #1
 8000dc6:	f7ff fced 	bl	80007a4 <ST7920_SendString>
 8000dca:	bf00      	nop
 8000dcc:	bf00      	nop
 8000dce:	3708      	adds	r7, #8
 8000dd0:	46bd      	mov	sp, r7
 8000dd2:	bd80      	pop	{r7, pc}
 8000dd4:	08006c04 	.word	0x08006c04
 8000dd8:	08006c18 	.word	0x08006c18
 8000ddc:	08006c24 	.word	0x08006c24
 8000de0:	08006c2c 	.word	0x08006c2c
 8000de4:	08006c38 	.word	0x08006c38
 8000de8:	08006c44 	.word	0x08006c44
 8000dec:	08006c50 	.word	0x08006c50
 8000df0:	08006c60 	.word	0x08006c60
 8000df4:	08006c70 	.word	0x08006c70
 8000df8:	08006c78 	.word	0x08006c78
 8000dfc:	08006c8c 	.word	0x08006c8c
 8000e00:	08006c9c 	.word	0x08006c9c
 8000e04:	08006ca8 	.word	0x08006ca8
 8000e08:	08006cbc 	.word	0x08006cbc
 8000e0c:	08006ccc 	.word	0x08006ccc
 8000e10:	08006ce0 	.word	0x08006ce0
 8000e14:	08006cf0 	.word	0x08006cf0
 8000e18:	08006cfc 	.word	0x08006cfc
 8000e1c:	08006d08 	.word	0x08006d08
 8000e20:	08006d10 	.word	0x08006d10
 8000e24:	08006d1c 	.word	0x08006d1c
 8000e28:	08006d2c 	.word	0x08006d2c
 8000e2c:	08006d40 	.word	0x08006d40
 8000e30:	08006d4c 	.word	0x08006d4c
 8000e34:	08006d5c 	.word	0x08006d5c
 8000e38:	08006d6c 	.word	0x08006d6c
 8000e3c:	08006d80 	.word	0x08006d80
 8000e40:	08006d90 	.word	0x08006d90
 8000e44:	08006da4 	.word	0x08006da4
 8000e48:	08006db8 	.word	0x08006db8
 8000e4c:	08006dc8 	.word	0x08006dc8
 8000e50:	08006dd4 	.word	0x08006dd4
 8000e54:	08006de0 	.word	0x08006de0

08000e58 <setTexto_pantalla>:
 8000e58:	b580      	push	{r7, lr}
 8000e5a:	b082      	sub	sp, #8
 8000e5c:	af00      	add	r7, sp, #0
 8000e5e:	6078      	str	r0, [r7, #4]
 8000e60:	f7ff fd66 	bl	8000930 <ST7920_Clear>
 8000e64:	687a      	ldr	r2, [r7, #4]
 8000e66:	2100      	movs	r1, #0
 8000e68:	2000      	movs	r0, #0
 8000e6a:	f7ff fc9b 	bl	80007a4 <ST7920_SendString>
 8000e6e:	bf00      	nop
 8000e70:	3708      	adds	r7, #8
 8000e72:	46bd      	mov	sp, r7
 8000e74:	bd80      	pop	{r7, pc}
	...

08000e78 <pantallaUpdate>:
 8000e78:	b580      	push	{r7, lr}
 8000e7a:	af00      	add	r7, sp, #0
 8000e7c:	4b05      	ldr	r3, [pc, #20]	; (8000e94 <pantallaUpdate+0x1c>)
 8000e7e:	781b      	ldrb	r3, [r3, #0]
 8000e80:	2b00      	cmp	r3, #0
 8000e82:	d004      	beq.n	8000e8e <pantallaUpdate+0x16>
 8000e84:	f7ff fd4a 	bl	800091c <ST7920_Update>
 8000e88:	4b02      	ldr	r3, [pc, #8]	; (8000e94 <pantallaUpdate+0x1c>)
 8000e8a:	2200      	movs	r2, #0
 8000e8c:	701a      	strb	r2, [r3, #0]
 8000e8e:	bf00      	nop
 8000e90:	bd80      	pop	{r7, pc}
 8000e92:	bf00      	nop
 8000e94:	20000115 	.word	0x20000115

08000e98 <setProg_hidro>:

/////////////////////////////////////////
//          INICIALIZADORES            //
/////////////////////////////////////////

T_PROG_OUTPUT setProg_hidro (T_PROG_CMD cmd){
 8000e98:	b580      	push	{r7, lr}
 8000e9a:	b084      	sub	sp, #16
 8000e9c:	af00      	add	r7, sp, #0
 8000e9e:	4603      	mov	r3, r0
 8000ea0:	71fb      	strb	r3, [r7, #7]

	int8_t newNumber = getNumber();
 8000ea2:	f7ff fb55 	bl	8000550 <getNumber>
 8000ea6:	4603      	mov	r3, r0
 8000ea8:	73fb      	strb	r3, [r7, #15]

	switch (statusTiempoHidro) {
 8000eaa:	4b7b      	ldr	r3, [pc, #492]	; (8001098 <setProg_hidro+0x200>)
 8000eac:	781b      	ldrb	r3, [r3, #0]
 8000eae:	2b03      	cmp	r3, #3
 8000eb0:	f200 80e3 	bhi.w	800107a <setProg_hidro+0x1e2>
 8000eb4:	a201      	add	r2, pc, #4	; (adr r2, 8000ebc <setProg_hidro+0x24>)
 8000eb6:	f852 f023 	ldr.w	pc, [r2, r3, lsl #2]
 8000eba:	bf00      	nop
 8000ebc:	08000ecd 	.word	0x08000ecd
 8000ec0:	08000f0f 	.word	0x08000f0f
 8000ec4:	08000fad 	.word	0x08000fad
 8000ec8:	08001067 	.word	0x08001067
		case 0: //tiempo en 0.
			if (getStatBoton(IN_AST) == FALL) {
 8000ecc:	200c      	movs	r0, #12
 8000ece:	f7ff faff 	bl	80004d0 <getStatBoton>
 8000ed2:	4603      	mov	r3, r0
 8000ed4:	2b02      	cmp	r3, #2
 8000ed6:	d101      	bne.n	8000edc <setProg_hidro+0x44>
//			menuActual = menuActual->menuPadre;
//			HMI_setPage(menuActual->nombre);
				return PROG_IDLE;
 8000ed8:	2301      	movs	r3, #1
 8000eda:	e0d8      	b.n	800108e <setProg_hidro+0x1f6>
			}

			if (newNumber > 0) {
 8000edc:	f997 300f 	ldrsb.w	r3, [r7, #15]
 8000ee0:	2b00      	cmp	r3, #0
 8000ee2:	f340 80cc 	ble.w	800107e <setProg_hidro+0x1e6>
				tiempoHidroAux = newNumber;
 8000ee6:	f997 300f 	ldrsb.w	r3, [r7, #15]
 8000eea:	b21a      	sxth	r2, r3
 8000eec:	4b6b      	ldr	r3, [pc, #428]	; (800109c <setProg_hidro+0x204>)
 8000eee:	801a      	strh	r2, [r3, #0]
				sprintf(texto, "%d min.", tiempoHidroAux);
 8000ef0:	4b6a      	ldr	r3, [pc, #424]	; (800109c <setProg_hidro+0x204>)
 8000ef2:	f9b3 3000 	ldrsh.w	r3, [r3]
 8000ef6:	461a      	mov	r2, r3
 8000ef8:	4969      	ldr	r1, [pc, #420]	; (80010a0 <setProg_hidro+0x208>)
 8000efa:	486a      	ldr	r0, [pc, #424]	; (80010a4 <setProg_hidro+0x20c>)
 8000efc:	f005 fa64 	bl	80063c8 <siprintf>
				setTexto_pantalla(texto);
 8000f00:	4868      	ldr	r0, [pc, #416]	; (80010a4 <setProg_hidro+0x20c>)
 8000f02:	f7ff ffa9 	bl	8000e58 <setTexto_pantalla>
				statusTiempoHidro = 1;
 8000f06:	4b64      	ldr	r3, [pc, #400]	; (8001098 <setProg_hidro+0x200>)
 8000f08:	2201      	movs	r2, #1
 8000f0a:	701a      	strb	r2, [r3, #0]
			}
		break;
 8000f0c:	e0b7      	b.n	800107e <setProg_hidro+0x1e6>
		case 1: //lote entre 1 y 9.
			if (getStatBoton(IN_AST) == FALL) {
 8000f0e:	200c      	movs	r0, #12
 8000f10:	f7ff fade 	bl	80004d0 <getStatBoton>
 8000f14:	4603      	mov	r3, r0
 8000f16:	2b02      	cmp	r3, #2
 8000f18:	d111      	bne.n	8000f3e <setProg_hidro+0xa6>
				tiempoHidroAux = 0;
 8000f1a:	4b60      	ldr	r3, [pc, #384]	; (800109c <setProg_hidro+0x204>)
 8000f1c:	2200      	movs	r2, #0
 8000f1e:	801a      	strh	r2, [r3, #0]
				sprintf(texto, "%d min.", tiempoHidroAux);
 8000f20:	4b5e      	ldr	r3, [pc, #376]	; (800109c <setProg_hidro+0x204>)
 8000f22:	f9b3 3000 	ldrsh.w	r3, [r3]
 8000f26:	461a      	mov	r2, r3
 8000f28:	495d      	ldr	r1, [pc, #372]	; (80010a0 <setProg_hidro+0x208>)
 8000f2a:	485e      	ldr	r0, [pc, #376]	; (80010a4 <setProg_hidro+0x20c>)
 8000f2c:	f005 fa4c 	bl	80063c8 <siprintf>
				setTexto_pantalla(texto);
 8000f30:	485c      	ldr	r0, [pc, #368]	; (80010a4 <setProg_hidro+0x20c>)
 8000f32:	f7ff ff91 	bl	8000e58 <setTexto_pantalla>
				statusTiempoHidro = 0;
 8000f36:	4b58      	ldr	r3, [pc, #352]	; (8001098 <setProg_hidro+0x200>)
 8000f38:	2200      	movs	r2, #0
 8000f3a:	701a      	strb	r2, [r3, #0]
				break;
 8000f3c:	e0a6      	b.n	800108c <setProg_hidro+0x1f4>
			}

			if (getStatBoton(IN_HASH) == FALL) {
 8000f3e:	200e      	movs	r0, #14
 8000f40:	f7ff fac6 	bl	80004d0 <getStatBoton>
 8000f44:	4603      	mov	r3, r0
 8000f46:	2b02      	cmp	r3, #2
 8000f48:	d103      	bne.n	8000f52 <setProg_hidro+0xba>
				statusTiempoHidro = 3;
 8000f4a:	4b53      	ldr	r3, [pc, #332]	; (8001098 <setProg_hidro+0x200>)
 8000f4c:	2203      	movs	r2, #3
 8000f4e:	701a      	strb	r2, [r3, #0]
				break;
 8000f50:	e09c      	b.n	800108c <setProg_hidro+0x1f4>
			}

			if (newNumber != -1) {
 8000f52:	f997 300f 	ldrsb.w	r3, [r7, #15]
 8000f56:	f1b3 3fff 	cmp.w	r3, #4294967295
 8000f5a:	f000 8092 	beq.w	8001082 <setProg_hidro+0x1ea>
				tiempoHidroAux *= 10;
 8000f5e:	4b4f      	ldr	r3, [pc, #316]	; (800109c <setProg_hidro+0x204>)
 8000f60:	f9b3 3000 	ldrsh.w	r3, [r3]
 8000f64:	b29b      	uxth	r3, r3
 8000f66:	461a      	mov	r2, r3
 8000f68:	0092      	lsls	r2, r2, #2
 8000f6a:	4413      	add	r3, r2
 8000f6c:	005b      	lsls	r3, r3, #1
 8000f6e:	b29b      	uxth	r3, r3
 8000f70:	b21a      	sxth	r2, r3
 8000f72:	4b4a      	ldr	r3, [pc, #296]	; (800109c <setProg_hidro+0x204>)
 8000f74:	801a      	strh	r2, [r3, #0]
				tiempoHidroAux += newNumber;
 8000f76:	f997 300f 	ldrsb.w	r3, [r7, #15]
 8000f7a:	b29a      	uxth	r2, r3
 8000f7c:	4b47      	ldr	r3, [pc, #284]	; (800109c <setProg_hidro+0x204>)
 8000f7e:	f9b3 3000 	ldrsh.w	r3, [r3]
 8000f82:	b29b      	uxth	r3, r3
 8000f84:	4413      	add	r3, r2
 8000f86:	b29b      	uxth	r3, r3
 8000f88:	b21a      	sxth	r2, r3
 8000f8a:	4b44      	ldr	r3, [pc, #272]	; (800109c <setProg_hidro+0x204>)
 8000f8c:	801a      	strh	r2, [r3, #0]
				sprintf(texto, "%d min.", tiempoHidroAux);
 8000f8e:	4b43      	ldr	r3, [pc, #268]	; (800109c <setProg_hidro+0x204>)
 8000f90:	f9b3 3000 	ldrsh.w	r3, [r3]
 8000f94:	461a      	mov	r2, r3
 8000f96:	4942      	ldr	r1, [pc, #264]	; (80010a0 <setProg_hidro+0x208>)
 8000f98:	4842      	ldr	r0, [pc, #264]	; (80010a4 <setProg_hidro+0x20c>)
 8000f9a:	f005 fa15 	bl	80063c8 <siprintf>
				setTexto_pantalla(texto);
 8000f9e:	4841      	ldr	r0, [pc, #260]	; (80010a4 <setProg_hidro+0x20c>)
 8000fa0:	f7ff ff5a 	bl	8000e58 <setTexto_pantalla>
				statusTiempoHidro = 2;
 8000fa4:	4b3c      	ldr	r3, [pc, #240]	; (8001098 <setProg_hidro+0x200>)
 8000fa6:	2202      	movs	r2, #2
 8000fa8:	701a      	strb	r2, [r3, #0]
				break;
 8000faa:	e06f      	b.n	800108c <setProg_hidro+0x1f4>
			}

		break;
		case 2: //lote en 10 o ms...
			if (getStatBoton(IN_AST) == FALL) {
 8000fac:	200c      	movs	r0, #12
 8000fae:	f7ff fa8f 	bl	80004d0 <getStatBoton>
 8000fb2:	4603      	mov	r3, r0
 8000fb4:	2b02      	cmp	r3, #2
 8000fb6:	d11e      	bne.n	8000ff6 <setProg_hidro+0x15e>
				tiempoHidroAux /= 10;
 8000fb8:	4b38      	ldr	r3, [pc, #224]	; (800109c <setProg_hidro+0x204>)
 8000fba:	f9b3 3000 	ldrsh.w	r3, [r3]
 8000fbe:	4a3a      	ldr	r2, [pc, #232]	; (80010a8 <setProg_hidro+0x210>)
 8000fc0:	fb82 1203 	smull	r1, r2, r2, r3
 8000fc4:	1092      	asrs	r2, r2, #2
 8000fc6:	17db      	asrs	r3, r3, #31
 8000fc8:	1ad3      	subs	r3, r2, r3
 8000fca:	b21a      	sxth	r2, r3
 8000fcc:	4b33      	ldr	r3, [pc, #204]	; (800109c <setProg_hidro+0x204>)
 8000fce:	801a      	strh	r2, [r3, #0]
				sprintf(texto, "%d min.", tiempoHidroAux);
 8000fd0:	4b32      	ldr	r3, [pc, #200]	; (800109c <setProg_hidro+0x204>)
 8000fd2:	f9b3 3000 	ldrsh.w	r3, [r3]
 8000fd6:	461a      	mov	r2, r3
 8000fd8:	4931      	ldr	r1, [pc, #196]	; (80010a0 <setProg_hidro+0x208>)
 8000fda:	4832      	ldr	r0, [pc, #200]	; (80010a4 <setProg_hidro+0x20c>)
 8000fdc:	f005 f9f4 	bl	80063c8 <siprintf>
				setTexto_pantalla(texto);
 8000fe0:	4830      	ldr	r0, [pc, #192]	; (80010a4 <setProg_hidro+0x20c>)
 8000fe2:	f7ff ff39 	bl	8000e58 <setTexto_pantalla>
				if (statusTiempoHidro < 10) {
 8000fe6:	4b2c      	ldr	r3, [pc, #176]	; (8001098 <setProg_hidro+0x200>)
 8000fe8:	781b      	ldrb	r3, [r3, #0]
 8000fea:	2b09      	cmp	r3, #9
 8000fec:	d84b      	bhi.n	8001086 <setProg_hidro+0x1ee>
					statusTiempoHidro = 1;
 8000fee:	4b2a      	ldr	r3, [pc, #168]	; (8001098 <setProg_hidro+0x200>)
 8000ff0:	2201      	movs	r2, #1
 8000ff2:	701a      	strb	r2, [r3, #0]
				}
				break;
 8000ff4:	e047      	b.n	8001086 <setProg_hidro+0x1ee>
			}

			if (getStatBoton(IN_HASH) == FALL) {
 8000ff6:	200e      	movs	r0, #14
 8000ff8:	f7ff fa6a 	bl	80004d0 <getStatBoton>
 8000ffc:	4603      	mov	r3, r0
 8000ffe:	2b02      	cmp	r3, #2
 8001000:	d103      	bne.n	800100a <setProg_hidro+0x172>
				statusTiempoHidro = 3;
 8001002:	4b25      	ldr	r3, [pc, #148]	; (8001098 <setProg_hidro+0x200>)
 8001004:	2203      	movs	r2, #3
 8001006:	701a      	strb	r2, [r3, #0]
				break;
 8001008:	e040      	b.n	800108c <setProg_hidro+0x1f4>
			}

			if (tiempoHidroAux < 120) {
 800100a:	4b24      	ldr	r3, [pc, #144]	; (800109c <setProg_hidro+0x204>)
 800100c:	f9b3 3000 	ldrsh.w	r3, [r3]
 8001010:	2b77      	cmp	r3, #119	; 0x77
 8001012:	dc3a      	bgt.n	800108a <setProg_hidro+0x1f2>
				if (newNumber != -1) {
 8001014:	f997 300f 	ldrsb.w	r3, [r7, #15]
 8001018:	f1b3 3fff 	cmp.w	r3, #4294967295
 800101c:	d035      	beq.n	800108a <setProg_hidro+0x1f2>
					tiempoHidroAux *= 10;
 800101e:	4b1f      	ldr	r3, [pc, #124]	; (800109c <setProg_hidro+0x204>)
 8001020:	f9b3 3000 	ldrsh.w	r3, [r3]
 8001024:	b29b      	uxth	r3, r3
 8001026:	461a      	mov	r2, r3
 8001028:	0092      	lsls	r2, r2, #2
 800102a:	4413      	add	r3, r2
 800102c:	005b      	lsls	r3, r3, #1
 800102e:	b29b      	uxth	r3, r3
 8001030:	b21a      	sxth	r2, r3
 8001032:	4b1a      	ldr	r3, [pc, #104]	; (800109c <setProg_hidro+0x204>)
 8001034:	801a      	strh	r2, [r3, #0]
					tiempoHidroAux += newNumber;
 8001036:	f997 300f 	ldrsb.w	r3, [r7, #15]
 800103a:	b29a      	uxth	r2, r3
 800103c:	4b17      	ldr	r3, [pc, #92]	; (800109c <setProg_hidro+0x204>)
 800103e:	f9b3 3000 	ldrsh.w	r3, [r3]
 8001042:	b29b      	uxth	r3, r3
 8001044:	4413      	add	r3, r2
 8001046:	b29b      	uxth	r3, r3
 8001048:	b21a      	sxth	r2, r3
 800104a:	4b14      	ldr	r3, [pc, #80]	; (800109c <setProg_hidro+0x204>)
 800104c:	801a      	strh	r2, [r3, #0]
					sprintf(texto, "%d min.", tiempoHidroAux);
 800104e:	4b13      	ldr	r3, [pc, #76]	; (800109c <setProg_hidro+0x204>)
 8001050:	f9b3 3000 	ldrsh.w	r3, [r3]
 8001054:	461a      	mov	r2, r3
 8001056:	4912      	ldr	r1, [pc, #72]	; (80010a0 <setProg_hidro+0x208>)
 8001058:	4812      	ldr	r0, [pc, #72]	; (80010a4 <setProg_hidro+0x20c>)
 800105a:	f005 f9b5 	bl	80063c8 <siprintf>
					setTexto_pantalla(texto);
 800105e:	4811      	ldr	r0, [pc, #68]	; (80010a4 <setProg_hidro+0x20c>)
 8001060:	f7ff fefa 	bl	8000e58 <setTexto_pantalla>
					break;
 8001064:	e012      	b.n	800108c <setProg_hidro+0x1f4>
			}

		break;
		case 3: //retorna y graba el valor

			tiempoHidro = tiempoHidroAux;
 8001066:	4b0d      	ldr	r3, [pc, #52]	; (800109c <setProg_hidro+0x204>)
 8001068:	f9b3 2000 	ldrsh.w	r2, [r3]
 800106c:	4b0f      	ldr	r3, [pc, #60]	; (80010ac <setProg_hidro+0x214>)
 800106e:	801a      	strh	r2, [r3, #0]
			statusTiempoHidro = 0;
 8001070:	4b09      	ldr	r3, [pc, #36]	; (8001098 <setProg_hidro+0x200>)
 8001072:	2200      	movs	r2, #0
 8001074:	701a      	strb	r2, [r3, #0]

			return PROG_FINISHED;
 8001076:	2303      	movs	r3, #3
 8001078:	e009      	b.n	800108e <setProg_hidro+0x1f6>
		break;

		default:
			return PROG_ERROR;
 800107a:	2300      	movs	r3, #0
 800107c:	e007      	b.n	800108e <setProg_hidro+0x1f6>
		break;
 800107e:	bf00      	nop
 8001080:	e004      	b.n	800108c <setProg_hidro+0x1f4>
		break;
 8001082:	bf00      	nop
 8001084:	e002      	b.n	800108c <setProg_hidro+0x1f4>
				break;
 8001086:	bf00      	nop
 8001088:	e000      	b.n	800108c <setProg_hidro+0x1f4>
		break;
 800108a:	bf00      	nop
		break;
	} //end switch statusTiempoHidro.

	return PROG_BUSY;
 800108c:	2302      	movs	r3, #2

} //end setProg_hidro()
 800108e:	4618      	mov	r0, r3
 8001090:	3710      	adds	r7, #16
 8001092:	46bd      	mov	sp, r7
 8001094:	bd80      	pop	{r7, pc}
 8001096:	bf00      	nop
 8001098:	2000011a 	.word	0x2000011a
 800109c:	20000116 	.word	0x20000116
 80010a0:	08006dec 	.word	0x08006dec
 80010a4:	200005dc 	.word	0x200005dc
 80010a8:	66666667 	.word	0x66666667
 80010ac:	20000118 	.word	0x20000118

080010b0 <setProg_llenado>:


T_PROG_OUTPUT setProg_llenado (T_PROG_CMD cmd){
 80010b0:	b580      	push	{r7, lr}
 80010b2:	b084      	sub	sp, #16
 80010b4:	af00      	add	r7, sp, #0
 80010b6:	4603      	mov	r3, r0
 80010b8:	71fb      	strb	r3, [r7, #7]

	int8_t newNumber = getNumber();
 80010ba:	f7ff fa49 	bl	8000550 <getNumber>
 80010be:	4603      	mov	r3, r0
 80010c0:	73fb      	strb	r3, [r7, #15]

	switch (statusTiempoLlenado) {
 80010c2:	4b9d      	ldr	r3, [pc, #628]	; (8001338 <setProg_llenado+0x288>)
 80010c4:	781b      	ldrb	r3, [r3, #0]
 80010c6:	2b03      	cmp	r3, #3
 80010c8:	f200 8129 	bhi.w	800131e <setProg_llenado+0x26e>
 80010cc:	a201      	add	r2, pc, #4	; (adr r2, 80010d4 <setProg_llenado+0x24>)
 80010ce:	f852 f023 	ldr.w	pc, [r2, r3, lsl #2]
 80010d2:	bf00      	nop
 80010d4:	080010e5 	.word	0x080010e5
 80010d8:	08001127 	.word	0x08001127
 80010dc:	080011c5 	.word	0x080011c5
 80010e0:	080012f1 	.word	0x080012f1
		case 0: //tiempo en 0.
			if (getStatBoton(IN_AST) == FALL) {
 80010e4:	200c      	movs	r0, #12
 80010e6:	f7ff f9f3 	bl	80004d0 <getStatBoton>
 80010ea:	4603      	mov	r3, r0
 80010ec:	2b02      	cmp	r3, #2
 80010ee:	d101      	bne.n	80010f4 <setProg_llenado+0x44>
				return PROG_IDLE;
 80010f0:	2301      	movs	r3, #1
 80010f2:	e11c      	b.n	800132e <setProg_llenado+0x27e>
			}

			if (newNumber > 0) {
 80010f4:	f997 300f 	ldrsb.w	r3, [r7, #15]
 80010f8:	2b00      	cmp	r3, #0
 80010fa:	f340 8112 	ble.w	8001322 <setProg_llenado+0x272>
				tiempoLlenadoAux = newNumber;
 80010fe:	f997 300f 	ldrsb.w	r3, [r7, #15]
 8001102:	b21a      	sxth	r2, r3
 8001104:	4b8d      	ldr	r3, [pc, #564]	; (800133c <setProg_llenado+0x28c>)
 8001106:	801a      	strh	r2, [r3, #0]
				sprintf(texto, "%d min.", tiempoLlenadoAux);
 8001108:	4b8c      	ldr	r3, [pc, #560]	; (800133c <setProg_llenado+0x28c>)
 800110a:	f9b3 3000 	ldrsh.w	r3, [r3]
 800110e:	461a      	mov	r2, r3
 8001110:	498b      	ldr	r1, [pc, #556]	; (8001340 <setProg_llenado+0x290>)
 8001112:	488c      	ldr	r0, [pc, #560]	; (8001344 <setProg_llenado+0x294>)
 8001114:	f005 f958 	bl	80063c8 <siprintf>
				setTexto_pantalla(texto);
 8001118:	488a      	ldr	r0, [pc, #552]	; (8001344 <setProg_llenado+0x294>)
 800111a:	f7ff fe9d 	bl	8000e58 <setTexto_pantalla>
				statusTiempoLlenado = 1;
 800111e:	4b86      	ldr	r3, [pc, #536]	; (8001338 <setProg_llenado+0x288>)
 8001120:	2201      	movs	r2, #1
 8001122:	701a      	strb	r2, [r3, #0]
			}
		break;
 8001124:	e0fd      	b.n	8001322 <setProg_llenado+0x272>
		case 1: //lote entre 1 y 9.
			if (getStatBoton(IN_AST) == FALL) {
 8001126:	200c      	movs	r0, #12
 8001128:	f7ff f9d2 	bl	80004d0 <getStatBoton>
 800112c:	4603      	mov	r3, r0
 800112e:	2b02      	cmp	r3, #2
 8001130:	d111      	bne.n	8001156 <setProg_llenado+0xa6>
				tiempoLlenadoAux = 0;
 8001132:	4b82      	ldr	r3, [pc, #520]	; (800133c <setProg_llenado+0x28c>)
 8001134:	2200      	movs	r2, #0
 8001136:	801a      	strh	r2, [r3, #0]
				sprintf(texto, "%d min.", tiempoLlenadoAux);
 8001138:	4b80      	ldr	r3, [pc, #512]	; (800133c <setProg_llenado+0x28c>)
 800113a:	f9b3 3000 	ldrsh.w	r3, [r3]
 800113e:	461a      	mov	r2, r3
 8001140:	497f      	ldr	r1, [pc, #508]	; (8001340 <setProg_llenado+0x290>)
 8001142:	4880      	ldr	r0, [pc, #512]	; (8001344 <setProg_llenado+0x294>)
 8001144:	f005 f940 	bl	80063c8 <siprintf>
				setTexto_pantalla(texto);
 8001148:	487e      	ldr	r0, [pc, #504]	; (8001344 <setProg_llenado+0x294>)
 800114a:	f7ff fe85 	bl	8000e58 <setTexto_pantalla>
				statusTiempoLlenado = 0;
 800114e:	4b7a      	ldr	r3, [pc, #488]	; (8001338 <setProg_llenado+0x288>)
 8001150:	2200      	movs	r2, #0
 8001152:	701a      	strb	r2, [r3, #0]
				break;
 8001154:	e0ea      	b.n	800132c <setProg_llenado+0x27c>
			}

			if (getStatBoton(IN_HASH) == FALL) {
 8001156:	200e      	movs	r0, #14
 8001158:	f7ff f9ba 	bl	80004d0 <getStatBoton>
 800115c:	4603      	mov	r3, r0
 800115e:	2b02      	cmp	r3, #2
 8001160:	d103      	bne.n	800116a <setProg_llenado+0xba>
				statusTiempoLlenado = 3;
 8001162:	4b75      	ldr	r3, [pc, #468]	; (8001338 <setProg_llenado+0x288>)
 8001164:	2203      	movs	r2, #3
 8001166:	701a      	strb	r2, [r3, #0]
				break;
 8001168:	e0e0      	b.n	800132c <setProg_llenado+0x27c>
			}

			if (newNumber != -1) {
 800116a:	f997 300f 	ldrsb.w	r3, [r7, #15]
 800116e:	f1b3 3fff 	cmp.w	r3, #4294967295
 8001172:	f000 80d8 	beq.w	8001326 <setProg_llenado+0x276>
				tiempoLlenadoAux *= 10;
 8001176:	4b71      	ldr	r3, [pc, #452]	; (800133c <setProg_llenado+0x28c>)
 8001178:	f9b3 3000 	ldrsh.w	r3, [r3]
 800117c:	b29b      	uxth	r3, r3
 800117e:	461a      	mov	r2, r3
 8001180:	0092      	lsls	r2, r2, #2
 8001182:	4413      	add	r3, r2
 8001184:	005b      	lsls	r3, r3, #1
 8001186:	b29b      	uxth	r3, r3
 8001188:	b21a      	sxth	r2, r3
 800118a:	4b6c      	ldr	r3, [pc, #432]	; (800133c <setProg_llenado+0x28c>)
 800118c:	801a      	strh	r2, [r3, #0]
				tiempoLlenadoAux += newNumber;
 800118e:	f997 300f 	ldrsb.w	r3, [r7, #15]
 8001192:	b29a      	uxth	r2, r3
 8001194:	4b69      	ldr	r3, [pc, #420]	; (800133c <setProg_llenado+0x28c>)
 8001196:	f9b3 3000 	ldrsh.w	r3, [r3]
 800119a:	b29b      	uxth	r3, r3
 800119c:	4413      	add	r3, r2
 800119e:	b29b      	uxth	r3, r3
 80011a0:	b21a      	sxth	r2, r3
 80011a2:	4b66      	ldr	r3, [pc, #408]	; (800133c <setProg_llenado+0x28c>)
 80011a4:	801a      	strh	r2, [r3, #0]
				sprintf(texto, "%d min.", tiempoLlenadoAux);
 80011a6:	4b65      	ldr	r3, [pc, #404]	; (800133c <setProg_llenado+0x28c>)
 80011a8:	f9b3 3000 	ldrsh.w	r3, [r3]
 80011ac:	461a      	mov	r2, r3
 80011ae:	4964      	ldr	r1, [pc, #400]	; (8001340 <setProg_llenado+0x290>)
 80011b0:	4864      	ldr	r0, [pc, #400]	; (8001344 <setProg_llenado+0x294>)
 80011b2:	f005 f909 	bl	80063c8 <siprintf>
				setTexto_pantalla(texto);
 80011b6:	4863      	ldr	r0, [pc, #396]	; (8001344 <setProg_llenado+0x294>)
 80011b8:	f7ff fe4e 	bl	8000e58 <setTexto_pantalla>
				statusTiempoLlenado = 2;
 80011bc:	4b5e      	ldr	r3, [pc, #376]	; (8001338 <setProg_llenado+0x288>)
 80011be:	2202      	movs	r2, #2
 80011c0:	701a      	strb	r2, [r3, #0]
				break;
 80011c2:	e0b3      	b.n	800132c <setProg_llenado+0x27c>
			}

		break;
		case 2: //lote en 10 o ms...
			if (getStatBoton(IN_AST) == FALL) {
 80011c4:	200c      	movs	r0, #12
 80011c6:	f7ff f983 	bl	80004d0 <getStatBoton>
 80011ca:	4603      	mov	r3, r0
 80011cc:	2b02      	cmp	r3, #2
 80011ce:	d11f      	bne.n	8001210 <setProg_llenado+0x160>
				tiempoLlenadoAux /= 10;
 80011d0:	4b5a      	ldr	r3, [pc, #360]	; (800133c <setProg_llenado+0x28c>)
 80011d2:	f9b3 3000 	ldrsh.w	r3, [r3]
 80011d6:	4a5c      	ldr	r2, [pc, #368]	; (8001348 <setProg_llenado+0x298>)
 80011d8:	fb82 1203 	smull	r1, r2, r2, r3
 80011dc:	1092      	asrs	r2, r2, #2
 80011de:	17db      	asrs	r3, r3, #31
 80011e0:	1ad3      	subs	r3, r2, r3
 80011e2:	b21a      	sxth	r2, r3
 80011e4:	4b55      	ldr	r3, [pc, #340]	; (800133c <setProg_llenado+0x28c>)
 80011e6:	801a      	strh	r2, [r3, #0]
				sprintf(texto, "%d min.", tiempoLlenadoAux);
 80011e8:	4b54      	ldr	r3, [pc, #336]	; (800133c <setProg_llenado+0x28c>)
 80011ea:	f9b3 3000 	ldrsh.w	r3, [r3]
 80011ee:	461a      	mov	r2, r3
 80011f0:	4953      	ldr	r1, [pc, #332]	; (8001340 <setProg_llenado+0x290>)
 80011f2:	4854      	ldr	r0, [pc, #336]	; (8001344 <setProg_llenado+0x294>)
 80011f4:	f005 f8e8 	bl	80063c8 <siprintf>
				setTexto_pantalla(texto);
 80011f8:	4852      	ldr	r0, [pc, #328]	; (8001344 <setProg_llenado+0x294>)
 80011fa:	f7ff fe2d 	bl	8000e58 <setTexto_pantalla>
				if (statusTiempoLlenado < 10) {
 80011fe:	4b4e      	ldr	r3, [pc, #312]	; (8001338 <setProg_llenado+0x288>)
 8001200:	781b      	ldrb	r3, [r3, #0]
 8001202:	2b09      	cmp	r3, #9
 8001204:	f200 8091 	bhi.w	800132a <setProg_llenado+0x27a>
					statusTiempoLlenado = 1;
 8001208:	4b4b      	ldr	r3, [pc, #300]	; (8001338 <setProg_llenado+0x288>)
 800120a:	2201      	movs	r2, #1
 800120c:	701a      	strb	r2, [r3, #0]
				}
				break;
 800120e:	e08c      	b.n	800132a <setProg_llenado+0x27a>
			}

			if (getStatBoton(IN_HASH) == FALL) {
 8001210:	200e      	movs	r0, #14
 8001212:	f7ff f95d 	bl	80004d0 <getStatBoton>
 8001216:	4603      	mov	r3, r0
 8001218:	2b02      	cmp	r3, #2
 800121a:	d103      	bne.n	8001224 <setProg_llenado+0x174>
				statusTiempoLlenado = 3;
 800121c:	4b46      	ldr	r3, [pc, #280]	; (8001338 <setProg_llenado+0x288>)
 800121e:	2203      	movs	r2, #3
 8001220:	701a      	strb	r2, [r3, #0]
				break;
 8001222:	e083      	b.n	800132c <setProg_llenado+0x27c>
			}

			switch (cmd) {
 8001224:	79fb      	ldrb	r3, [r7, #7]
 8001226:	2b04      	cmp	r3, #4
 8001228:	d002      	beq.n	8001230 <setProg_llenado+0x180>
 800122a:	2b05      	cmp	r3, #5
 800122c:	d02e      	beq.n	800128c <setProg_llenado+0x1dc>
							break;
						} //end if newNumber...
					} //end iftiempoLlenadoAux...
				break;
				default:
				break;
 800122e:	e05e      	b.n	80012ee <setProg_llenado+0x23e>
					if (tiempoLlenadoAux < 30) {
 8001230:	4b42      	ldr	r3, [pc, #264]	; (800133c <setProg_llenado+0x28c>)
 8001232:	f9b3 3000 	ldrsh.w	r3, [r3]
 8001236:	2b1d      	cmp	r3, #29
 8001238:	dc56      	bgt.n	80012e8 <setProg_llenado+0x238>
						if (newNumber != -1) {
 800123a:	f997 300f 	ldrsb.w	r3, [r7, #15]
 800123e:	f1b3 3fff 	cmp.w	r3, #4294967295
 8001242:	d051      	beq.n	80012e8 <setProg_llenado+0x238>
							tiempoLlenadoAux *= 10;
 8001244:	4b3d      	ldr	r3, [pc, #244]	; (800133c <setProg_llenado+0x28c>)
 8001246:	f9b3 3000 	ldrsh.w	r3, [r3]
 800124a:	b29b      	uxth	r3, r3
 800124c:	461a      	mov	r2, r3
 800124e:	0092      	lsls	r2, r2, #2
 8001250:	4413      	add	r3, r2
 8001252:	005b      	lsls	r3, r3, #1
 8001254:	b29b      	uxth	r3, r3
 8001256:	b21a      	sxth	r2, r3
 8001258:	4b38      	ldr	r3, [pc, #224]	; (800133c <setProg_llenado+0x28c>)
 800125a:	801a      	strh	r2, [r3, #0]
							tiempoLlenadoAux += newNumber;
 800125c:	f997 300f 	ldrsb.w	r3, [r7, #15]
 8001260:	b29a      	uxth	r2, r3
 8001262:	4b36      	ldr	r3, [pc, #216]	; (800133c <setProg_llenado+0x28c>)
 8001264:	f9b3 3000 	ldrsh.w	r3, [r3]
 8001268:	b29b      	uxth	r3, r3
 800126a:	4413      	add	r3, r2
 800126c:	b29b      	uxth	r3, r3
 800126e:	b21a      	sxth	r2, r3
 8001270:	4b32      	ldr	r3, [pc, #200]	; (800133c <setProg_llenado+0x28c>)
 8001272:	801a      	strh	r2, [r3, #0]
							sprintf(texto, "%d min.", tiempoLlenadoAux);
 8001274:	4b31      	ldr	r3, [pc, #196]	; (800133c <setProg_llenado+0x28c>)
 8001276:	f9b3 3000 	ldrsh.w	r3, [r3]
 800127a:	461a      	mov	r2, r3
 800127c:	4930      	ldr	r1, [pc, #192]	; (8001340 <setProg_llenado+0x290>)
 800127e:	4831      	ldr	r0, [pc, #196]	; (8001344 <setProg_llenado+0x294>)
 8001280:	f005 f8a2 	bl	80063c8 <siprintf>
							setTexto_pantalla(texto);
 8001284:	482f      	ldr	r0, [pc, #188]	; (8001344 <setProg_llenado+0x294>)
 8001286:	f7ff fde7 	bl	8000e58 <setTexto_pantalla>
							break;
 800128a:	e030      	b.n	80012ee <setProg_llenado+0x23e>
					if (tiempoLlenadoAux < 15) {
 800128c:	4b2b      	ldr	r3, [pc, #172]	; (800133c <setProg_llenado+0x28c>)
 800128e:	f9b3 3000 	ldrsh.w	r3, [r3]
 8001292:	2b0e      	cmp	r3, #14
 8001294:	dc2a      	bgt.n	80012ec <setProg_llenado+0x23c>
						if (newNumber != -1) {
 8001296:	f997 300f 	ldrsb.w	r3, [r7, #15]
 800129a:	f1b3 3fff 	cmp.w	r3, #4294967295
 800129e:	d025      	beq.n	80012ec <setProg_llenado+0x23c>
							tiempoLlenadoAux *= 10;
 80012a0:	4b26      	ldr	r3, [pc, #152]	; (800133c <setProg_llenado+0x28c>)
 80012a2:	f9b3 3000 	ldrsh.w	r3, [r3]
 80012a6:	b29b      	uxth	r3, r3
 80012a8:	461a      	mov	r2, r3
 80012aa:	0092      	lsls	r2, r2, #2
 80012ac:	4413      	add	r3, r2
 80012ae:	005b      	lsls	r3, r3, #1
 80012b0:	b29b      	uxth	r3, r3
 80012b2:	b21a      	sxth	r2, r3
 80012b4:	4b21      	ldr	r3, [pc, #132]	; (800133c <setProg_llenado+0x28c>)
 80012b6:	801a      	strh	r2, [r3, #0]
							tiempoLlenadoAux += newNumber;
 80012b8:	f997 300f 	ldrsb.w	r3, [r7, #15]
 80012bc:	b29a      	uxth	r2, r3
 80012be:	4b1f      	ldr	r3, [pc, #124]	; (800133c <setProg_llenado+0x28c>)
 80012c0:	f9b3 3000 	ldrsh.w	r3, [r3]
 80012c4:	b29b      	uxth	r3, r3
 80012c6:	4413      	add	r3, r2
 80012c8:	b29b      	uxth	r3, r3
 80012ca:	b21a      	sxth	r2, r3
 80012cc:	4b1b      	ldr	r3, [pc, #108]	; (800133c <setProg_llenado+0x28c>)
 80012ce:	801a      	strh	r2, [r3, #0]
							sprintf(texto, "%d min.", tiempoLlenadoAux);
 80012d0:	4b1a      	ldr	r3, [pc, #104]	; (800133c <setProg_llenado+0x28c>)
 80012d2:	f9b3 3000 	ldrsh.w	r3, [r3]
 80012d6:	461a      	mov	r2, r3
 80012d8:	4919      	ldr	r1, [pc, #100]	; (8001340 <setProg_llenado+0x290>)
 80012da:	481a      	ldr	r0, [pc, #104]	; (8001344 <setProg_llenado+0x294>)
 80012dc:	f005 f874 	bl	80063c8 <siprintf>
							setTexto_pantalla(texto);
 80012e0:	4818      	ldr	r0, [pc, #96]	; (8001344 <setProg_llenado+0x294>)
 80012e2:	f7ff fdb9 	bl	8000e58 <setTexto_pantalla>
							break;
 80012e6:	e002      	b.n	80012ee <setProg_llenado+0x23e>
				break;
 80012e8:	bf00      	nop
 80012ea:	e01f      	b.n	800132c <setProg_llenado+0x27c>
				break;
 80012ec:	bf00      	nop
			} //end switch cmd

		break;
 80012ee:	e01d      	b.n	800132c <setProg_llenado+0x27c>
		case 3: //retorna y graba el valor

			switch (cmd) {
 80012f0:	79fb      	ldrb	r3, [r7, #7]
 80012f2:	2b04      	cmp	r3, #4
 80012f4:	d002      	beq.n	80012fc <setProg_llenado+0x24c>
 80012f6:	2b05      	cmp	r3, #5
 80012f8:	d006      	beq.n	8001308 <setProg_llenado+0x258>
					tiempoLlenado_ON = tiempoLlenadoAux;
				break;
				case PROG_SET2:
					tiempoLlenado_OFF = tiempoLlenadoAux;
				default:
				break;
 80012fa:	e00a      	b.n	8001312 <setProg_llenado+0x262>
					tiempoLlenado_ON = tiempoLlenadoAux;
 80012fc:	4b0f      	ldr	r3, [pc, #60]	; (800133c <setProg_llenado+0x28c>)
 80012fe:	f9b3 2000 	ldrsh.w	r2, [r3]
 8001302:	4b12      	ldr	r3, [pc, #72]	; (800134c <setProg_llenado+0x29c>)
 8001304:	801a      	strh	r2, [r3, #0]
				break;
 8001306:	e005      	b.n	8001314 <setProg_llenado+0x264>
					tiempoLlenado_OFF = tiempoLlenadoAux;
 8001308:	4b0c      	ldr	r3, [pc, #48]	; (800133c <setProg_llenado+0x28c>)
 800130a:	f9b3 2000 	ldrsh.w	r2, [r3]
 800130e:	4b10      	ldr	r3, [pc, #64]	; (8001350 <setProg_llenado+0x2a0>)
 8001310:	801a      	strh	r2, [r3, #0]
				break;
 8001312:	bf00      	nop
			} //end switch cmd

			statusTiempoLlenado = 0;
 8001314:	4b08      	ldr	r3, [pc, #32]	; (8001338 <setProg_llenado+0x288>)
 8001316:	2200      	movs	r2, #0
 8001318:	701a      	strb	r2, [r3, #0]
			return PROG_FINISHED;
 800131a:	2303      	movs	r3, #3
 800131c:	e007      	b.n	800132e <setProg_llenado+0x27e>

		break;
		default:
			return PROG_ERROR;
 800131e:	2300      	movs	r3, #0
 8001320:	e005      	b.n	800132e <setProg_llenado+0x27e>
		break;
 8001322:	bf00      	nop
 8001324:	e002      	b.n	800132c <setProg_llenado+0x27c>
		break;
 8001326:	bf00      	nop
 8001328:	e000      	b.n	800132c <setProg_llenado+0x27c>
				break;
 800132a:	bf00      	nop
		break;
	} //end switch statusTiempoLlenado.

	return PROG_BUSY;
 800132c:	2302      	movs	r3, #2

} //end setProg_llenado()
 800132e:	4618      	mov	r0, r3
 8001330:	3710      	adds	r7, #16
 8001332:	46bd      	mov	sp, r7
 8001334:	bd80      	pop	{r7, pc}
 8001336:	bf00      	nop
 8001338:	20000122 	.word	0x20000122
 800133c:	2000011c 	.word	0x2000011c
 8001340:	08006dec 	.word	0x08006dec
 8001344:	200005dc 	.word	0x200005dc
 8001348:	66666667 	.word	0x66666667
 800134c:	2000011e 	.word	0x2000011e
 8001350:	20000120 	.word	0x20000120

08001354 <setProg_luz>:
	__NOP();
	return PROG_IDLE;
} //end setProg_skimmer()


T_PROG_OUTPUT setProg_luz (T_PROG_CMD cmd){
 8001354:	b480      	push	{r7}
 8001356:	b083      	sub	sp, #12
 8001358:	af00      	add	r7, sp, #0
 800135a:	4603      	mov	r3, r0
 800135c:	71fb      	strb	r3, [r7, #7]
	__NOP();
 800135e:	bf00      	nop
	return PROG_IDLE;
 8001360:	2301      	movs	r3, #1
} //end setProg_luz()
 8001362:	4618      	mov	r0, r3
 8001364:	370c      	adds	r7, #12
 8001366:	46bd      	mov	sp, r7
 8001368:	bc80      	pop	{r7}
 800136a:	4770      	bx	lr

0800136c <runProg_hidro>:

/////////////////////////////////////////
//            ACCIONES                 //
/////////////////////////////////////////

T_PROG_OUTPUT runProg_hidro (T_PROG_CMD cmd){
 800136c:	b580      	push	{r7, lr}
 800136e:	b082      	sub	sp, #8
 8001370:	af00      	add	r7, sp, #0
 8001372:	4603      	mov	r3, r0
 8001374:	71fb      	strb	r3, [r7, #7]

	switch (cmd) {
 8001376:	79fb      	ldrb	r3, [r7, #7]
 8001378:	2b02      	cmp	r3, #2
 800137a:	d005      	beq.n	8001388 <runProg_hidro+0x1c>
 800137c:	2b03      	cmp	r3, #3
 800137e:	f000 80a7 	beq.w	80014d0 <runProg_hidro+0x164>
 8001382:	2b01      	cmp	r3, #1
 8001384:	d051      	beq.n	800142a <runProg_hidro+0xbe>
//			return PROG_FINISHED;
			status_progHidro = PROG_IDLE;
		break;

		default:
		break;
 8001386:	e0b2      	b.n	80014ee <runProg_hidro+0x182>
			setOutput(OUT_rele_jet, 1); //logica positiva
 8001388:	2101      	movs	r1, #1
 800138a:	200c      	movs	r0, #12
 800138c:	f7ff f93a 	bl	8000604 <setOutput>
			set_led(OUT_led_jet, TITILA_LENTO);
 8001390:	2102      	movs	r1, #2
 8001392:	2002      	movs	r0, #2
 8001394:	f000 fb38 	bl	8001a08 <set_led>
			fecha_hidro = get_fecha();
 8001398:	f000 fa6e 	bl	8001878 <get_fecha>
 800139c:	4602      	mov	r2, r0
 800139e:	4b57      	ldr	r3, [pc, #348]	; (80014fc <runProg_hidro+0x190>)
 80013a0:	4611      	mov	r1, r2
 80013a2:	7019      	strb	r1, [r3, #0]
 80013a4:	f3c2 2107 	ubfx	r1, r2, #8, #8
 80013a8:	7059      	strb	r1, [r3, #1]
 80013aa:	f3c2 4107 	ubfx	r1, r2, #16, #8
 80013ae:	7099      	strb	r1, [r3, #2]
 80013b0:	f3c2 6207 	ubfx	r2, r2, #24, #8
 80013b4:	70da      	strb	r2, [r3, #3]
			hora_hidro = get_hora();
 80013b6:	f000 fa57 	bl	8001868 <get_hora>
 80013ba:	4602      	mov	r2, r0
 80013bc:	4b50      	ldr	r3, [pc, #320]	; (8001500 <runProg_hidro+0x194>)
 80013be:	4611      	mov	r1, r2
 80013c0:	7019      	strb	r1, [r3, #0]
 80013c2:	f3c2 2107 	ubfx	r1, r2, #8, #8
 80013c6:	7059      	strb	r1, [r3, #1]
 80013c8:	f3c2 4207 	ubfx	r2, r2, #16, #8
 80013cc:	709a      	strb	r2, [r3, #2]
			hora_hidro.Minutes += tiempoHidro;
 80013ce:	4b4c      	ldr	r3, [pc, #304]	; (8001500 <runProg_hidro+0x194>)
 80013d0:	785a      	ldrb	r2, [r3, #1]
 80013d2:	4b4c      	ldr	r3, [pc, #304]	; (8001504 <runProg_hidro+0x198>)
 80013d4:	f9b3 3000 	ldrsh.w	r3, [r3]
 80013d8:	b2db      	uxtb	r3, r3
 80013da:	4413      	add	r3, r2
 80013dc:	b2da      	uxtb	r2, r3
 80013de:	4b48      	ldr	r3, [pc, #288]	; (8001500 <runProg_hidro+0x194>)
 80013e0:	705a      	strb	r2, [r3, #1]
			if (hora_hidro.Minutes > 59){
 80013e2:	4b47      	ldr	r3, [pc, #284]	; (8001500 <runProg_hidro+0x194>)
 80013e4:	785b      	ldrb	r3, [r3, #1]
 80013e6:	2b3b      	cmp	r3, #59	; 0x3b
 80013e8:	d91b      	bls.n	8001422 <runProg_hidro+0xb6>
				hora_hidro.Minutes -= 59;
 80013ea:	4b45      	ldr	r3, [pc, #276]	; (8001500 <runProg_hidro+0x194>)
 80013ec:	785b      	ldrb	r3, [r3, #1]
 80013ee:	3b3b      	subs	r3, #59	; 0x3b
 80013f0:	b2da      	uxtb	r2, r3
 80013f2:	4b43      	ldr	r3, [pc, #268]	; (8001500 <runProg_hidro+0x194>)
 80013f4:	705a      	strb	r2, [r3, #1]
				hora_hidro.Hours++;
 80013f6:	4b42      	ldr	r3, [pc, #264]	; (8001500 <runProg_hidro+0x194>)
 80013f8:	781b      	ldrb	r3, [r3, #0]
 80013fa:	3301      	adds	r3, #1
 80013fc:	b2da      	uxtb	r2, r3
 80013fe:	4b40      	ldr	r3, [pc, #256]	; (8001500 <runProg_hidro+0x194>)
 8001400:	701a      	strb	r2, [r3, #0]
				if (hora_hidro.Hours > 23){
 8001402:	4b3f      	ldr	r3, [pc, #252]	; (8001500 <runProg_hidro+0x194>)
 8001404:	781b      	ldrb	r3, [r3, #0]
 8001406:	2b17      	cmp	r3, #23
 8001408:	d90b      	bls.n	8001422 <runProg_hidro+0xb6>
					hora_hidro.Hours -= 23;
 800140a:	4b3d      	ldr	r3, [pc, #244]	; (8001500 <runProg_hidro+0x194>)
 800140c:	781b      	ldrb	r3, [r3, #0]
 800140e:	3b17      	subs	r3, #23
 8001410:	b2da      	uxtb	r2, r3
 8001412:	4b3b      	ldr	r3, [pc, #236]	; (8001500 <runProg_hidro+0x194>)
 8001414:	701a      	strb	r2, [r3, #0]
					fecha_hidro.Date++;
 8001416:	4b39      	ldr	r3, [pc, #228]	; (80014fc <runProg_hidro+0x190>)
 8001418:	789b      	ldrb	r3, [r3, #2]
 800141a:	3301      	adds	r3, #1
 800141c:	b2da      	uxtb	r2, r3
 800141e:	4b37      	ldr	r3, [pc, #220]	; (80014fc <runProg_hidro+0x190>)
 8001420:	709a      	strb	r2, [r3, #2]
			status_progHidro = PROG_BUSY;
 8001422:	4b39      	ldr	r3, [pc, #228]	; (8001508 <runProg_hidro+0x19c>)
 8001424:	2202      	movs	r2, #2
 8001426:	701a      	strb	r2, [r3, #0]
		break;
 8001428:	e061      	b.n	80014ee <runProg_hidro+0x182>
			if (status_progHidro == PROG_IDLE){
 800142a:	4b37      	ldr	r3, [pc, #220]	; (8001508 <runProg_hidro+0x19c>)
 800142c:	781b      	ldrb	r3, [r3, #0]
 800142e:	2b01      	cmp	r3, #1
 8001430:	d05a      	beq.n	80014e8 <runProg_hidro+0x17c>
			auxFecha = get_fecha();
 8001432:	f000 fa21 	bl	8001878 <get_fecha>
 8001436:	4602      	mov	r2, r0
 8001438:	4b34      	ldr	r3, [pc, #208]	; (800150c <runProg_hidro+0x1a0>)
 800143a:	4611      	mov	r1, r2
 800143c:	7019      	strb	r1, [r3, #0]
 800143e:	f3c2 2107 	ubfx	r1, r2, #8, #8
 8001442:	7059      	strb	r1, [r3, #1]
 8001444:	f3c2 4107 	ubfx	r1, r2, #16, #8
 8001448:	7099      	strb	r1, [r3, #2]
 800144a:	f3c2 6207 	ubfx	r2, r2, #24, #8
 800144e:	70da      	strb	r2, [r3, #3]
			auxHora = get_hora();
 8001450:	f000 fa0a 	bl	8001868 <get_hora>
 8001454:	4602      	mov	r2, r0
 8001456:	4b2e      	ldr	r3, [pc, #184]	; (8001510 <runProg_hidro+0x1a4>)
 8001458:	4611      	mov	r1, r2
 800145a:	7019      	strb	r1, [r3, #0]
 800145c:	f3c2 2107 	ubfx	r1, r2, #8, #8
 8001460:	7059      	strb	r1, [r3, #1]
 8001462:	f3c2 4207 	ubfx	r2, r2, #16, #8
 8001466:	709a      	strb	r2, [r3, #2]
			if (fecha_hidro.Date < auxFecha.Date){
 8001468:	4b24      	ldr	r3, [pc, #144]	; (80014fc <runProg_hidro+0x190>)
 800146a:	789a      	ldrb	r2, [r3, #2]
 800146c:	4b27      	ldr	r3, [pc, #156]	; (800150c <runProg_hidro+0x1a0>)
 800146e:	789b      	ldrb	r3, [r3, #2]
 8001470:	429a      	cmp	r2, r3
 8001472:	d20a      	bcs.n	800148a <runProg_hidro+0x11e>
				setOutput(OUT_rele_jet, 0); //logica positiva
 8001474:	2100      	movs	r1, #0
 8001476:	200c      	movs	r0, #12
 8001478:	f7ff f8c4 	bl	8000604 <setOutput>
				set_led(OUT_led_jet, APAGADO);
 800147c:	2100      	movs	r1, #0
 800147e:	2002      	movs	r0, #2
 8001480:	f000 fac2 	bl	8001a08 <set_led>
				status_progHidro = PROG_IDLE;
 8001484:	4b20      	ldr	r3, [pc, #128]	; (8001508 <runProg_hidro+0x19c>)
 8001486:	2201      	movs	r2, #1
 8001488:	701a      	strb	r2, [r3, #0]
			if (hora_hidro.Hours < auxHora.Hours){
 800148a:	4b1d      	ldr	r3, [pc, #116]	; (8001500 <runProg_hidro+0x194>)
 800148c:	781a      	ldrb	r2, [r3, #0]
 800148e:	4b20      	ldr	r3, [pc, #128]	; (8001510 <runProg_hidro+0x1a4>)
 8001490:	781b      	ldrb	r3, [r3, #0]
 8001492:	429a      	cmp	r2, r3
 8001494:	d20a      	bcs.n	80014ac <runProg_hidro+0x140>
				setOutput(OUT_rele_jet, 0); //logica positiva
 8001496:	2100      	movs	r1, #0
 8001498:	200c      	movs	r0, #12
 800149a:	f7ff f8b3 	bl	8000604 <setOutput>
				set_led(OUT_led_jet, APAGADO);
 800149e:	2100      	movs	r1, #0
 80014a0:	2002      	movs	r0, #2
 80014a2:	f000 fab1 	bl	8001a08 <set_led>
				status_progHidro = PROG_IDLE;
 80014a6:	4b18      	ldr	r3, [pc, #96]	; (8001508 <runProg_hidro+0x19c>)
 80014a8:	2201      	movs	r2, #1
 80014aa:	701a      	strb	r2, [r3, #0]
			if (hora_hidro.Minutes < auxHora.Minutes){
 80014ac:	4b14      	ldr	r3, [pc, #80]	; (8001500 <runProg_hidro+0x194>)
 80014ae:	785a      	ldrb	r2, [r3, #1]
 80014b0:	4b17      	ldr	r3, [pc, #92]	; (8001510 <runProg_hidro+0x1a4>)
 80014b2:	785b      	ldrb	r3, [r3, #1]
 80014b4:	429a      	cmp	r2, r3
 80014b6:	d219      	bcs.n	80014ec <runProg_hidro+0x180>
				setOutput(OUT_rele_jet, 0); //logica positiva
 80014b8:	2100      	movs	r1, #0
 80014ba:	200c      	movs	r0, #12
 80014bc:	f7ff f8a2 	bl	8000604 <setOutput>
				set_led(OUT_led_jet, APAGADO);
 80014c0:	2100      	movs	r1, #0
 80014c2:	2002      	movs	r0, #2
 80014c4:	f000 faa0 	bl	8001a08 <set_led>
				status_progHidro = PROG_IDLE;
 80014c8:	4b0f      	ldr	r3, [pc, #60]	; (8001508 <runProg_hidro+0x19c>)
 80014ca:	2201      	movs	r2, #1
 80014cc:	701a      	strb	r2, [r3, #0]
		break;
 80014ce:	e00d      	b.n	80014ec <runProg_hidro+0x180>
			setOutput(OUT_rele_jet, 0); //logica positiva
 80014d0:	2100      	movs	r1, #0
 80014d2:	200c      	movs	r0, #12
 80014d4:	f7ff f896 	bl	8000604 <setOutput>
			set_led(OUT_led_jet, APAGADO);
 80014d8:	2100      	movs	r1, #0
 80014da:	2002      	movs	r0, #2
 80014dc:	f000 fa94 	bl	8001a08 <set_led>
			status_progHidro = PROG_IDLE;
 80014e0:	4b09      	ldr	r3, [pc, #36]	; (8001508 <runProg_hidro+0x19c>)
 80014e2:	2201      	movs	r2, #1
 80014e4:	701a      	strb	r2, [r3, #0]
		break;
 80014e6:	e002      	b.n	80014ee <runProg_hidro+0x182>
				break;
 80014e8:	bf00      	nop
 80014ea:	e000      	b.n	80014ee <runProg_hidro+0x182>
		break;
 80014ec:	bf00      	nop
	} //end switch progCmd_hidro

	return status_progHidro;
 80014ee:	4b06      	ldr	r3, [pc, #24]	; (8001508 <runProg_hidro+0x19c>)
 80014f0:	781b      	ldrb	r3, [r3, #0]
} //end runProg_hidro()
 80014f2:	4618      	mov	r0, r3
 80014f4:	3708      	adds	r7, #8
 80014f6:	46bd      	mov	sp, r7
 80014f8:	bd80      	pop	{r7, pc}
 80014fa:	bf00      	nop
 80014fc:	200005d8 	.word	0x200005d8
 8001500:	20000604 	.word	0x20000604
 8001504:	20000118 	.word	0x20000118
 8001508:	20000002 	.word	0x20000002
 800150c:	20000600 	.word	0x20000600
 8001510:	20000608 	.word	0x20000608

08001514 <runProg_llenado>:

T_PROG_OUTPUT runProg_llenado (T_PROG_CMD cmd){
 8001514:	b580      	push	{r7, lr}
 8001516:	b082      	sub	sp, #8
 8001518:	af00      	add	r7, sp, #0
 800151a:	4603      	mov	r3, r0
 800151c:	71fb      	strb	r3, [r7, #7]

	switch (cmd) {
 800151e:	79fb      	ldrb	r3, [r7, #7]
 8001520:	2b02      	cmp	r3, #2
 8001522:	d004      	beq.n	800152e <runProg_llenado+0x1a>
 8001524:	2b03      	cmp	r3, #3
 8001526:	d077      	beq.n	8001618 <runProg_llenado+0x104>
 8001528:	2b01      	cmp	r3, #1
 800152a:	d054      	beq.n	80015d6 <runProg_llenado+0xc2>

			status_progLlenado = PROG_IDLE;
		break;

		default:
		break;
 800152c:	e081      	b.n	8001632 <runProg_llenado+0x11e>
			setOutput(OUT_rele_napa, 1); //logica positiva
 800152e:	2101      	movs	r1, #1
 8001530:	200b      	movs	r0, #11
 8001532:	f7ff f867 	bl	8000604 <setOutput>
			set_led(OUT_led_napa, TITILA_LENTO);
 8001536:	2102      	movs	r1, #2
 8001538:	2001      	movs	r0, #1
 800153a:	f000 fa65 	bl	8001a08 <set_led>
			flag_bombaNapa = 1;
 800153e:	4b46      	ldr	r3, [pc, #280]	; (8001658 <runProg_llenado+0x144>)
 8001540:	2201      	movs	r2, #1
 8001542:	701a      	strb	r2, [r3, #0]
			fecha_llenadoOn = get_fecha();
 8001544:	f000 f998 	bl	8001878 <get_fecha>
 8001548:	4602      	mov	r2, r0
 800154a:	4b44      	ldr	r3, [pc, #272]	; (800165c <runProg_llenado+0x148>)
 800154c:	4611      	mov	r1, r2
 800154e:	7019      	strb	r1, [r3, #0]
 8001550:	f3c2 2107 	ubfx	r1, r2, #8, #8
 8001554:	7059      	strb	r1, [r3, #1]
 8001556:	f3c2 4107 	ubfx	r1, r2, #16, #8
 800155a:	7099      	strb	r1, [r3, #2]
 800155c:	f3c2 6207 	ubfx	r2, r2, #24, #8
 8001560:	70da      	strb	r2, [r3, #3]
			hora_llenadoOn = get_hora();
 8001562:	f000 f981 	bl	8001868 <get_hora>
 8001566:	4602      	mov	r2, r0
 8001568:	4b3d      	ldr	r3, [pc, #244]	; (8001660 <runProg_llenado+0x14c>)
 800156a:	4611      	mov	r1, r2
 800156c:	7019      	strb	r1, [r3, #0]
 800156e:	f3c2 2107 	ubfx	r1, r2, #8, #8
 8001572:	7059      	strb	r1, [r3, #1]
 8001574:	f3c2 4207 	ubfx	r2, r2, #16, #8
 8001578:	709a      	strb	r2, [r3, #2]
			hora_llenadoOn.Minutes += tiempoLlenado_ON;
 800157a:	4b39      	ldr	r3, [pc, #228]	; (8001660 <runProg_llenado+0x14c>)
 800157c:	785a      	ldrb	r2, [r3, #1]
 800157e:	4b39      	ldr	r3, [pc, #228]	; (8001664 <runProg_llenado+0x150>)
 8001580:	f9b3 3000 	ldrsh.w	r3, [r3]
 8001584:	b2db      	uxtb	r3, r3
 8001586:	4413      	add	r3, r2
 8001588:	b2da      	uxtb	r2, r3
 800158a:	4b35      	ldr	r3, [pc, #212]	; (8001660 <runProg_llenado+0x14c>)
 800158c:	705a      	strb	r2, [r3, #1]
			if (hora_llenadoOn.Minutes > 59) {
 800158e:	4b34      	ldr	r3, [pc, #208]	; (8001660 <runProg_llenado+0x14c>)
 8001590:	785b      	ldrb	r3, [r3, #1]
 8001592:	2b3b      	cmp	r3, #59	; 0x3b
 8001594:	d91b      	bls.n	80015ce <runProg_llenado+0xba>
				hora_llenadoOn.Minutes -= 59;
 8001596:	4b32      	ldr	r3, [pc, #200]	; (8001660 <runProg_llenado+0x14c>)
 8001598:	785b      	ldrb	r3, [r3, #1]
 800159a:	3b3b      	subs	r3, #59	; 0x3b
 800159c:	b2da      	uxtb	r2, r3
 800159e:	4b30      	ldr	r3, [pc, #192]	; (8001660 <runProg_llenado+0x14c>)
 80015a0:	705a      	strb	r2, [r3, #1]
				hora_llenadoOn.Hours++;
 80015a2:	4b2f      	ldr	r3, [pc, #188]	; (8001660 <runProg_llenado+0x14c>)
 80015a4:	781b      	ldrb	r3, [r3, #0]
 80015a6:	3301      	adds	r3, #1
 80015a8:	b2da      	uxtb	r2, r3
 80015aa:	4b2d      	ldr	r3, [pc, #180]	; (8001660 <runProg_llenado+0x14c>)
 80015ac:	701a      	strb	r2, [r3, #0]
				if (hora_llenadoOn.Hours > 23) {
 80015ae:	4b2c      	ldr	r3, [pc, #176]	; (8001660 <runProg_llenado+0x14c>)
 80015b0:	781b      	ldrb	r3, [r3, #0]
 80015b2:	2b17      	cmp	r3, #23
 80015b4:	d90b      	bls.n	80015ce <runProg_llenado+0xba>
					hora_llenadoOn.Hours -= 23;
 80015b6:	4b2a      	ldr	r3, [pc, #168]	; (8001660 <runProg_llenado+0x14c>)
 80015b8:	781b      	ldrb	r3, [r3, #0]
 80015ba:	3b17      	subs	r3, #23
 80015bc:	b2da      	uxtb	r2, r3
 80015be:	4b28      	ldr	r3, [pc, #160]	; (8001660 <runProg_llenado+0x14c>)
 80015c0:	701a      	strb	r2, [r3, #0]
					fecha_llenadoOn.Date++;
 80015c2:	4b26      	ldr	r3, [pc, #152]	; (800165c <runProg_llenado+0x148>)
 80015c4:	789b      	ldrb	r3, [r3, #2]
 80015c6:	3301      	adds	r3, #1
 80015c8:	b2da      	uxtb	r2, r3
 80015ca:	4b24      	ldr	r3, [pc, #144]	; (800165c <runProg_llenado+0x148>)
 80015cc:	709a      	strb	r2, [r3, #2]
			status_progLlenado = PROG_BUSY;
 80015ce:	4b26      	ldr	r3, [pc, #152]	; (8001668 <runProg_llenado+0x154>)
 80015d0:	2202      	movs	r2, #2
 80015d2:	701a      	strb	r2, [r3, #0]
		break;
 80015d4:	e02d      	b.n	8001632 <runProg_llenado+0x11e>
			if (status_progLlenado == PROG_IDLE) {
 80015d6:	4b24      	ldr	r3, [pc, #144]	; (8001668 <runProg_llenado+0x154>)
 80015d8:	781b      	ldrb	r3, [r3, #0]
 80015da:	2b01      	cmp	r3, #1
 80015dc:	d028      	beq.n	8001630 <runProg_llenado+0x11c>
			auxFecha = get_fecha();
 80015de:	f000 f94b 	bl	8001878 <get_fecha>
 80015e2:	4602      	mov	r2, r0
 80015e4:	4b21      	ldr	r3, [pc, #132]	; (800166c <runProg_llenado+0x158>)
 80015e6:	4611      	mov	r1, r2
 80015e8:	7019      	strb	r1, [r3, #0]
 80015ea:	f3c2 2107 	ubfx	r1, r2, #8, #8
 80015ee:	7059      	strb	r1, [r3, #1]
 80015f0:	f3c2 4107 	ubfx	r1, r2, #16, #8
 80015f4:	7099      	strb	r1, [r3, #2]
 80015f6:	f3c2 6207 	ubfx	r2, r2, #24, #8
 80015fa:	70da      	strb	r2, [r3, #3]
			auxHora = get_hora();
 80015fc:	f000 f934 	bl	8001868 <get_hora>
 8001600:	4602      	mov	r2, r0
 8001602:	4b1b      	ldr	r3, [pc, #108]	; (8001670 <runProg_llenado+0x15c>)
 8001604:	4611      	mov	r1, r2
 8001606:	7019      	strb	r1, [r3, #0]
 8001608:	f3c2 2107 	ubfx	r1, r2, #8, #8
 800160c:	7059      	strb	r1, [r3, #1]
 800160e:	f3c2 4207 	ubfx	r2, r2, #16, #8
 8001612:	709a      	strb	r2, [r3, #2]
			__NOP();
 8001614:	bf00      	nop
		break;
 8001616:	e00c      	b.n	8001632 <runProg_llenado+0x11e>
			setOutput(OUT_rele_napa, 0); //logica positiva
 8001618:	2100      	movs	r1, #0
 800161a:	200b      	movs	r0, #11
 800161c:	f7fe fff2 	bl	8000604 <setOutput>
			set_led(OUT_led_napa, APAGADO);
 8001620:	2100      	movs	r1, #0
 8001622:	2001      	movs	r0, #1
 8001624:	f000 f9f0 	bl	8001a08 <set_led>
			status_progLlenado = PROG_IDLE;
 8001628:	4b0f      	ldr	r3, [pc, #60]	; (8001668 <runProg_llenado+0x154>)
 800162a:	2201      	movs	r2, #1
 800162c:	701a      	strb	r2, [r3, #0]
		break;
 800162e:	e000      	b.n	8001632 <runProg_llenado+0x11e>
				break;
 8001630:	bf00      	nop
	} //end switch cmd

	if (!HAL_GPIO_ReadPin(IN_nivelAgua_GPIO_Port, IN_nivelAgua_Pin)) { //LOGICA NEGATIVA
 8001632:	2104      	movs	r1, #4
 8001634:	480f      	ldr	r0, [pc, #60]	; (8001674 <runProg_llenado+0x160>)
 8001636:	f002 f813 	bl	8003660 <HAL_GPIO_ReadPin>
 800163a:	4603      	mov	r3, r0
 800163c:	2b00      	cmp	r3, #0
 800163e:	d105      	bne.n	800164c <runProg_llenado+0x138>
		setOutput(OUT_rele_napa, 0); //logica positiva
 8001640:	2100      	movs	r1, #0
 8001642:	200b      	movs	r0, #11
 8001644:	f7fe ffde 	bl	8000604 <setOutput>
		//falta manejar los led
		return PROG_FINISHED;
 8001648:	2303      	movs	r3, #3
 800164a:	e000      	b.n	800164e <runProg_llenado+0x13a>
	}
	return PROG_BUSY;
 800164c:	2302      	movs	r3, #2

} //end runProg_llenado()
 800164e:	4618      	mov	r0, r3
 8001650:	3708      	adds	r7, #8
 8001652:	46bd      	mov	sp, r7
 8001654:	bd80      	pop	{r7, pc}
 8001656:	bf00      	nop
 8001658:	20000123 	.word	0x20000123
 800165c:	200005fc 	.word	0x200005fc
 8001660:	200005f0 	.word	0x200005f0
 8001664:	2000011e 	.word	0x2000011e
 8001668:	20000003 	.word	0x20000003
 800166c:	20000600 	.word	0x20000600
 8001670:	20000608 	.word	0x20000608
 8001674:	40010800 	.word	0x40010800

08001678 <runProg_skimmer>:

T_PROG_OUTPUT runProg_skimmer (T_PROG_CMD cmd){
 8001678:	b580      	push	{r7, lr}
 800167a:	b082      	sub	sp, #8
 800167c:	af00      	add	r7, sp, #0
 800167e:	4603      	mov	r3, r0
 8001680:	71fb      	strb	r3, [r7, #7]
	__NOP();
 8001682:	bf00      	nop

	switch (cmd) {
 8001684:	79fb      	ldrb	r3, [r7, #7]
 8001686:	3b01      	subs	r3, #1
 8001688:	2b04      	cmp	r3, #4
 800168a:	d843      	bhi.n	8001714 <runProg_skimmer+0x9c>
 800168c:	a201      	add	r2, pc, #4	; (adr r2, 8001694 <runProg_skimmer+0x1c>)
 800168e:	f852 f023 	ldr.w	pc, [r2, r3, lsl #2]
 8001692:	bf00      	nop
 8001694:	080016e3 	.word	0x080016e3
 8001698:	08001715 	.word	0x08001715
 800169c:	080016c5 	.word	0x080016c5
 80016a0:	080016a9 	.word	0x080016a9
 80016a4:	080016b7 	.word	0x080016b7
		case PROG_SET1: //con programa
			status_modoPileta = 1;
 80016a8:	4b1f      	ldr	r3, [pc, #124]	; (8001728 <runProg_skimmer+0xb0>)
 80016aa:	2201      	movs	r2, #1
 80016ac:	701a      	strb	r2, [r3, #0]
			status_progPileta = PROG_BUSY;
 80016ae:	4b1f      	ldr	r3, [pc, #124]	; (800172c <runProg_skimmer+0xb4>)
 80016b0:	2202      	movs	r2, #2
 80016b2:	701a      	strb	r2, [r3, #0]
			break;
 80016b4:	e031      	b.n	800171a <runProg_skimmer+0xa2>
		case PROG_SET2: //sin programa
			status_modoPileta = 2;
 80016b6:	4b1c      	ldr	r3, [pc, #112]	; (8001728 <runProg_skimmer+0xb0>)
 80016b8:	2202      	movs	r2, #2
 80016ba:	701a      	strb	r2, [r3, #0]
			status_progPileta = PROG_BUSY;
 80016bc:	4b1b      	ldr	r3, [pc, #108]	; (800172c <runProg_skimmer+0xb4>)
 80016be:	2202      	movs	r2, #2
 80016c0:	701a      	strb	r2, [r3, #0]
			break;
 80016c2:	e02a      	b.n	800171a <runProg_skimmer+0xa2>
		case PROG_STOP:
			setOutput(OUT_rele_pileta, 0); //LOGICA POSITIVA
 80016c4:	2100      	movs	r1, #0
 80016c6:	200d      	movs	r0, #13
 80016c8:	f7fe ff9c 	bl	8000604 <setOutput>
			set_led(OUT_led_pileta, APAGADO);
 80016cc:	2100      	movs	r1, #0
 80016ce:	2003      	movs	r0, #3
 80016d0:	f000 f99a 	bl	8001a08 <set_led>
			status_modoPileta = 0;
 80016d4:	4b14      	ldr	r3, [pc, #80]	; (8001728 <runProg_skimmer+0xb0>)
 80016d6:	2200      	movs	r2, #0
 80016d8:	701a      	strb	r2, [r3, #0]
			status_progPileta = PROG_IDLE;
 80016da:	4b14      	ldr	r3, [pc, #80]	; (800172c <runProg_skimmer+0xb4>)
 80016dc:	2201      	movs	r2, #1
 80016de:	701a      	strb	r2, [r3, #0]
			break;
 80016e0:	e01b      	b.n	800171a <runProg_skimmer+0xa2>
		case PROG_CHECK:
			if (status_progHidro == PROG_IDLE){
 80016e2:	4b13      	ldr	r3, [pc, #76]	; (8001730 <runProg_skimmer+0xb8>)
 80016e4:	781b      	ldrb	r3, [r3, #0]
 80016e6:	2b01      	cmp	r3, #1
 80016e8:	d016      	beq.n	8001718 <runProg_skimmer+0xa0>
				//return PROG_IDLE;
				break;
			}

			switch (status_modoPileta) {
 80016ea:	4b0f      	ldr	r3, [pc, #60]	; (8001728 <runProg_skimmer+0xb0>)
 80016ec:	781b      	ldrb	r3, [r3, #0]
 80016ee:	2b01      	cmp	r3, #1
 80016f0:	d00d      	beq.n	800170e <runProg_skimmer+0x96>
 80016f2:	2b02      	cmp	r3, #2
 80016f4:	d002      	beq.n	80016fc <runProg_skimmer+0x84>
 80016f6:	2b00      	cmp	r3, #0
 80016f8:	d00b      	beq.n	8001712 <runProg_skimmer+0x9a>
				case 2:
					setOutput(OUT_rele_pileta, 1); //logica positiva
					set_led(OUT_led_pileta, TITILA_RAPIDO);
					break;
				default:
					break;
 80016fa:	e00b      	b.n	8001714 <runProg_skimmer+0x9c>
					setOutput(OUT_rele_pileta, 1); //logica positiva
 80016fc:	2101      	movs	r1, #1
 80016fe:	200d      	movs	r0, #13
 8001700:	f7fe ff80 	bl	8000604 <setOutput>
					set_led(OUT_led_pileta, TITILA_RAPIDO);
 8001704:	2103      	movs	r1, #3
 8001706:	2003      	movs	r0, #3
 8001708:	f000 f97e 	bl	8001a08 <set_led>
					break;
 800170c:	e002      	b.n	8001714 <runProg_skimmer+0x9c>
					break;
 800170e:	bf00      	nop
 8001710:	e000      	b.n	8001714 <runProg_skimmer+0x9c>
					break;
 8001712:	bf00      	nop
			}

		default:
			break;
 8001714:	bf00      	nop
 8001716:	e000      	b.n	800171a <runProg_skimmer+0xa2>
				break;
 8001718:	bf00      	nop
	} //end switch cmd

	return status_progPileta;
 800171a:	4b04      	ldr	r3, [pc, #16]	; (800172c <runProg_skimmer+0xb4>)
 800171c:	781b      	ldrb	r3, [r3, #0]
}
 800171e:	4618      	mov	r0, r3
 8001720:	3708      	adds	r7, #8
 8001722:	46bd      	mov	sp, r7
 8001724:	bd80      	pop	{r7, pc}
 8001726:	bf00      	nop
 8001728:	20000124 	.word	0x20000124
 800172c:	20000004 	.word	0x20000004
 8001730:	20000002 	.word	0x20000002

08001734 <runProg_luz>:

T_PROG_OUTPUT runProg_luz (T_PROG_CMD cmd){
 8001734:	b480      	push	{r7}
 8001736:	b083      	sub	sp, #12
 8001738:	af00      	add	r7, sp, #0
 800173a:	4603      	mov	r3, r0
 800173c:	71fb      	strb	r3, [r7, #7]
	__NOP();
 800173e:	bf00      	nop
	return PROG_IDLE;
 8001740:	2301      	movs	r3, #1
}
 8001742:	4618      	mov	r0, r3
 8001744:	370c      	adds	r7, #12
 8001746:	46bd      	mov	sp, r7
 8001748:	bc80      	pop	{r7}
 800174a:	4770      	bx	lr

0800174c <MX_GPIO_Init>:
 800174c:	b580      	push	{r7, lr}
 800174e:	b088      	sub	sp, #32
 8001750:	af00      	add	r7, sp, #0
 8001752:	f107 0310 	add.w	r3, r7, #16
 8001756:	2200      	movs	r2, #0
 8001758:	601a      	str	r2, [r3, #0]
 800175a:	605a      	str	r2, [r3, #4]
 800175c:	609a      	str	r2, [r3, #8]
 800175e:	60da      	str	r2, [r3, #12]
 8001760:	4b34      	ldr	r3, [pc, #208]	; (8001834 <MX_GPIO_Init+0xe8>)
 8001762:	699b      	ldr	r3, [r3, #24]
 8001764:	4a33      	ldr	r2, [pc, #204]	; (8001834 <MX_GPIO_Init+0xe8>)
 8001766:	f043 0310 	orr.w	r3, r3, #16
 800176a:	6193      	str	r3, [r2, #24]
 800176c:	4b31      	ldr	r3, [pc, #196]	; (8001834 <MX_GPIO_Init+0xe8>)
 800176e:	699b      	ldr	r3, [r3, #24]
 8001770:	f003 0310 	and.w	r3, r3, #16
 8001774:	60fb      	str	r3, [r7, #12]
 8001776:	68fb      	ldr	r3, [r7, #12]
 8001778:	4b2e      	ldr	r3, [pc, #184]	; (8001834 <MX_GPIO_Init+0xe8>)
 800177a:	699b      	ldr	r3, [r3, #24]
 800177c:	4a2d      	ldr	r2, [pc, #180]	; (8001834 <MX_GPIO_Init+0xe8>)
 800177e:	f043 0320 	orr.w	r3, r3, #32
 8001782:	6193      	str	r3, [r2, #24]
 8001784:	4b2b      	ldr	r3, [pc, #172]	; (8001834 <MX_GPIO_Init+0xe8>)
 8001786:	699b      	ldr	r3, [r3, #24]
 8001788:	f003 0320 	and.w	r3, r3, #32
 800178c:	60bb      	str	r3, [r7, #8]
 800178e:	68bb      	ldr	r3, [r7, #8]
 8001790:	4b28      	ldr	r3, [pc, #160]	; (8001834 <MX_GPIO_Init+0xe8>)
 8001792:	699b      	ldr	r3, [r3, #24]
 8001794:	4a27      	ldr	r2, [pc, #156]	; (8001834 <MX_GPIO_Init+0xe8>)
 8001796:	f043 0304 	orr.w	r3, r3, #4
 800179a:	6193      	str	r3, [r2, #24]
 800179c:	4b25      	ldr	r3, [pc, #148]	; (8001834 <MX_GPIO_Init+0xe8>)
 800179e:	699b      	ldr	r3, [r3, #24]
 80017a0:	f003 0304 	and.w	r3, r3, #4
 80017a4:	607b      	str	r3, [r7, #4]
 80017a6:	687b      	ldr	r3, [r7, #4]
 80017a8:	4b22      	ldr	r3, [pc, #136]	; (8001834 <MX_GPIO_Init+0xe8>)
 80017aa:	699b      	ldr	r3, [r3, #24]
 80017ac:	4a21      	ldr	r2, [pc, #132]	; (8001834 <MX_GPIO_Init+0xe8>)
 80017ae:	f043 0308 	orr.w	r3, r3, #8
 80017b2:	6193      	str	r3, [r2, #24]
 80017b4:	4b1f      	ldr	r3, [pc, #124]	; (8001834 <MX_GPIO_Init+0xe8>)
 80017b6:	699b      	ldr	r3, [r3, #24]
 80017b8:	f003 0308 	and.w	r3, r3, #8
 80017bc:	603b      	str	r3, [r7, #0]
 80017be:	683b      	ldr	r3, [r7, #0]
 80017c0:	2200      	movs	r2, #0
 80017c2:	f248 31e0 	movw	r1, #33760	; 0x83e0
 80017c6:	481c      	ldr	r0, [pc, #112]	; (8001838 <MX_GPIO_Init+0xec>)
 80017c8:	f001 ff61 	bl	800368e <HAL_GPIO_WritePin>
 80017cc:	2200      	movs	r2, #0
 80017ce:	f241 0139 	movw	r1, #4153	; 0x1039
 80017d2:	481a      	ldr	r0, [pc, #104]	; (800183c <MX_GPIO_Init+0xf0>)
 80017d4:	f001 ff5b 	bl	800368e <HAL_GPIO_WritePin>
 80017d8:	2304      	movs	r3, #4
 80017da:	613b      	str	r3, [r7, #16]
 80017dc:	2300      	movs	r3, #0
 80017de:	617b      	str	r3, [r7, #20]
 80017e0:	2301      	movs	r3, #1
 80017e2:	61bb      	str	r3, [r7, #24]
 80017e4:	f107 0310 	add.w	r3, r7, #16
 80017e8:	4619      	mov	r1, r3
 80017ea:	4813      	ldr	r0, [pc, #76]	; (8001838 <MX_GPIO_Init+0xec>)
 80017ec:	f001 fdde 	bl	80033ac <HAL_GPIO_Init>
 80017f0:	f248 33e0 	movw	r3, #33760	; 0x83e0
 80017f4:	613b      	str	r3, [r7, #16]
 80017f6:	2301      	movs	r3, #1
 80017f8:	617b      	str	r3, [r7, #20]
 80017fa:	2300      	movs	r3, #0
 80017fc:	61bb      	str	r3, [r7, #24]
 80017fe:	2302      	movs	r3, #2
 8001800:	61fb      	str	r3, [r7, #28]
 8001802:	f107 0310 	add.w	r3, r7, #16
 8001806:	4619      	mov	r1, r3
 8001808:	480b      	ldr	r0, [pc, #44]	; (8001838 <MX_GPIO_Init+0xec>)
 800180a:	f001 fdcf 	bl	80033ac <HAL_GPIO_Init>
 800180e:	f241 0339 	movw	r3, #4153	; 0x1039
 8001812:	613b      	str	r3, [r7, #16]
 8001814:	2301      	movs	r3, #1
 8001816:	617b      	str	r3, [r7, #20]
 8001818:	2300      	movs	r3, #0
 800181a:	61bb      	str	r3, [r7, #24]
 800181c:	2302      	movs	r3, #2
 800181e:	61fb      	str	r3, [r7, #28]
 8001820:	f107 0310 	add.w	r3, r7, #16
 8001824:	4619      	mov	r1, r3
 8001826:	4805      	ldr	r0, [pc, #20]	; (800183c <MX_GPIO_Init+0xf0>)
 8001828:	f001 fdc0 	bl	80033ac <HAL_GPIO_Init>
 800182c:	bf00      	nop
 800182e:	3720      	adds	r7, #32
 8001830:	46bd      	mov	sp, r7
 8001832:	bd80      	pop	{r7, pc}
 8001834:	40021000 	.word	0x40021000
 8001838:	40010800 	.word	0x40010800
 800183c:	40010c00 	.word	0x40010c00

08001840 <update_horaFecha>:
 8001840:	b580      	push	{r7, lr}
 8001842:	af00      	add	r7, sp, #0
 8001844:	2200      	movs	r2, #0
 8001846:	4905      	ldr	r1, [pc, #20]	; (800185c <update_horaFecha+0x1c>)
 8001848:	4805      	ldr	r0, [pc, #20]	; (8001860 <update_horaFecha+0x20>)
 800184a:	f002 fe01 	bl	8004450 <HAL_RTC_GetTime>
 800184e:	2200      	movs	r2, #0
 8001850:	4904      	ldr	r1, [pc, #16]	; (8001864 <update_horaFecha+0x24>)
 8001852:	4803      	ldr	r0, [pc, #12]	; (8001860 <update_horaFecha+0x20>)
 8001854:	f002 ff8a 	bl	800476c <HAL_RTC_GetDate>
 8001858:	bf00      	nop
 800185a:	bd80      	pop	{r7, pc}
 800185c:	2000060c 	.word	0x2000060c
 8001860:	2000061c 	.word	0x2000061c
 8001864:	20000138 	.word	0x20000138

08001868 <get_hora>:
 8001868:	b480      	push	{r7}
 800186a:	af00      	add	r7, sp, #0
 800186c:	bf00      	nop
 800186e:	bf00      	nop
 8001870:	4618      	mov	r0, r3
 8001872:	46bd      	mov	sp, r7
 8001874:	bc80      	pop	{r7}
 8001876:	4770      	bx	lr

08001878 <get_fecha>:
 8001878:	b480      	push	{r7}
 800187a:	af00      	add	r7, sp, #0
 800187c:	bf00      	nop
 800187e:	4618      	mov	r0, r3
 8001880:	46bd      	mov	sp, r7
 8001882:	bc80      	pop	{r7}
 8001884:	4770      	bx	lr
	...

08001888 <update_leds>:
 8001888:	b580      	push	{r7, lr}
 800188a:	b082      	sub	sp, #8
 800188c:	af00      	add	r7, sp, #0
 800188e:	2300      	movs	r3, #0
 8001890:	71fb      	strb	r3, [r7, #7]
 8001892:	e035      	b.n	8001900 <update_leds+0x78>
 8001894:	79fb      	ldrb	r3, [r7, #7]
 8001896:	4a59      	ldr	r2, [pc, #356]	; (80019fc <update_leds+0x174>)
 8001898:	5cd3      	ldrb	r3, [r2, r3]
 800189a:	2b03      	cmp	r3, #3
 800189c:	d828      	bhi.n	80018f0 <update_leds+0x68>
 800189e:	a201      	add	r2, pc, #4	; (adr r2, 80018a4 <update_leds+0x1c>)
 80018a0:	f852 f023 	ldr.w	pc, [r2, r3, lsl #2]
 80018a4:	080018b5 	.word	0x080018b5
 80018a8:	080018c1 	.word	0x080018c1
 80018ac:	080018cd 	.word	0x080018cd
 80018b0:	080018df 	.word	0x080018df
 80018b4:	79fb      	ldrb	r3, [r7, #7]
 80018b6:	2101      	movs	r1, #1
 80018b8:	4618      	mov	r0, r3
 80018ba:	f7fe fea3 	bl	8000604 <setOutput>
 80018be:	e01c      	b.n	80018fa <update_leds+0x72>
 80018c0:	79fb      	ldrb	r3, [r7, #7]
 80018c2:	2100      	movs	r1, #0
 80018c4:	4618      	mov	r0, r3
 80018c6:	f7fe fe9d 	bl	8000604 <setOutput>
 80018ca:	e016      	b.n	80018fa <update_leds+0x72>
 80018cc:	4b4c      	ldr	r3, [pc, #304]	; (8001a00 <update_leds+0x178>)
 80018ce:	781b      	ldrb	r3, [r3, #0]
 80018d0:	2b00      	cmp	r3, #0
 80018d2:	d10f      	bne.n	80018f4 <update_leds+0x6c>
 80018d4:	79fb      	ldrb	r3, [r7, #7]
 80018d6:	4618      	mov	r0, r3
 80018d8:	f7fe fec0 	bl	800065c <toggleOutput>
 80018dc:	e00d      	b.n	80018fa <update_leds+0x72>
 80018de:	4b49      	ldr	r3, [pc, #292]	; (8001a04 <update_leds+0x17c>)
 80018e0:	781b      	ldrb	r3, [r3, #0]
 80018e2:	2b00      	cmp	r3, #0
 80018e4:	d108      	bne.n	80018f8 <update_leds+0x70>
 80018e6:	79fb      	ldrb	r3, [r7, #7]
 80018e8:	4618      	mov	r0, r3
 80018ea:	f7fe feb7 	bl	800065c <toggleOutput>
 80018ee:	e004      	b.n	80018fa <update_leds+0x72>
 80018f0:	bf00      	nop
 80018f2:	e002      	b.n	80018fa <update_leds+0x72>
 80018f4:	bf00      	nop
 80018f6:	e000      	b.n	80018fa <update_leds+0x72>
 80018f8:	bf00      	nop
 80018fa:	79fb      	ldrb	r3, [r7, #7]
 80018fc:	3301      	adds	r3, #1
 80018fe:	71fb      	strb	r3, [r7, #7]
 8001900:	79fb      	ldrb	r3, [r7, #7]
 8001902:	2b03      	cmp	r3, #3
 8001904:	d9c6      	bls.n	8001894 <update_leds+0xc>
 8001906:	4b3d      	ldr	r3, [pc, #244]	; (80019fc <update_leds+0x174>)
 8001908:	7b9b      	ldrb	r3, [r3, #14]
 800190a:	2b03      	cmp	r3, #3
 800190c:	d823      	bhi.n	8001956 <update_leds+0xce>
 800190e:	a201      	add	r2, pc, #4	; (adr r2, 8001914 <update_leds+0x8c>)
 8001910:	f852 f023 	ldr.w	pc, [r2, r3, lsl #2]
 8001914:	08001925 	.word	0x08001925
 8001918:	0800192f 	.word	0x0800192f
 800191c:	08001937 	.word	0x08001937
 8001920:	08001947 	.word	0x08001947
 8001924:	2101      	movs	r1, #1
 8001926:	200e      	movs	r0, #14
 8001928:	f7fe fe6c 	bl	8000604 <setOutput>
 800192c:	e018      	b.n	8001960 <update_leds+0xd8>
 800192e:	2100      	movs	r1, #0
 8001930:	200e      	movs	r0, #14
 8001932:	f7fe fe67 	bl	8000604 <setOutput>
 8001936:	4b32      	ldr	r3, [pc, #200]	; (8001a00 <update_leds+0x178>)
 8001938:	781b      	ldrb	r3, [r3, #0]
 800193a:	2b00      	cmp	r3, #0
 800193c:	d10d      	bne.n	800195a <update_leds+0xd2>
 800193e:	200e      	movs	r0, #14
 8001940:	f7fe fe8c 	bl	800065c <toggleOutput>
 8001944:	e00c      	b.n	8001960 <update_leds+0xd8>
 8001946:	4b2f      	ldr	r3, [pc, #188]	; (8001a04 <update_leds+0x17c>)
 8001948:	781b      	ldrb	r3, [r3, #0]
 800194a:	2b00      	cmp	r3, #0
 800194c:	d107      	bne.n	800195e <update_leds+0xd6>
 800194e:	200e      	movs	r0, #14
 8001950:	f7fe fe84 	bl	800065c <toggleOutput>
 8001954:	e004      	b.n	8001960 <update_leds+0xd8>
 8001956:	bf00      	nop
 8001958:	e002      	b.n	8001960 <update_leds+0xd8>
 800195a:	bf00      	nop
 800195c:	e000      	b.n	8001960 <update_leds+0xd8>
 800195e:	bf00      	nop
 8001960:	4b26      	ldr	r3, [pc, #152]	; (80019fc <update_leds+0x174>)
 8001962:	7bdb      	ldrb	r3, [r3, #15]
 8001964:	2b03      	cmp	r3, #3
 8001966:	d824      	bhi.n	80019b2 <update_leds+0x12a>
 8001968:	a201      	add	r2, pc, #4	; (adr r2, 8001970 <update_leds+0xe8>)
 800196a:	f852 f023 	ldr.w	pc, [r2, r3, lsl #2]
 800196e:	bf00      	nop
 8001970:	08001981 	.word	0x08001981
 8001974:	0800198b 	.word	0x0800198b
 8001978:	08001993 	.word	0x08001993
 800197c:	080019a3 	.word	0x080019a3
 8001980:	2101      	movs	r1, #1
 8001982:	200f      	movs	r0, #15
 8001984:	f7fe fe3e 	bl	8000604 <setOutput>
 8001988:	e018      	b.n	80019bc <update_leds+0x134>
 800198a:	2100      	movs	r1, #0
 800198c:	200f      	movs	r0, #15
 800198e:	f7fe fe39 	bl	8000604 <setOutput>
 8001992:	4b1b      	ldr	r3, [pc, #108]	; (8001a00 <update_leds+0x178>)
 8001994:	781b      	ldrb	r3, [r3, #0]
 8001996:	2b00      	cmp	r3, #0
 8001998:	d10d      	bne.n	80019b6 <update_leds+0x12e>
 800199a:	200f      	movs	r0, #15
 800199c:	f7fe fe5e 	bl	800065c <toggleOutput>
 80019a0:	e00c      	b.n	80019bc <update_leds+0x134>
 80019a2:	4b18      	ldr	r3, [pc, #96]	; (8001a04 <update_leds+0x17c>)
 80019a4:	781b      	ldrb	r3, [r3, #0]
 80019a6:	2b00      	cmp	r3, #0
 80019a8:	d107      	bne.n	80019ba <update_leds+0x132>
 80019aa:	200f      	movs	r0, #15
 80019ac:	f7fe fe56 	bl	800065c <toggleOutput>
 80019b0:	e004      	b.n	80019bc <update_leds+0x134>
 80019b2:	bf00      	nop
 80019b4:	e002      	b.n	80019bc <update_leds+0x134>
 80019b6:	bf00      	nop
 80019b8:	e000      	b.n	80019bc <update_leds+0x134>
 80019ba:	bf00      	nop
 80019bc:	4b10      	ldr	r3, [pc, #64]	; (8001a00 <update_leds+0x178>)
 80019be:	781b      	ldrb	r3, [r3, #0]
 80019c0:	2b00      	cmp	r3, #0
 80019c2:	d006      	beq.n	80019d2 <update_leds+0x14a>
 80019c4:	4b0e      	ldr	r3, [pc, #56]	; (8001a00 <update_leds+0x178>)
 80019c6:	781b      	ldrb	r3, [r3, #0]
 80019c8:	3b01      	subs	r3, #1
 80019ca:	b2da      	uxtb	r2, r3
 80019cc:	4b0c      	ldr	r3, [pc, #48]	; (8001a00 <update_leds+0x178>)
 80019ce:	701a      	strb	r2, [r3, #0]
 80019d0:	e002      	b.n	80019d8 <update_leds+0x150>
 80019d2:	4b0b      	ldr	r3, [pc, #44]	; (8001a00 <update_leds+0x178>)
 80019d4:	2204      	movs	r2, #4
 80019d6:	701a      	strb	r2, [r3, #0]
 80019d8:	4b0a      	ldr	r3, [pc, #40]	; (8001a04 <update_leds+0x17c>)
 80019da:	781b      	ldrb	r3, [r3, #0]
 80019dc:	2b00      	cmp	r3, #0
 80019de:	d006      	beq.n	80019ee <update_leds+0x166>
 80019e0:	4b08      	ldr	r3, [pc, #32]	; (8001a04 <update_leds+0x17c>)
 80019e2:	781b      	ldrb	r3, [r3, #0]
 80019e4:	3b01      	subs	r3, #1
 80019e6:	b2da      	uxtb	r2, r3
 80019e8:	4b06      	ldr	r3, [pc, #24]	; (8001a04 <update_leds+0x17c>)
 80019ea:	701a      	strb	r2, [r3, #0]
 80019ec:	e002      	b.n	80019f4 <update_leds+0x16c>
 80019ee:	4b05      	ldr	r3, [pc, #20]	; (8001a04 <update_leds+0x17c>)
 80019f0:	2201      	movs	r2, #1
 80019f2:	701a      	strb	r2, [r3, #0]
 80019f4:	bf00      	nop
 80019f6:	3708      	adds	r7, #8
 80019f8:	46bd      	mov	sp, r7
 80019fa:	bd80      	pop	{r7, pc}
 80019fc:	20000128 	.word	0x20000128
 8001a00:	20000006 	.word	0x20000006
 8001a04:	20000005 	.word	0x20000005

08001a08 <set_led>:
 8001a08:	b480      	push	{r7}
 8001a0a:	b083      	sub	sp, #12
 8001a0c:	af00      	add	r7, sp, #0
 8001a0e:	4603      	mov	r3, r0
 8001a10:	460a      	mov	r2, r1
 8001a12:	71fb      	strb	r3, [r7, #7]
 8001a14:	4613      	mov	r3, r2
 8001a16:	71bb      	strb	r3, [r7, #6]
 8001a18:	79fb      	ldrb	r3, [r7, #7]
 8001a1a:	4904      	ldr	r1, [pc, #16]	; (8001a2c <set_led+0x24>)
 8001a1c:	79ba      	ldrb	r2, [r7, #6]
 8001a1e:	54ca      	strb	r2, [r1, r3]
 8001a20:	bf00      	nop
 8001a22:	370c      	adds	r7, #12
 8001a24:	46bd      	mov	sp, r7
 8001a26:	bc80      	pop	{r7}
 8001a28:	4770      	bx	lr
 8001a2a:	bf00      	nop
 8001a2c:	20000128 	.word	0x20000128

08001a30 <main>:
/**
  * @brief  The application entry point.
  * @retval int
  */
int main(void)
{
 8001a30:	b580      	push	{r7, lr}
 8001a32:	b082      	sub	sp, #8
 8001a34:	af02      	add	r7, sp, #8
  /* USER CODE END 1 */

  /* MCU Configuration--------------------------------------------------------*/

  /* Reset of all peripherals, Initializes the Flash interface and the Systick. */
  HAL_Init();
 8001a36:	f001 f91d 	bl	8002c74 <HAL_Init>
  /* USER CODE BEGIN Init */

  /* USER CODE END Init */

  /* Configure the system clock */
  SystemClock_Config();
 8001a3a:	f000 f87d 	bl	8001b38 <SystemClock_Config>
  /* USER CODE BEGIN SysInit */

  /* USER CODE END SysInit */

  /* Initialize all configured peripherals */
  MX_GPIO_Init();
 8001a3e:	f7ff fe85 	bl	800174c <MX_GPIO_Init>
  MX_RTC_Init();
 8001a42:	f000 fd9d 	bl	8002580 <MX_RTC_Init>
  MX_USART1_UART_Init();
 8001a46:	f001 f86b 	bl	8002b20 <MX_USART1_UART_Init>
  MX_TIM2_Init();
 8001a4a:	f000 ff97 	bl	800297c <MX_TIM2_Init>
  MX_SPI2_Init();
 8001a4e:	f000 fe2f 	bl	80026b0 <MX_SPI2_Init>
  MX_ADC1_Init();
 8001a52:	f7fe fff5 	bl	8000a40 <MX_ADC1_Init>
  MX_TIM3_Init();
 8001a56:	f000 ffdd 	bl	8002a14 <MX_TIM3_Init>
  /* USER CODE BEGIN 2 */

  spi_74HC165_init(&hspi2, OUT_PL_GPIO_Port, OUT_PL_Pin, OUT_CE_GPIO_Port, OUT_CE_Pin);
 8001a5a:	f44f 7380 	mov.w	r3, #256	; 0x100
 8001a5e:	9300      	str	r3, [sp, #0]
 8001a60:	4b2d      	ldr	r3, [pc, #180]	; (8001b18 <main+0xe8>)
 8001a62:	f44f 7200 	mov.w	r2, #512	; 0x200
 8001a66:	492c      	ldr	r1, [pc, #176]	; (8001b18 <main+0xe8>)
 8001a68:	482c      	ldr	r0, [pc, #176]	; (8001b1c <main+0xec>)
 8001a6a:	f7fe fb6f 	bl	800014c <spi_74HC165_init>
  spi_74HC595_init(&hspi2, OUT_ST_GPIO_Port, OUT_ST_Pin);
 8001a6e:	f44f 5280 	mov.w	r2, #4096	; 0x1000
 8001a72:	492b      	ldr	r1, [pc, #172]	; (8001b20 <main+0xf0>)
 8001a74:	4829      	ldr	r0, [pc, #164]	; (8001b1c <main+0xec>)
 8001a76:	f7fe fc0b 	bl	8000290 <spi_74HC595_init>

  HAL_TIM_Base_Start_IT(&htim2); //ticks every 10 ms.
 8001a7a:	482a      	ldr	r0, [pc, #168]	; (8001b24 <main+0xf4>)
 8001a7c:	f003 fff6 	bl	8005a6c <HAL_TIM_Base_Start_IT>


  start_menu();
 8001a80:	f000 f8de 	bl	8001c40 <start_menu>

  /* Infinite loop */
  /* USER CODE BEGIN WHILE */
  while (1)
  {
	  update_teclas();
 8001a84:	f7fe fd02 	bl	800048c <update_teclas>

//	  uint8_t pruebaNumero = getNumber();

	  if (flag_tick){ //ticks every 10 ms.
 8001a88:	4b27      	ldr	r3, [pc, #156]	; (8001b28 <main+0xf8>)
 8001a8a:	781b      	ldrb	r3, [r3, #0]
 8001a8c:	2b00      	cmp	r3, #0
 8001a8e:	d031      	beq.n	8001af4 <main+0xc4>

		  update_horaFecha();
 8001a90:	f7ff fed6 	bl	8001840 <update_horaFecha>
		  check_duracionPulsadores();
 8001a94:	f000 f8ee 	bl	8001c74 <check_duracionPulsadores>

		  if (flag_lecturas != 0){ //para demorar las lecturas de teclas cada 30 ms.
 8001a98:	4b24      	ldr	r3, [pc, #144]	; (8001b2c <main+0xfc>)
 8001a9a:	781b      	ldrb	r3, [r3, #0]
 8001a9c:	2b00      	cmp	r3, #0
 8001a9e:	d006      	beq.n	8001aae <main+0x7e>
			  flag_lecturas--;
 8001aa0:	4b22      	ldr	r3, [pc, #136]	; (8001b2c <main+0xfc>)
 8001aa2:	781b      	ldrb	r3, [r3, #0]
 8001aa4:	3b01      	subs	r3, #1
 8001aa6:	b2da      	uxtb	r2, r3
 8001aa8:	4b20      	ldr	r3, [pc, #128]	; (8001b2c <main+0xfc>)
 8001aaa:	701a      	strb	r2, [r3, #0]
 8001aac:	e004      	b.n	8001ab8 <main+0x88>
		  }else{
			  lecturaTeclas();
 8001aae:	f7fe fcad 	bl	800040c <lecturaTeclas>

			  flag_lecturas = 2;
 8001ab2:	4b1e      	ldr	r3, [pc, #120]	; (8001b2c <main+0xfc>)
 8001ab4:	2202      	movs	r2, #2
 8001ab6:	701a      	strb	r2, [r3, #0]
		  }

		  if (flag_salidas != 0){ //para demorar la escritura de las salidas cada 100 ms.
 8001ab8:	4b1d      	ldr	r3, [pc, #116]	; (8001b30 <main+0x100>)
 8001aba:	781b      	ldrb	r3, [r3, #0]
 8001abc:	2b00      	cmp	r3, #0
 8001abe:	d006      	beq.n	8001ace <main+0x9e>
			  flag_salidas--;
 8001ac0:	4b1b      	ldr	r3, [pc, #108]	; (8001b30 <main+0x100>)
 8001ac2:	781b      	ldrb	r3, [r3, #0]
 8001ac4:	3b01      	subs	r3, #1
 8001ac6:	b2da      	uxtb	r2, r3
 8001ac8:	4b19      	ldr	r3, [pc, #100]	; (8001b30 <main+0x100>)
 8001aca:	701a      	strb	r2, [r3, #0]
 8001acc:	e006      	b.n	8001adc <main+0xac>
		  }else{
			  update_leds();
 8001ace:	f7ff fedb 	bl	8001888 <update_leds>
			  update_outputs();
 8001ad2:	f7fe fddb 	bl	800068c <update_outputs>

//			  uint8_t datoPrueba[2] = {0xFF, 0xFF};
//			  spi_74HC595_Transmit(datoPrueba, 2);

			  flag_salidas = 9;
 8001ad6:	4b16      	ldr	r3, [pc, #88]	; (8001b30 <main+0x100>)
 8001ad8:	2209      	movs	r2, #9
 8001ada:	701a      	strb	r2, [r3, #0]
		  }

		  if (refresh_pantalla != 0){ //refresca cada 300 ms
 8001adc:	4b15      	ldr	r3, [pc, #84]	; (8001b34 <main+0x104>)
 8001ade:	781b      	ldrb	r3, [r3, #0]
 8001ae0:	2b00      	cmp	r3, #0
 8001ae2:	d004      	beq.n	8001aee <main+0xbe>
			  pantallaUpdate();
 8001ae4:	f7ff f9c8 	bl	8000e78 <pantallaUpdate>
			  refresh_pantalla = 29;
 8001ae8:	4b12      	ldr	r3, [pc, #72]	; (8001b34 <main+0x104>)
 8001aea:	221d      	movs	r2, #29
 8001aec:	701a      	strb	r2, [r3, #0]
		  }

		  flag_tick = 0;
 8001aee:	4b0e      	ldr	r3, [pc, #56]	; (8001b28 <main+0xf8>)
 8001af0:	2200      	movs	r2, #0
 8001af2:	701a      	strb	r2, [r3, #0]
	  }//end if flag_tick

	  check_pulsadores();
 8001af4:	f000 f8dc 	bl	8001cb0 <check_pulsadores>
	  check_menu();
 8001af8:	f000 f8b2 	bl	8001c60 <check_menu>
	  runProg_hidro(PROG_CHECK);
 8001afc:	2001      	movs	r0, #1
 8001afe:	f7ff fc35 	bl	800136c <runProg_hidro>
	  runProg_llenado(PROG_CHECK);
 8001b02:	2001      	movs	r0, #1
 8001b04:	f7ff fd06 	bl	8001514 <runProg_llenado>
	  runProg_luz(PROG_CHECK);
 8001b08:	2001      	movs	r0, #1
 8001b0a:	f7ff fe13 	bl	8001734 <runProg_luz>
	  runProg_skimmer(PROG_CHECK);
 8001b0e:	2001      	movs	r0, #1
 8001b10:	f7ff fdb2 	bl	8001678 <runProg_skimmer>
	  update_teclas();
 8001b14:	e7b6      	b.n	8001a84 <main+0x54>
 8001b16:	bf00      	nop
 8001b18:	40010800 	.word	0x40010800
 8001b1c:	20000630 	.word	0x20000630
 8001b20:	40010c00 	.word	0x40010c00
 8001b24:	200006c8 	.word	0x200006c8
 8001b28:	2000013c 	.word	0x2000013c
 8001b2c:	20000000 	.word	0x20000000
 8001b30:	20000001 	.word	0x20000001
 8001b34:	20000007 	.word	0x20000007

08001b38 <SystemClock_Config>:
/**
  * @brief System Clock Configuration
  * @retval None
  */
void SystemClock_Config(void)
{
 8001b38:	b580      	push	{r7, lr}
 8001b3a:	b094      	sub	sp, #80	; 0x50
 8001b3c:	af00      	add	r7, sp, #0
  RCC_OscInitTypeDef RCC_OscInitStruct = {0};
 8001b3e:	f107 0328 	add.w	r3, r7, #40	; 0x28
 8001b42:	2228      	movs	r2, #40	; 0x28
 8001b44:	2100      	movs	r1, #0
 8001b46:	4618      	mov	r0, r3
 8001b48:	f004 fc36 	bl	80063b8 <memset>
  RCC_ClkInitTypeDef RCC_ClkInitStruct = {0};
 8001b4c:	f107 0314 	add.w	r3, r7, #20
 8001b50:	2200      	movs	r2, #0
 8001b52:	601a      	str	r2, [r3, #0]
 8001b54:	605a      	str	r2, [r3, #4]
 8001b56:	609a      	str	r2, [r3, #8]
 8001b58:	60da      	str	r2, [r3, #12]
 8001b5a:	611a      	str	r2, [r3, #16]
  RCC_PeriphCLKInitTypeDef PeriphClkInit = {0};
 8001b5c:	1d3b      	adds	r3, r7, #4
 8001b5e:	2200      	movs	r2, #0
 8001b60:	601a      	str	r2, [r3, #0]
 8001b62:	605a      	str	r2, [r3, #4]
 8001b64:	609a      	str	r2, [r3, #8]
 8001b66:	60da      	str	r2, [r3, #12]

  /** Initializes the RCC Oscillators according to the specified parameters
  * in the RCC_OscInitTypeDef structure.
  */
  RCC_OscInitStruct.OscillatorType = RCC_OSCILLATORTYPE_LSI|RCC_OSCILLATORTYPE_HSE;
 8001b68:	2309      	movs	r3, #9
 8001b6a:	62bb      	str	r3, [r7, #40]	; 0x28
  RCC_OscInitStruct.HSEState = RCC_HSE_ON;
 8001b6c:	f44f 3380 	mov.w	r3, #65536	; 0x10000
 8001b70:	62fb      	str	r3, [r7, #44]	; 0x2c
  RCC_OscInitStruct.HSEPredivValue = RCC_HSE_PREDIV_DIV1;
 8001b72:	2300      	movs	r3, #0
 8001b74:	633b      	str	r3, [r7, #48]	; 0x30
  RCC_OscInitStruct.HSIState = RCC_HSI_ON;
 8001b76:	2301      	movs	r3, #1
 8001b78:	63bb      	str	r3, [r7, #56]	; 0x38
  RCC_OscInitStruct.LSIState = RCC_LSI_ON;
 8001b7a:	2301      	movs	r3, #1
 8001b7c:	643b      	str	r3, [r7, #64]	; 0x40
  RCC_OscInitStruct.PLL.PLLState = RCC_PLL_ON;
 8001b7e:	2302      	movs	r3, #2
 8001b80:	647b      	str	r3, [r7, #68]	; 0x44
  RCC_OscInitStruct.PLL.PLLSource = RCC_PLLSOURCE_HSE;
 8001b82:	f44f 3380 	mov.w	r3, #65536	; 0x10000
 8001b86:	64bb      	str	r3, [r7, #72]	; 0x48
  RCC_OscInitStruct.PLL.PLLMUL = RCC_PLL_MUL9;
 8001b88:	f44f 13e0 	mov.w	r3, #1835008	; 0x1c0000
 8001b8c:	64fb      	str	r3, [r7, #76]	; 0x4c
  if (HAL_RCC_OscConfig(&RCC_OscInitStruct) != HAL_OK)
 8001b8e:	f107 0328 	add.w	r3, r7, #40	; 0x28
 8001b92:	4618      	mov	r0, r3
 8001b94:	f001 fda0 	bl	80036d8 <HAL_RCC_OscConfig>
 8001b98:	4603      	mov	r3, r0
 8001b9a:	2b00      	cmp	r3, #0
 8001b9c:	d001      	beq.n	8001ba2 <SystemClock_Config+0x6a>
  {
    Error_Handler();
 8001b9e:	f000 f849 	bl	8001c34 <Error_Handler>
  }
  /** Initializes the CPU, AHB and APB buses clocks
  */
  RCC_ClkInitStruct.ClockType = RCC_CLOCKTYPE_HCLK|RCC_CLOCKTYPE_SYSCLK
 8001ba2:	230f      	movs	r3, #15
 8001ba4:	617b      	str	r3, [r7, #20]
                              |RCC_CLOCKTYPE_PCLK1|RCC_CLOCKTYPE_PCLK2;
  RCC_ClkInitStruct.SYSCLKSource = RCC_SYSCLKSOURCE_PLLCLK;
 8001ba6:	2302      	movs	r3, #2
 8001ba8:	61bb      	str	r3, [r7, #24]
  RCC_ClkInitStruct.AHBCLKDivider = RCC_SYSCLK_DIV1;
 8001baa:	2300      	movs	r3, #0
 8001bac:	61fb      	str	r3, [r7, #28]
  RCC_ClkInitStruct.APB1CLKDivider = RCC_HCLK_DIV2;
 8001bae:	f44f 6380 	mov.w	r3, #1024	; 0x400
 8001bb2:	623b      	str	r3, [r7, #32]
  RCC_ClkInitStruct.APB2CLKDivider = RCC_HCLK_DIV1;
 8001bb4:	2300      	movs	r3, #0
 8001bb6:	627b      	str	r3, [r7, #36]	; 0x24

  if (HAL_RCC_ClockConfig(&RCC_ClkInitStruct, FLASH_LATENCY_2) != HAL_OK)
 8001bb8:	f107 0314 	add.w	r3, r7, #20
 8001bbc:	2102      	movs	r1, #2
 8001bbe:	4618      	mov	r0, r3
 8001bc0:	f002 f80a 	bl	8003bd8 <HAL_RCC_ClockConfig>
 8001bc4:	4603      	mov	r3, r0
 8001bc6:	2b00      	cmp	r3, #0
 8001bc8:	d001      	beq.n	8001bce <SystemClock_Config+0x96>
  {
    Error_Handler();
 8001bca:	f000 f833 	bl	8001c34 <Error_Handler>
  }
  PeriphClkInit.PeriphClockSelection = RCC_PERIPHCLK_RTC|RCC_PERIPHCLK_ADC;
 8001bce:	2303      	movs	r3, #3
 8001bd0:	607b      	str	r3, [r7, #4]
  PeriphClkInit.RTCClockSelection = RCC_RTCCLKSOURCE_LSI;
 8001bd2:	f44f 7300 	mov.w	r3, #512	; 0x200
 8001bd6:	60bb      	str	r3, [r7, #8]
  PeriphClkInit.AdcClockSelection = RCC_ADCPCLK2_DIV6;
 8001bd8:	f44f 4300 	mov.w	r3, #32768	; 0x8000
 8001bdc:	60fb      	str	r3, [r7, #12]
  if (HAL_RCCEx_PeriphCLKConfig(&PeriphClkInit) != HAL_OK)
 8001bde:	1d3b      	adds	r3, r7, #4
 8001be0:	4618      	mov	r0, r3
 8001be2:	f002 f995 	bl	8003f10 <HAL_RCCEx_PeriphCLKConfig>
 8001be6:	4603      	mov	r3, r0
 8001be8:	2b00      	cmp	r3, #0
 8001bea:	d001      	beq.n	8001bf0 <SystemClock_Config+0xb8>
  {
    Error_Handler();
 8001bec:	f000 f822 	bl	8001c34 <Error_Handler>
  }
}
 8001bf0:	bf00      	nop
 8001bf2:	3750      	adds	r7, #80	; 0x50
 8001bf4:	46bd      	mov	sp, r7
 8001bf6:	bd80      	pop	{r7, pc}

08001bf8 <HAL_TIM_PeriodElapsedCallback>:

/* USER CODE BEGIN 4 */
void HAL_TIM_PeriodElapsedCallback(TIM_HandleTypeDef *htim){
 8001bf8:	b480      	push	{r7}
 8001bfa:	b083      	sub	sp, #12
 8001bfc:	af00      	add	r7, sp, #0
 8001bfe:	6078      	str	r0, [r7, #4]
	if (htim->Instance == TIM2){
 8001c00:	687b      	ldr	r3, [r7, #4]
 8001c02:	681b      	ldr	r3, [r3, #0]
 8001c04:	f1b3 4f80 	cmp.w	r3, #1073741824	; 0x40000000
 8001c08:	d102      	bne.n	8001c10 <HAL_TIM_PeriodElapsedCallback+0x18>
		flag_tick = 1;
 8001c0a:	4b04      	ldr	r3, [pc, #16]	; (8001c1c <HAL_TIM_PeriodElapsedCallback+0x24>)
 8001c0c:	2201      	movs	r2, #1
 8001c0e:	701a      	strb	r2, [r3, #0]
	}
}
 8001c10:	bf00      	nop
 8001c12:	370c      	adds	r7, #12
 8001c14:	46bd      	mov	sp, r7
 8001c16:	bc80      	pop	{r7}
 8001c18:	4770      	bx	lr
 8001c1a:	bf00      	nop
 8001c1c:	2000013c 	.word	0x2000013c

08001c20 <HAL_RTC_AlarmAEventCallback>:

void HAL_RTC_AlarmAEventCallback(RTC_HandleTypeDef *hrtc){
 8001c20:	b480      	push	{r7}
 8001c22:	b083      	sub	sp, #12
 8001c24:	af00      	add	r7, sp, #0
 8001c26:	6078      	str	r0, [r7, #4]
	__NOP();
 8001c28:	bf00      	nop
}
 8001c2a:	bf00      	nop
 8001c2c:	370c      	adds	r7, #12
 8001c2e:	46bd      	mov	sp, r7
 8001c30:	bc80      	pop	{r7}
 8001c32:	4770      	bx	lr

08001c34 <Error_Handler>:
/**
  * @brief  This function is executed in case of error occurrence.
  * @retval None
  */
void Error_Handler(void)
{
 8001c34:	b480      	push	{r7}
 8001c36:	af00      	add	r7, sp, #0
  /* USER CODE BEGIN Error_Handler_Debug */
  /* User can add his own implementation to report the HAL error return state */

  /* USER CODE END Error_Handler_Debug */
}
 8001c38:	bf00      	nop
 8001c3a:	46bd      	mov	sp, r7
 8001c3c:	bc80      	pop	{r7}
 8001c3e:	4770      	bx	lr

08001c40 <start_menu>:
T_STATUS_LUCESEXT status_menuLucesExt = LIMITE_TIEMPO_LUCESEXT;

/////////////////////////////////////////
//         FUNCIONES PUBLICAS          //
/////////////////////////////////////////
void start_menu (void){
 8001c40:	b580      	push	{r7, lr}
 8001c42:	af00      	add	r7, sp, #0
	init_pantalla();
 8001c44:	f7fe ff98 	bl	8000b78 <init_pantalla>
	init_menuPrincipal();
 8001c48:	f000 f8da 	bl	8001e00 <init_menuPrincipal>
	menuActual = &menu[MENU_PRINCIPAL];
 8001c4c:	4b02      	ldr	r3, [pc, #8]	; (8001c58 <start_menu+0x18>)
 8001c4e:	4a03      	ldr	r2, [pc, #12]	; (8001c5c <start_menu+0x1c>)
 8001c50:	601a      	str	r2, [r3, #0]
}
 8001c52:	bf00      	nop
 8001c54:	bd80      	pop	{r7, pc}
 8001c56:	bf00      	nop
 8001c58:	20000610 	.word	0x20000610
 8001c5c:	20000008 	.word	0x20000008

08001c60 <check_menu>:

void check_menu (void){
 8001c60:	b580      	push	{r7, lr}
 8001c62:	af00      	add	r7, sp, #0
	menuActual->accion();
 8001c64:	4b02      	ldr	r3, [pc, #8]	; (8001c70 <check_menu+0x10>)
 8001c66:	681b      	ldr	r3, [r3, #0]
 8001c68:	68db      	ldr	r3, [r3, #12]
 8001c6a:	4798      	blx	r3
}
 8001c6c:	bf00      	nop
 8001c6e:	bd80      	pop	{r7, pc}
 8001c70:	20000610 	.word	0x20000610

08001c74 <check_duracionPulsadores>:

void check_duracionPulsadores (void){
 8001c74:	b480      	push	{r7}
 8001c76:	af00      	add	r7, sp, #0

	if (pulsoLargo_skimmer != 0){
 8001c78:	4b0b      	ldr	r3, [pc, #44]	; (8001ca8 <check_duracionPulsadores+0x34>)
 8001c7a:	781b      	ldrb	r3, [r3, #0]
 8001c7c:	2b00      	cmp	r3, #0
 8001c7e:	d005      	beq.n	8001c8c <check_duracionPulsadores+0x18>
		pulsoLargo_skimmer--;
 8001c80:	4b09      	ldr	r3, [pc, #36]	; (8001ca8 <check_duracionPulsadores+0x34>)
 8001c82:	781b      	ldrb	r3, [r3, #0]
 8001c84:	3b01      	subs	r3, #1
 8001c86:	b2da      	uxtb	r2, r3
 8001c88:	4b07      	ldr	r3, [pc, #28]	; (8001ca8 <check_duracionPulsadores+0x34>)
 8001c8a:	701a      	strb	r2, [r3, #0]
	}

	if (pulsoLargo_luz != 0){
 8001c8c:	4b07      	ldr	r3, [pc, #28]	; (8001cac <check_duracionPulsadores+0x38>)
 8001c8e:	781b      	ldrb	r3, [r3, #0]
 8001c90:	2b00      	cmp	r3, #0
 8001c92:	d005      	beq.n	8001ca0 <check_duracionPulsadores+0x2c>
		pulsoLargo_luz--;
 8001c94:	4b05      	ldr	r3, [pc, #20]	; (8001cac <check_duracionPulsadores+0x38>)
 8001c96:	781b      	ldrb	r3, [r3, #0]
 8001c98:	3b01      	subs	r3, #1
 8001c9a:	b2da      	uxtb	r2, r3
 8001c9c:	4b03      	ldr	r3, [pc, #12]	; (8001cac <check_duracionPulsadores+0x38>)
 8001c9e:	701a      	strb	r2, [r3, #0]
	}
} //end check_duracionPulsadores ()
 8001ca0:	bf00      	nop
 8001ca2:	46bd      	mov	sp, r7
 8001ca4:	bc80      	pop	{r7}
 8001ca6:	4770      	bx	lr
 8001ca8:	2000013e 	.word	0x2000013e
 8001cac:	2000013f 	.word	0x2000013f

08001cb0 <check_pulsadores>:

void check_pulsadores (void){
 8001cb0:	b580      	push	{r7, lr}
 8001cb2:	af00      	add	r7, sp, #0

	if (getStatBoton(IN_jet) == FALL){
 8001cb4:	2014      	movs	r0, #20
 8001cb6:	f7fe fc0b 	bl	80004d0 <getStatBoton>
 8001cba:	4603      	mov	r3, r0
 8001cbc:	2b02      	cmp	r3, #2
 8001cbe:	d112      	bne.n	8001ce6 <check_pulsadores+0x36>
		if (runProg_hidro(PROG_CHECK) == PROG_BUSY){
 8001cc0:	2001      	movs	r0, #1
 8001cc2:	f7ff fb53 	bl	800136c <runProg_hidro>
 8001cc6:	4603      	mov	r3, r0
 8001cc8:	2b02      	cmp	r3, #2
 8001cca:	d103      	bne.n	8001cd4 <check_pulsadores+0x24>
			runProg_hidro(PROG_STOP);
 8001ccc:	2003      	movs	r0, #3
 8001cce:	f7ff fb4d 	bl	800136c <runProg_hidro>
 8001cd2:	e008      	b.n	8001ce6 <check_pulsadores+0x36>
		}else if(runProg_hidro(PROG_CHECK) == PROG_IDLE){
 8001cd4:	2001      	movs	r0, #1
 8001cd6:	f7ff fb49 	bl	800136c <runProg_hidro>
 8001cda:	4603      	mov	r3, r0
 8001cdc:	2b01      	cmp	r3, #1
 8001cde:	d102      	bne.n	8001ce6 <check_pulsadores+0x36>
			runProg_hidro(PROG_RUN);
 8001ce0:	2002      	movs	r0, #2
 8001ce2:	f7ff fb43 	bl	800136c <runProg_hidro>
		}
	} //end if getStatBoton IN_jet

	if (getStatBoton(IN_napa) == FALL){
 8001ce6:	2013      	movs	r0, #19
 8001ce8:	f7fe fbf2 	bl	80004d0 <getStatBoton>
 8001cec:	4603      	mov	r3, r0
 8001cee:	2b02      	cmp	r3, #2
 8001cf0:	d112      	bne.n	8001d18 <check_pulsadores+0x68>

		if (status_menuLlenado < ELIJE_ON_OFF_LLENADO){ //si no est en la configuracin
 8001cf2:	4b3b      	ldr	r3, [pc, #236]	; (8001de0 <check_pulsadores+0x130>)
 8001cf4:	781b      	ldrb	r3, [r3, #0]
 8001cf6:	2b05      	cmp	r3, #5
 8001cf8:	d80e      	bhi.n	8001d18 <check_pulsadores+0x68>
			menuAux = menuActual;
 8001cfa:	4b3a      	ldr	r3, [pc, #232]	; (8001de4 <check_pulsadores+0x134>)
 8001cfc:	681b      	ldr	r3, [r3, #0]
 8001cfe:	4a3a      	ldr	r2, [pc, #232]	; (8001de8 <check_pulsadores+0x138>)
 8001d00:	6013      	str	r3, [r2, #0]
			menuActual = &menu[MENU_LLENADO];
 8001d02:	4b38      	ldr	r3, [pc, #224]	; (8001de4 <check_pulsadores+0x134>)
 8001d04:	4a39      	ldr	r2, [pc, #228]	; (8001dec <check_pulsadores+0x13c>)
 8001d06:	601a      	str	r2, [r3, #0]
			menuActual->menuAnterior = &menu[MENU_PRINCIPAL];
 8001d08:	4b36      	ldr	r3, [pc, #216]	; (8001de4 <check_pulsadores+0x134>)
 8001d0a:	681b      	ldr	r3, [r3, #0]
 8001d0c:	4a38      	ldr	r2, [pc, #224]	; (8001df0 <check_pulsadores+0x140>)
 8001d0e:	605a      	str	r2, [r3, #4]
			menuActual->inicia_menu();
 8001d10:	4b34      	ldr	r3, [pc, #208]	; (8001de4 <check_pulsadores+0x134>)
 8001d12:	681b      	ldr	r3, [r3, #0]
 8001d14:	689b      	ldr	r3, [r3, #8]
 8001d16:	4798      	blx	r3
		}
	} //end if getStatBoton(IN_napa)...

	if (getStatBoton(IN_tomas) == FALL){
 8001d18:	2010      	movs	r0, #16
 8001d1a:	f7fe fbd9 	bl	80004d0 <getStatBoton>
 8001d1e:	4603      	mov	r3, r0
 8001d20:	2b02      	cmp	r3, #2
 8001d22:	d11a      	bne.n	8001d5a <check_pulsadores+0xaa>
		if (!flag_tomas){
 8001d24:	4b33      	ldr	r3, [pc, #204]	; (8001df4 <check_pulsadores+0x144>)
 8001d26:	781b      	ldrb	r3, [r3, #0]
 8001d28:	2b00      	cmp	r3, #0
 8001d2a:	d10b      	bne.n	8001d44 <check_pulsadores+0x94>
			setOutput(OUT_rele_tomas, 1); //logica positiva
 8001d2c:	2101      	movs	r1, #1
 8001d2e:	2008      	movs	r0, #8
 8001d30:	f7fe fc68 	bl	8000604 <setOutput>
			set_led(OUT_led_tomas, PRENDIDO);
 8001d34:	2101      	movs	r1, #1
 8001d36:	200f      	movs	r0, #15
 8001d38:	f7ff fe66 	bl	8001a08 <set_led>
			flag_tomas = 0;
 8001d3c:	4b2d      	ldr	r3, [pc, #180]	; (8001df4 <check_pulsadores+0x144>)
 8001d3e:	2200      	movs	r2, #0
 8001d40:	701a      	strb	r2, [r3, #0]
 8001d42:	e00a      	b.n	8001d5a <check_pulsadores+0xaa>
		}else{
			setOutput(OUT_rele_tomas, 0); //logica positiva
 8001d44:	2100      	movs	r1, #0
 8001d46:	2008      	movs	r0, #8
 8001d48:	f7fe fc5c 	bl	8000604 <setOutput>
			set_led(OUT_led_tomas, APAGADO);
 8001d4c:	2100      	movs	r1, #0
 8001d4e:	200f      	movs	r0, #15
 8001d50:	f7ff fe5a 	bl	8001a08 <set_led>
			flag_tomas = 1;
 8001d54:	4b27      	ldr	r3, [pc, #156]	; (8001df4 <check_pulsadores+0x144>)
 8001d56:	2201      	movs	r2, #1
 8001d58:	701a      	strb	r2, [r3, #0]
		}
	} //end if IN_tomas

	if (getStatBoton(IN_pileta) == FALL){
 8001d5a:	2015      	movs	r0, #21
 8001d5c:	f7fe fbb8 	bl	80004d0 <getStatBoton>
 8001d60:	4603      	mov	r3, r0
 8001d62:	2b02      	cmp	r3, #2
 8001d64:	d118      	bne.n	8001d98 <check_pulsadores+0xe8>
		aux_progOutput = runProg_skimmer(PROG_CHECK);
 8001d66:	2001      	movs	r0, #1
 8001d68:	f7ff fc86 	bl	8001678 <runProg_skimmer>
 8001d6c:	4603      	mov	r3, r0
 8001d6e:	461a      	mov	r2, r3
 8001d70:	4b21      	ldr	r3, [pc, #132]	; (8001df8 <check_pulsadores+0x148>)
 8001d72:	701a      	strb	r2, [r3, #0]

		if (aux_progOutput == PROG_IDLE){
 8001d74:	4b20      	ldr	r3, [pc, #128]	; (8001df8 <check_pulsadores+0x148>)
 8001d76:	781b      	ldrb	r3, [r3, #0]
 8001d78:	2b01      	cmp	r3, #1
 8001d7a:	d103      	bne.n	8001d84 <check_pulsadores+0xd4>
			pulsoLargo_skimmer = 150; //en 10 * ms.
 8001d7c:	4b1f      	ldr	r3, [pc, #124]	; (8001dfc <check_pulsadores+0x14c>)
 8001d7e:	2296      	movs	r2, #150	; 0x96
 8001d80:	701a      	strb	r2, [r3, #0]
 8001d82:	e009      	b.n	8001d98 <check_pulsadores+0xe8>
		}else if(aux_progOutput == PROG_BUSY){
 8001d84:	4b1c      	ldr	r3, [pc, #112]	; (8001df8 <check_pulsadores+0x148>)
 8001d86:	781b      	ldrb	r3, [r3, #0]
 8001d88:	2b02      	cmp	r3, #2
 8001d8a:	d105      	bne.n	8001d98 <check_pulsadores+0xe8>
			pulsoLargo_skimmer = 0;
 8001d8c:	4b1b      	ldr	r3, [pc, #108]	; (8001dfc <check_pulsadores+0x14c>)
 8001d8e:	2200      	movs	r2, #0
 8001d90:	701a      	strb	r2, [r3, #0]
			runProg_skimmer(PROG_STOP);
 8001d92:	2003      	movs	r0, #3
 8001d94:	f7ff fc70 	bl	8001678 <runProg_skimmer>
		}


	} //end if getStatBoton(IN_pileta)

	if (pulsoLargo_skimmer != 0){
 8001d98:	4b18      	ldr	r3, [pc, #96]	; (8001dfc <check_pulsadores+0x14c>)
 8001d9a:	781b      	ldrb	r3, [r3, #0]
 8001d9c:	2b00      	cmp	r3, #0
 8001d9e:	d013      	beq.n	8001dc8 <check_pulsadores+0x118>

		if (getStatBoton(IN_pileta) == HIGH_L){ //pulso corto
 8001da0:	2015      	movs	r0, #21
 8001da2:	f7fe fb95 	bl	80004d0 <getStatBoton>
 8001da6:	4603      	mov	r3, r0
 8001da8:	2b01      	cmp	r3, #1
 8001daa:	d105      	bne.n	8001db8 <check_pulsadores+0x108>
			runProg_skimmer(PROG_SET1); //con programa
 8001dac:	2004      	movs	r0, #4
 8001dae:	f7ff fc63 	bl	8001678 <runProg_skimmer>
			pulsoLargo_skimmer = 0;
 8001db2:	4b12      	ldr	r3, [pc, #72]	; (8001dfc <check_pulsadores+0x14c>)
 8001db4:	2200      	movs	r2, #0
 8001db6:	701a      	strb	r2, [r3, #0]
		}

		if (!pulsoLargo_skimmer){ //pulso largo
 8001db8:	4b10      	ldr	r3, [pc, #64]	; (8001dfc <check_pulsadores+0x14c>)
 8001dba:	781b      	ldrb	r3, [r3, #0]
 8001dbc:	2b00      	cmp	r3, #0
 8001dbe:	d106      	bne.n	8001dce <check_pulsadores+0x11e>
			runProg_skimmer(PROG_SET2); //sin programa
 8001dc0:	2005      	movs	r0, #5
 8001dc2:	f7ff fc59 	bl	8001678 <runProg_skimmer>
 8001dc6:	e002      	b.n	8001dce <check_pulsadores+0x11e>
		}

	}else{

		if (getStatBoton(IN_pileta) == LOW_L){
 8001dc8:	2015      	movs	r0, #21
 8001dca:	f7fe fb81 	bl	80004d0 <getStatBoton>
		}

	} //end if pulsoLargo_skimmer != 0


	if (getStatBoton(IN_pileta) == LOW_L){
 8001dce:	2015      	movs	r0, #21
 8001dd0:	f7fe fb7e 	bl	80004d0 <getStatBoton>
 8001dd4:	4603      	mov	r3, r0
 8001dd6:	2b00      	cmp	r3, #0
 8001dd8:	d100      	bne.n	8001ddc <check_pulsadores+0x12c>
		__NOP();
 8001dda:	bf00      	nop
	}

}
 8001ddc:	bf00      	nop
 8001dde:	bd80      	pop	{r7, pc}
 8001de0:	20000140 	.word	0x20000140
 8001de4:	20000610 	.word	0x20000610
 8001de8:	20000614 	.word	0x20000614
 8001dec:	20000018 	.word	0x20000018
 8001df0:	20000008 	.word	0x20000008
 8001df4:	2000013d 	.word	0x2000013d
 8001df8:	20000618 	.word	0x20000618
 8001dfc:	2000013e 	.word	0x2000013e

08001e00 <init_menuPrincipal>:

/////////////////////////////////////////
//          INICIALIZADORES            //
/////////////////////////////////////////

void init_menuPrincipal (void){
 8001e00:	b580      	push	{r7, lr}
 8001e02:	af00      	add	r7, sp, #0

	set_pantalla(PANT_init_menuPrincipal);
 8001e04:	2000      	movs	r0, #0
 8001e06:	f7fe febf 	bl	8000b88 <set_pantalla>
//	menuActual = &menu[MENU_PRINCIPAL];
}
 8001e0a:	bf00      	nop
 8001e0c:	bd80      	pop	{r7, pc}

08001e0e <init_setLlenado>:


void init_setLlenado (void){
 8001e0e:	b580      	push	{r7, lr}
 8001e10:	af00      	add	r7, sp, #0

	set_pantalla(PANT_init_setLlenado);
 8001e12:	2006      	movs	r0, #6
 8001e14:	f7fe feb8 	bl	8000b88 <set_pantalla>

} //end init_llenado()
 8001e18:	bf00      	nop
 8001e1a:	bd80      	pop	{r7, pc}

08001e1c <init_llenado>:


void init_llenado (void){
 8001e1c:	b580      	push	{r7, lr}
 8001e1e:	af00      	add	r7, sp, #0

	switch (status_menuLlenado) {
 8001e20:	4b0f      	ldr	r3, [pc, #60]	; (8001e60 <init_llenado+0x44>)
 8001e22:	781b      	ldrb	r3, [r3, #0]
 8001e24:	2b01      	cmp	r3, #1
 8001e26:	d010      	beq.n	8001e4a <init_llenado+0x2e>
 8001e28:	2b04      	cmp	r3, #4
 8001e2a:	d00a      	beq.n	8001e42 <init_llenado+0x26>
 8001e2c:	2b00      	cmp	r3, #0
 8001e2e:	d000      	beq.n	8001e32 <init_llenado+0x16>
		break;
		case CONECTE_SENSOR:
			set_pantalla(PANT_CONECTE_SENSOR);
			set_led(OUT_led_napa, PRENDIDO);
		default:
		break;
 8001e30:	e012      	b.n	8001e58 <init_llenado+0x3c>
			set_led(OUT_led_napa, PRENDIDO);
 8001e32:	2101      	movs	r1, #1
 8001e34:	2001      	movs	r0, #1
 8001e36:	f7ff fde7 	bl	8001a08 <set_led>
			set_pantalla(PANT_sensor_conectado);
 8001e3a:	2001      	movs	r0, #1
 8001e3c:	f7fe fea4 	bl	8000b88 <set_pantalla>
		break;
 8001e40:	e00b      	b.n	8001e5a <init_llenado+0x3e>
			set_pantalla(PANT_llenando_terminar);
 8001e42:	2002      	movs	r0, #2
 8001e44:	f7fe fea0 	bl	8000b88 <set_pantalla>
		break;
 8001e48:	e007      	b.n	8001e5a <init_llenado+0x3e>
			set_pantalla(PANT_CONECTE_SENSOR);
 8001e4a:	200a      	movs	r0, #10
 8001e4c:	f7fe fe9c 	bl	8000b88 <set_pantalla>
			set_led(OUT_led_napa, PRENDIDO);
 8001e50:	2101      	movs	r1, #1
 8001e52:	2001      	movs	r0, #1
 8001e54:	f7ff fdd8 	bl	8001a08 <set_led>
		break;
 8001e58:	bf00      	nop
	} //end switch status_menuTablero

} //end init_llenado()
 8001e5a:	bf00      	nop
 8001e5c:	bd80      	pop	{r7, pc}
 8001e5e:	bf00      	nop
 8001e60:	20000140 	.word	0x20000140

08001e64 <init_skimmer>:


void init_skimmer (void){
 8001e64:	b580      	push	{r7, lr}
 8001e66:	af00      	add	r7, sp, #0
	set_pantalla(PANT_init_skimmer);
 8001e68:	2003      	movs	r0, #3
 8001e6a:	f7fe fe8d 	bl	8000b88 <set_pantalla>
}
 8001e6e:	bf00      	nop
 8001e70:	bd80      	pop	{r7, pc}

08001e72 <init_hidro>:


void init_hidro (void){
 8001e72:	b580      	push	{r7, lr}
 8001e74:	af00      	add	r7, sp, #0
	set_pantalla(PANT_init_hidro);
 8001e76:	2004      	movs	r0, #4
 8001e78:	f7fe fe86 	bl	8000b88 <set_pantalla>
}
 8001e7c:	bf00      	nop
 8001e7e:	bd80      	pop	{r7, pc}

08001e80 <init_lucesExt>:


void init_lucesExt (void){
 8001e80:	b580      	push	{r7, lr}
 8001e82:	af00      	add	r7, sp, #0
	set_pantalla(PANT_init_lucesExt);
 8001e84:	2005      	movs	r0, #5
 8001e86:	f7fe fe7f 	bl	8000b88 <set_pantalla>
}
 8001e8a:	bf00      	nop
 8001e8c:	bd80      	pop	{r7, pc}

08001e8e <init_lucesLed>:


void init_lucesLed (void){
 8001e8e:	b480      	push	{r7}
 8001e90:	af00      	add	r7, sp, #0

}
 8001e92:	bf00      	nop
 8001e94:	46bd      	mov	sp, r7
 8001e96:	bc80      	pop	{r7}
 8001e98:	4770      	bx	lr

08001e9a <init_config>:


void init_config (void){
 8001e9a:	b480      	push	{r7}
 8001e9c:	af00      	add	r7, sp, #0

}
 8001e9e:	bf00      	nop
 8001ea0:	46bd      	mov	sp, r7
 8001ea2:	bc80      	pop	{r7}
 8001ea4:	4770      	bx	lr
	...

08001ea8 <acc_menuPrincipal>:

/////////////////////////////////////////
//            ACCIONES                 //
/////////////////////////////////////////

void acc_menuPrincipal (void){
 8001ea8:	b580      	push	{r7, lr}
 8001eaa:	af00      	add	r7, sp, #0

	if (status_menuLlenado > PILETA_LLENA){ //si vuelve del config de llenado, resetea el status
 8001eac:	4b3d      	ldr	r3, [pc, #244]	; (8001fa4 <acc_menuPrincipal+0xfc>)
 8001eae:	781b      	ldrb	r3, [r3, #0]
 8001eb0:	2b05      	cmp	r3, #5
 8001eb2:	d902      	bls.n	8001eba <acc_menuPrincipal+0x12>
		status_menuLlenado = PREGUNTA_SENSOR;
 8001eb4:	4b3b      	ldr	r3, [pc, #236]	; (8001fa4 <acc_menuPrincipal+0xfc>)
 8001eb6:	2200      	movs	r2, #0
 8001eb8:	701a      	strb	r2, [r3, #0]
	}

	if (status_menuHidro != LIMITE_TIEMPO_HIDRO){ //si vuelve del config del hidro, resetea el status
 8001eba:	4b3b      	ldr	r3, [pc, #236]	; (8001fa8 <acc_menuPrincipal+0x100>)
 8001ebc:	781b      	ldrb	r3, [r3, #0]
 8001ebe:	2b00      	cmp	r3, #0
 8001ec0:	d002      	beq.n	8001ec8 <acc_menuPrincipal+0x20>
		status_menuHidro = LIMITE_TIEMPO_HIDRO;
 8001ec2:	4b39      	ldr	r3, [pc, #228]	; (8001fa8 <acc_menuPrincipal+0x100>)
 8001ec4:	2200      	movs	r2, #0
 8001ec6:	701a      	strb	r2, [r3, #0]
	}


	if (getStatBoton(IN_jet)==FALL){
 8001ec8:	2014      	movs	r0, #20
 8001eca:	f7fe fb01 	bl	80004d0 <getStatBoton>
 8001ece:	4603      	mov	r3, r0
 8001ed0:	2b02      	cmp	r3, #2
 8001ed2:	d10b      	bne.n	8001eec <acc_menuPrincipal+0x44>
		menuActual = &menu[MENU_HIDRO];
 8001ed4:	4b35      	ldr	r3, [pc, #212]	; (8001fac <acc_menuPrincipal+0x104>)
 8001ed6:	4a36      	ldr	r2, [pc, #216]	; (8001fb0 <acc_menuPrincipal+0x108>)
 8001ed8:	601a      	str	r2, [r3, #0]
		menuActual->menuAnterior = &menu[MENU_PRINCIPAL];
 8001eda:	4b34      	ldr	r3, [pc, #208]	; (8001fac <acc_menuPrincipal+0x104>)
 8001edc:	681b      	ldr	r3, [r3, #0]
 8001ede:	4a35      	ldr	r2, [pc, #212]	; (8001fb4 <acc_menuPrincipal+0x10c>)
 8001ee0:	605a      	str	r2, [r3, #4]
		menuActual->inicia_menu();
 8001ee2:	4b32      	ldr	r3, [pc, #200]	; (8001fac <acc_menuPrincipal+0x104>)
 8001ee4:	681b      	ldr	r3, [r3, #0]
 8001ee6:	689b      	ldr	r3, [r3, #8]
 8001ee8:	4798      	blx	r3
		return;
 8001eea:	e059      	b.n	8001fa0 <acc_menuPrincipal+0xf8>
	}

	if (getStatBoton(IN_A)==FALL){
 8001eec:	2003      	movs	r0, #3
 8001eee:	f7fe faef 	bl	80004d0 <getStatBoton>
 8001ef2:	4603      	mov	r3, r0
 8001ef4:	2b02      	cmp	r3, #2
 8001ef6:	d11d      	bne.n	8001f34 <acc_menuPrincipal+0x8c>

		//si se estaba llenando la pileta, va al menu de llenado.
		//caso contrario, permite entrar a la configuracion de llenado.
		switch (status_menuLlenado){
 8001ef8:	4b2a      	ldr	r3, [pc, #168]	; (8001fa4 <acc_menuPrincipal+0xfc>)
 8001efa:	781b      	ldrb	r3, [r3, #0]
 8001efc:	3b03      	subs	r3, #3
 8001efe:	2b02      	cmp	r3, #2
 8001f00:	d80b      	bhi.n	8001f1a <acc_menuPrincipal+0x72>
			case LLENANDO:
			case LLENANDO_CHECK:
			case PILETA_LLENA:
				menuActual = &menu[MENU_LLENADO];
 8001f02:	4b2a      	ldr	r3, [pc, #168]	; (8001fac <acc_menuPrincipal+0x104>)
 8001f04:	4a2c      	ldr	r2, [pc, #176]	; (8001fb8 <acc_menuPrincipal+0x110>)
 8001f06:	601a      	str	r2, [r3, #0]
				menuActual->menuAnterior = &menu[MENU_PRINCIPAL];
 8001f08:	4b28      	ldr	r3, [pc, #160]	; (8001fac <acc_menuPrincipal+0x104>)
 8001f0a:	681b      	ldr	r3, [r3, #0]
 8001f0c:	4a29      	ldr	r2, [pc, #164]	; (8001fb4 <acc_menuPrincipal+0x10c>)
 8001f0e:	605a      	str	r2, [r3, #4]
				menuActual->inicia_menu();
 8001f10:	4b26      	ldr	r3, [pc, #152]	; (8001fac <acc_menuPrincipal+0x104>)
 8001f12:	681b      	ldr	r3, [r3, #0]
 8001f14:	689b      	ldr	r3, [r3, #8]
 8001f16:	4798      	blx	r3
			break;
 8001f18:	e00b      	b.n	8001f32 <acc_menuPrincipal+0x8a>
			default:
				menuActual = &menu[MENU_SET_LLENADO];
 8001f1a:	4b24      	ldr	r3, [pc, #144]	; (8001fac <acc_menuPrincipal+0x104>)
 8001f1c:	4a27      	ldr	r2, [pc, #156]	; (8001fbc <acc_menuPrincipal+0x114>)
 8001f1e:	601a      	str	r2, [r3, #0]
				menuActual->menuAnterior = &menu[MENU_PRINCIPAL];
 8001f20:	4b22      	ldr	r3, [pc, #136]	; (8001fac <acc_menuPrincipal+0x104>)
 8001f22:	681b      	ldr	r3, [r3, #0]
 8001f24:	4a23      	ldr	r2, [pc, #140]	; (8001fb4 <acc_menuPrincipal+0x10c>)
 8001f26:	605a      	str	r2, [r3, #4]
				menuActual->inicia_menu();
 8001f28:	4b20      	ldr	r3, [pc, #128]	; (8001fac <acc_menuPrincipal+0x104>)
 8001f2a:	681b      	ldr	r3, [r3, #0]
 8001f2c:	689b      	ldr	r3, [r3, #8]
 8001f2e:	4798      	blx	r3
			break;
 8001f30:	bf00      	nop
		} //end switch status_menuLlenado
		return;
 8001f32:	e035      	b.n	8001fa0 <acc_menuPrincipal+0xf8>
	}

	if (getStatBoton(IN_B)==FALL){
 8001f34:	2007      	movs	r0, #7
 8001f36:	f7fe facb 	bl	80004d0 <getStatBoton>
 8001f3a:	4603      	mov	r3, r0
 8001f3c:	2b02      	cmp	r3, #2
 8001f3e:	d10b      	bne.n	8001f58 <acc_menuPrincipal+0xb0>
		menuActual = &menu[MENU_SKIMMER];
 8001f40:	4b1a      	ldr	r3, [pc, #104]	; (8001fac <acc_menuPrincipal+0x104>)
 8001f42:	4a1f      	ldr	r2, [pc, #124]	; (8001fc0 <acc_menuPrincipal+0x118>)
 8001f44:	601a      	str	r2, [r3, #0]
		menuActual->menuAnterior = &menu[MENU_PRINCIPAL];
 8001f46:	4b19      	ldr	r3, [pc, #100]	; (8001fac <acc_menuPrincipal+0x104>)
 8001f48:	681b      	ldr	r3, [r3, #0]
 8001f4a:	4a1a      	ldr	r2, [pc, #104]	; (8001fb4 <acc_menuPrincipal+0x10c>)
 8001f4c:	605a      	str	r2, [r3, #4]
		menuActual->inicia_menu();
 8001f4e:	4b17      	ldr	r3, [pc, #92]	; (8001fac <acc_menuPrincipal+0x104>)
 8001f50:	681b      	ldr	r3, [r3, #0]
 8001f52:	689b      	ldr	r3, [r3, #8]
 8001f54:	4798      	blx	r3
		return;
 8001f56:	e023      	b.n	8001fa0 <acc_menuPrincipal+0xf8>
	}

	if (getStatBoton(IN_C)==FALL){
 8001f58:	200b      	movs	r0, #11
 8001f5a:	f7fe fab9 	bl	80004d0 <getStatBoton>
 8001f5e:	4603      	mov	r3, r0
 8001f60:	2b02      	cmp	r3, #2
 8001f62:	d10b      	bne.n	8001f7c <acc_menuPrincipal+0xd4>
		menuActual = &menu[MENU_HIDRO];
 8001f64:	4b11      	ldr	r3, [pc, #68]	; (8001fac <acc_menuPrincipal+0x104>)
 8001f66:	4a12      	ldr	r2, [pc, #72]	; (8001fb0 <acc_menuPrincipal+0x108>)
 8001f68:	601a      	str	r2, [r3, #0]
		menuActual->menuAnterior = &menu[MENU_PRINCIPAL];
 8001f6a:	4b10      	ldr	r3, [pc, #64]	; (8001fac <acc_menuPrincipal+0x104>)
 8001f6c:	681b      	ldr	r3, [r3, #0]
 8001f6e:	4a11      	ldr	r2, [pc, #68]	; (8001fb4 <acc_menuPrincipal+0x10c>)
 8001f70:	605a      	str	r2, [r3, #4]
		menuActual->inicia_menu();
 8001f72:	4b0e      	ldr	r3, [pc, #56]	; (8001fac <acc_menuPrincipal+0x104>)
 8001f74:	681b      	ldr	r3, [r3, #0]
 8001f76:	689b      	ldr	r3, [r3, #8]
 8001f78:	4798      	blx	r3
		return;
 8001f7a:	e011      	b.n	8001fa0 <acc_menuPrincipal+0xf8>
	}

	if (getStatBoton(IN_D)==FALL){
 8001f7c:	200f      	movs	r0, #15
 8001f7e:	f7fe faa7 	bl	80004d0 <getStatBoton>
 8001f82:	4603      	mov	r3, r0
 8001f84:	2b02      	cmp	r3, #2
 8001f86:	d10b      	bne.n	8001fa0 <acc_menuPrincipal+0xf8>
		menuActual = &menu[MENU_LUCES_EXT];
 8001f88:	4b08      	ldr	r3, [pc, #32]	; (8001fac <acc_menuPrincipal+0x104>)
 8001f8a:	4a0e      	ldr	r2, [pc, #56]	; (8001fc4 <acc_menuPrincipal+0x11c>)
 8001f8c:	601a      	str	r2, [r3, #0]
		menuActual->menuAnterior = &menu[MENU_PRINCIPAL];
 8001f8e:	4b07      	ldr	r3, [pc, #28]	; (8001fac <acc_menuPrincipal+0x104>)
 8001f90:	681b      	ldr	r3, [r3, #0]
 8001f92:	4a08      	ldr	r2, [pc, #32]	; (8001fb4 <acc_menuPrincipal+0x10c>)
 8001f94:	605a      	str	r2, [r3, #4]
		menuActual->inicia_menu();
 8001f96:	4b05      	ldr	r3, [pc, #20]	; (8001fac <acc_menuPrincipal+0x104>)
 8001f98:	681b      	ldr	r3, [r3, #0]
 8001f9a:	689b      	ldr	r3, [r3, #8]
 8001f9c:	4798      	blx	r3
		return;
 8001f9e:	bf00      	nop
	}

} //end acc_menuPrincipal()
 8001fa0:	bd80      	pop	{r7, pc}
 8001fa2:	bf00      	nop
 8001fa4:	20000140 	.word	0x20000140
 8001fa8:	20000142 	.word	0x20000142
 8001fac:	20000610 	.word	0x20000610
 8001fb0:	20000048 	.word	0x20000048
 8001fb4:	20000008 	.word	0x20000008
 8001fb8:	20000018 	.word	0x20000018
 8001fbc:	20000028 	.word	0x20000028
 8001fc0:	20000038 	.word	0x20000038
 8001fc4:	20000058 	.word	0x20000058

08001fc8 <acc_setLlenado>:


void acc_setLlenado (void){
 8001fc8:	b580      	push	{r7, lr}
 8001fca:	af00      	add	r7, sp, #0

	switch (status_menuLlenado) {
 8001fcc:	4b2c      	ldr	r3, [pc, #176]	; (8002080 <acc_setLlenado+0xb8>)
 8001fce:	781b      	ldrb	r3, [r3, #0]
 8001fd0:	2b07      	cmp	r3, #7
 8001fd2:	d02c      	beq.n	800202e <acc_setLlenado+0x66>
 8001fd4:	2b08      	cmp	r3, #8
 8001fd6:	d03d      	beq.n	8002054 <acc_setLlenado+0x8c>
 8001fd8:	2b06      	cmp	r3, #6
 8001fda:	d000      	beq.n	8001fde <acc_setLlenado+0x16>
				default:
				break;
			} //end switch aux_progOutput
		break;
		default:
		break;
 8001fdc:	e04e      	b.n	800207c <acc_setLlenado+0xb4>
			if (getStatBoton(IN_1) == FALL) {
 8001fde:	2000      	movs	r0, #0
 8001fe0:	f7fe fa76 	bl	80004d0 <getStatBoton>
 8001fe4:	4603      	mov	r3, r0
 8001fe6:	2b02      	cmp	r3, #2
 8001fe8:	d106      	bne.n	8001ff8 <acc_setLlenado+0x30>
				set_pantalla(PANT_PERIODO_ON_LLENADO);
 8001fea:	2007      	movs	r0, #7
 8001fec:	f7fe fdcc 	bl	8000b88 <set_pantalla>
				status_menuLlenado = PERIODO_ON_LLENADO;
 8001ff0:	4b23      	ldr	r3, [pc, #140]	; (8002080 <acc_setLlenado+0xb8>)
 8001ff2:	2207      	movs	r2, #7
 8001ff4:	701a      	strb	r2, [r3, #0]
				break;
 8001ff6:	e041      	b.n	800207c <acc_setLlenado+0xb4>
			if (getStatBoton(IN_2) == FALL) {
 8001ff8:	2001      	movs	r0, #1
 8001ffa:	f7fe fa69 	bl	80004d0 <getStatBoton>
 8001ffe:	4603      	mov	r3, r0
 8002000:	2b02      	cmp	r3, #2
 8002002:	d106      	bne.n	8002012 <acc_setLlenado+0x4a>
				set_pantalla(PANT_PERIODO_OFF_LLENADO);
 8002004:	2008      	movs	r0, #8
 8002006:	f7fe fdbf 	bl	8000b88 <set_pantalla>
				status_menuLlenado = PERIODO_OFF_LLENADO;
 800200a:	4b1d      	ldr	r3, [pc, #116]	; (8002080 <acc_setLlenado+0xb8>)
 800200c:	2208      	movs	r2, #8
 800200e:	701a      	strb	r2, [r3, #0]
				break;
 8002010:	e034      	b.n	800207c <acc_setLlenado+0xb4>
			if (getStatBoton(IN_AST) == FALL) {
 8002012:	200c      	movs	r0, #12
 8002014:	f7fe fa5c 	bl	80004d0 <getStatBoton>
 8002018:	4603      	mov	r3, r0
 800201a:	2b02      	cmp	r3, #2
 800201c:	d12d      	bne.n	800207a <acc_setLlenado+0xb2>
				menuActual = &menu[MENU_PRINCIPAL];
 800201e:	4b19      	ldr	r3, [pc, #100]	; (8002084 <acc_setLlenado+0xbc>)
 8002020:	4a19      	ldr	r2, [pc, #100]	; (8002088 <acc_setLlenado+0xc0>)
 8002022:	601a      	str	r2, [r3, #0]
				menuActual->inicia_menu();
 8002024:	4b17      	ldr	r3, [pc, #92]	; (8002084 <acc_setLlenado+0xbc>)
 8002026:	681b      	ldr	r3, [r3, #0]
 8002028:	689b      	ldr	r3, [r3, #8]
 800202a:	4798      	blx	r3
		break;
 800202c:	e025      	b.n	800207a <acc_setLlenado+0xb2>
			aux_progOutput = setProg_llenado(PROG_SET1);
 800202e:	2004      	movs	r0, #4
 8002030:	f7ff f83e 	bl	80010b0 <setProg_llenado>
 8002034:	4603      	mov	r3, r0
 8002036:	461a      	mov	r2, r3
 8002038:	4b14      	ldr	r3, [pc, #80]	; (800208c <acc_setLlenado+0xc4>)
 800203a:	701a      	strb	r2, [r3, #0]
			switch (aux_progOutput) {
 800203c:	4b13      	ldr	r3, [pc, #76]	; (800208c <acc_setLlenado+0xc4>)
 800203e:	781b      	ldrb	r3, [r3, #0]
 8002040:	2b01      	cmp	r3, #1
 8002042:	d002      	beq.n	800204a <acc_setLlenado+0x82>
 8002044:	2b03      	cmp	r3, #3
 8002046:	d000      	beq.n	800204a <acc_setLlenado+0x82>
				break;
 8002048:	e003      	b.n	8002052 <acc_setLlenado+0x8a>
					status_menuLlenado = ELIJE_ON_OFF_LLENADO;
 800204a:	4b0d      	ldr	r3, [pc, #52]	; (8002080 <acc_setLlenado+0xb8>)
 800204c:	2206      	movs	r2, #6
 800204e:	701a      	strb	r2, [r3, #0]
				break;
 8002050:	bf00      	nop
		break;
 8002052:	e013      	b.n	800207c <acc_setLlenado+0xb4>
			aux_progOutput = setProg_llenado(PROG_SET2);
 8002054:	2005      	movs	r0, #5
 8002056:	f7ff f82b 	bl	80010b0 <setProg_llenado>
 800205a:	4603      	mov	r3, r0
 800205c:	461a      	mov	r2, r3
 800205e:	4b0b      	ldr	r3, [pc, #44]	; (800208c <acc_setLlenado+0xc4>)
 8002060:	701a      	strb	r2, [r3, #0]
			switch (aux_progOutput) {
 8002062:	4b0a      	ldr	r3, [pc, #40]	; (800208c <acc_setLlenado+0xc4>)
 8002064:	781b      	ldrb	r3, [r3, #0]
 8002066:	2b01      	cmp	r3, #1
 8002068:	d002      	beq.n	8002070 <acc_setLlenado+0xa8>
 800206a:	2b03      	cmp	r3, #3
 800206c:	d000      	beq.n	8002070 <acc_setLlenado+0xa8>
				break;
 800206e:	e003      	b.n	8002078 <acc_setLlenado+0xb0>
					status_menuLlenado = ELIJE_ON_OFF_LLENADO;
 8002070:	4b03      	ldr	r3, [pc, #12]	; (8002080 <acc_setLlenado+0xb8>)
 8002072:	2206      	movs	r2, #6
 8002074:	701a      	strb	r2, [r3, #0]
				break;
 8002076:	bf00      	nop
		break;
 8002078:	e000      	b.n	800207c <acc_setLlenado+0xb4>
		break;
 800207a:	bf00      	nop
	} //end switch status_menuLlenado

} //end acc_setLlenado ()
 800207c:	bf00      	nop
 800207e:	bd80      	pop	{r7, pc}
 8002080:	20000140 	.word	0x20000140
 8002084:	20000610 	.word	0x20000610
 8002088:	20000008 	.word	0x20000008
 800208c:	20000618 	.word	0x20000618

08002090 <acc_llenado>:


void acc_llenado (void){
 8002090:	b580      	push	{r7, lr}
 8002092:	af00      	add	r7, sp, #0

	switch (status_menuLlenado) {
 8002094:	4b79      	ldr	r3, [pc, #484]	; (800227c <acc_llenado+0x1ec>)
 8002096:	781b      	ldrb	r3, [r3, #0]
 8002098:	2b05      	cmp	r3, #5
 800209a:	f200 80e2 	bhi.w	8002262 <acc_llenado+0x1d2>
 800209e:	a201      	add	r2, pc, #4	; (adr r2, 80020a4 <acc_llenado+0x14>)
 80020a0:	f852 f023 	ldr.w	pc, [r2, r3, lsl #2]
 80020a4:	080020bd 	.word	0x080020bd
 80020a8:	080020f3 	.word	0x080020f3
 80020ac:	08002133 	.word	0x08002133
 80020b0:	0800216f 	.word	0x0800216f
 80020b4:	080021cd 	.word	0x080021cd
 80020b8:	0800222b 	.word	0x0800222b
		case PREGUNTA_SENSOR:

			if (getStatBoton(IN_HASH) == FALL) { //CONFIRMO
 80020bc:	200e      	movs	r0, #14
 80020be:	f7fe fa07 	bl	80004d0 <getStatBoton>
 80020c2:	4603      	mov	r3, r0
 80020c4:	2b02      	cmp	r3, #2
 80020c6:	d106      	bne.n	80020d6 <acc_llenado+0x46>
				set_pantalla(PANT_COMPRUEBE_SENSOR);
 80020c8:	2009      	movs	r0, #9
 80020ca:	f7fe fd5d 	bl	8000b88 <set_pantalla>
				status_menuLlenado = COMPRUEBE_SENSOR;
 80020ce:	4b6b      	ldr	r3, [pc, #428]	; (800227c <acc_llenado+0x1ec>)
 80020d0:	2202      	movs	r2, #2
 80020d2:	701a      	strb	r2, [r3, #0]
				break;
 80020d4:	e0d0      	b.n	8002278 <acc_llenado+0x1e8>
			}

			if (getStatBoton(IN_AST) == FALL) { //niego
 80020d6:	200c      	movs	r0, #12
 80020d8:	f7fe f9fa 	bl	80004d0 <getStatBoton>
 80020dc:	4603      	mov	r3, r0
 80020de:	2b02      	cmp	r3, #2
 80020e0:	f040 80c1 	bne.w	8002266 <acc_llenado+0x1d6>
				set_pantalla(PANT_CONECTE_SENSOR);
 80020e4:	200a      	movs	r0, #10
 80020e6:	f7fe fd4f 	bl	8000b88 <set_pantalla>
				status_menuLlenado = CONECTE_SENSOR;
 80020ea:	4b64      	ldr	r3, [pc, #400]	; (800227c <acc_llenado+0x1ec>)
 80020ec:	2201      	movs	r2, #1
 80020ee:	701a      	strb	r2, [r3, #0]
				break;
 80020f0:	e0c2      	b.n	8002278 <acc_llenado+0x1e8>
			}

		break;
		case CONECTE_SENSOR:

			if (getStatBoton(IN_AST) == FALL) { //volver
 80020f2:	200c      	movs	r0, #12
 80020f4:	f7fe f9ec 	bl	80004d0 <getStatBoton>
 80020f8:	4603      	mov	r3, r0
 80020fa:	2b02      	cmp	r3, #2
 80020fc:	d10b      	bne.n	8002116 <acc_llenado+0x86>
				//vuelve al menu principal
				set_led(OUT_led_napa, APAGADO);
 80020fe:	2100      	movs	r1, #0
 8002100:	2001      	movs	r0, #1
 8002102:	f7ff fc81 	bl	8001a08 <set_led>
				menuActual = &menu[MENU_PRINCIPAL];
 8002106:	4b5e      	ldr	r3, [pc, #376]	; (8002280 <acc_llenado+0x1f0>)
 8002108:	4a5e      	ldr	r2, [pc, #376]	; (8002284 <acc_llenado+0x1f4>)
 800210a:	601a      	str	r2, [r3, #0]
				menuActual->inicia_menu();
 800210c:	4b5c      	ldr	r3, [pc, #368]	; (8002280 <acc_llenado+0x1f0>)
 800210e:	681b      	ldr	r3, [r3, #0]
 8002110:	689b      	ldr	r3, [r3, #8]
 8002112:	4798      	blx	r3
				break;
 8002114:	e0b0      	b.n	8002278 <acc_llenado+0x1e8>
			}

			if (getStatBoton(IN_HASH) == FALL) { //CONFIRMO
 8002116:	200e      	movs	r0, #14
 8002118:	f7fe f9da 	bl	80004d0 <getStatBoton>
 800211c:	4603      	mov	r3, r0
 800211e:	2b02      	cmp	r3, #2
 8002120:	f040 80a3 	bne.w	800226a <acc_llenado+0x1da>
				set_pantalla(PANT_PREGUNTA_SENSOR);
 8002124:	200b      	movs	r0, #11
 8002126:	f7fe fd2f 	bl	8000b88 <set_pantalla>
				status_menuLlenado = PREGUNTA_SENSOR;
 800212a:	4b54      	ldr	r3, [pc, #336]	; (800227c <acc_llenado+0x1ec>)
 800212c:	2200      	movs	r2, #0
 800212e:	701a      	strb	r2, [r3, #0]
				break;
 8002130:	e0a2      	b.n	8002278 <acc_llenado+0x1e8>
			}
		break;
		case COMPRUEBE_SENSOR:

			if (getStatBoton(IN_HASH) == FALL) { //CONFIRMO
 8002132:	200e      	movs	r0, #14
 8002134:	f7fe f9cc 	bl	80004d0 <getStatBoton>
 8002138:	4603      	mov	r3, r0
 800213a:	2b02      	cmp	r3, #2
 800213c:	d109      	bne.n	8002152 <acc_llenado+0xc2>
				set_pantalla(PANT_LLENANDO);
 800213e:	200c      	movs	r0, #12
 8002140:	f7fe fd22 	bl	8000b88 <set_pantalla>
				runProg_llenado(PROG_RUN);
 8002144:	2002      	movs	r0, #2
 8002146:	f7ff f9e5 	bl	8001514 <runProg_llenado>
				status_menuLlenado = LLENANDO;
 800214a:	4b4c      	ldr	r3, [pc, #304]	; (800227c <acc_llenado+0x1ec>)
 800214c:	2203      	movs	r2, #3
 800214e:	701a      	strb	r2, [r3, #0]
				break;
 8002150:	e092      	b.n	8002278 <acc_llenado+0x1e8>
			}

			if (getStatBoton(IN_AST) == FALL) { //volver
 8002152:	200c      	movs	r0, #12
 8002154:	f7fe f9bc 	bl	80004d0 <getStatBoton>
 8002158:	4603      	mov	r3, r0
 800215a:	2b02      	cmp	r3, #2
 800215c:	f040 8087 	bne.w	800226e <acc_llenado+0x1de>
				set_pantalla(PANT_PREGUNTA_SENSOR);
 8002160:	200b      	movs	r0, #11
 8002162:	f7fe fd11 	bl	8000b88 <set_pantalla>
				status_menuLlenado = PREGUNTA_SENSOR;
 8002166:	4b45      	ldr	r3, [pc, #276]	; (800227c <acc_llenado+0x1ec>)
 8002168:	2200      	movs	r2, #0
 800216a:	701a      	strb	r2, [r3, #0]
				break;
 800216c:	e084      	b.n	8002278 <acc_llenado+0x1e8>
			}

		break;
		case LLENANDO:
			if (runProg_llenado(PROG_CHECK) == PROG_FINISHED ) { //LOGICA NEGATIVA
 800216e:	2001      	movs	r0, #1
 8002170:	f7ff f9d0 	bl	8001514 <runProg_llenado>
 8002174:	4603      	mov	r3, r0
 8002176:	2b03      	cmp	r3, #3
 8002178:	d106      	bne.n	8002188 <acc_llenado+0xf8>
				set_pantalla(PANT_PILETA_LLENA);
 800217a:	200d      	movs	r0, #13
 800217c:	f7fe fd04 	bl	8000b88 <set_pantalla>
				status_menuLlenado = PILETA_LLENA;
 8002180:	4b3e      	ldr	r3, [pc, #248]	; (800227c <acc_llenado+0x1ec>)
 8002182:	2205      	movs	r2, #5
 8002184:	701a      	strb	r2, [r3, #0]
				break;
 8002186:	e077      	b.n	8002278 <acc_llenado+0x1e8>
			}

			if (getStatBoton(IN_HASH) == FALL) { //CONFIRMO
 8002188:	200e      	movs	r0, #14
 800218a:	f7fe f9a1 	bl	80004d0 <getStatBoton>
 800218e:	4603      	mov	r3, r0
 8002190:	2b02      	cmp	r3, #2
 8002192:	d10a      	bne.n	80021aa <acc_llenado+0x11a>
				//vuelve al menu principal
				status_menuLlenado = LLENANDO_CHECK;
 8002194:	4b39      	ldr	r3, [pc, #228]	; (800227c <acc_llenado+0x1ec>)
 8002196:	2204      	movs	r2, #4
 8002198:	701a      	strb	r2, [r3, #0]
				menuActual = &menu[MENU_PRINCIPAL];
 800219a:	4b39      	ldr	r3, [pc, #228]	; (8002280 <acc_llenado+0x1f0>)
 800219c:	4a39      	ldr	r2, [pc, #228]	; (8002284 <acc_llenado+0x1f4>)
 800219e:	601a      	str	r2, [r3, #0]
				menuActual->inicia_menu();
 80021a0:	4b37      	ldr	r3, [pc, #220]	; (8002280 <acc_llenado+0x1f0>)
 80021a2:	681b      	ldr	r3, [r3, #0]
 80021a4:	689b      	ldr	r3, [r3, #8]
 80021a6:	4798      	blx	r3
				break;
 80021a8:	e066      	b.n	8002278 <acc_llenado+0x1e8>
			}

			if (getStatBoton(IN_AST) == FALL) { //volver
 80021aa:	200c      	movs	r0, #12
 80021ac:	f7fe f990 	bl	80004d0 <getStatBoton>
 80021b0:	4603      	mov	r3, r0
 80021b2:	2b02      	cmp	r3, #2
 80021b4:	d15d      	bne.n	8002272 <acc_llenado+0x1e2>
				//vuelve al menu principal
				status_menuLlenado = LLENANDO_CHECK;
 80021b6:	4b31      	ldr	r3, [pc, #196]	; (800227c <acc_llenado+0x1ec>)
 80021b8:	2204      	movs	r2, #4
 80021ba:	701a      	strb	r2, [r3, #0]
				menuActual = &menu[MENU_PRINCIPAL];
 80021bc:	4b30      	ldr	r3, [pc, #192]	; (8002280 <acc_llenado+0x1f0>)
 80021be:	4a31      	ldr	r2, [pc, #196]	; (8002284 <acc_llenado+0x1f4>)
 80021c0:	601a      	str	r2, [r3, #0]
				menuActual->inicia_menu();
 80021c2:	4b2f      	ldr	r3, [pc, #188]	; (8002280 <acc_llenado+0x1f0>)
 80021c4:	681b      	ldr	r3, [r3, #0]
 80021c6:	689b      	ldr	r3, [r3, #8]
 80021c8:	4798      	blx	r3
				break;
 80021ca:	e055      	b.n	8002278 <acc_llenado+0x1e8>
			}
		break;
		case LLENANDO_CHECK:
			if (runProg_llenado(PROG_CHECK) == PROG_FINISHED ) { //LOGICA NEGATIVA
 80021cc:	2001      	movs	r0, #1
 80021ce:	f7ff f9a1 	bl	8001514 <runProg_llenado>
 80021d2:	4603      	mov	r3, r0
 80021d4:	2b03      	cmp	r3, #3
 80021d6:	d106      	bne.n	80021e6 <acc_llenado+0x156>
				set_pantalla(PANT_PILETA_LLENA);
 80021d8:	200d      	movs	r0, #13
 80021da:	f7fe fcd5 	bl	8000b88 <set_pantalla>
				status_menuLlenado = PILETA_LLENA;
 80021de:	4b27      	ldr	r3, [pc, #156]	; (800227c <acc_llenado+0x1ec>)
 80021e0:	2205      	movs	r2, #5
 80021e2:	701a      	strb	r2, [r3, #0]
				break;
 80021e4:	e048      	b.n	8002278 <acc_llenado+0x1e8>
			}

			if (getStatBoton(IN_HASH) == FALL) { //CONFIRMO
 80021e6:	200e      	movs	r0, #14
 80021e8:	f7fe f972 	bl	80004d0 <getStatBoton>
 80021ec:	4603      	mov	r3, r0
 80021ee:	2b02      	cmp	r3, #2
 80021f0:	d10d      	bne.n	800220e <acc_llenado+0x17e>
				status_menuLlenado = PREGUNTA_SENSOR;
 80021f2:	4b22      	ldr	r3, [pc, #136]	; (800227c <acc_llenado+0x1ec>)
 80021f4:	2200      	movs	r2, #0
 80021f6:	701a      	strb	r2, [r3, #0]
				runProg_llenado(PROG_STOP);
 80021f8:	2003      	movs	r0, #3
 80021fa:	f7ff f98b 	bl	8001514 <runProg_llenado>
				//vuelve al menu principal
				menuActual = &menu[MENU_PRINCIPAL];
 80021fe:	4b20      	ldr	r3, [pc, #128]	; (8002280 <acc_llenado+0x1f0>)
 8002200:	4a20      	ldr	r2, [pc, #128]	; (8002284 <acc_llenado+0x1f4>)
 8002202:	601a      	str	r2, [r3, #0]
				menuActual->inicia_menu();
 8002204:	4b1e      	ldr	r3, [pc, #120]	; (8002280 <acc_llenado+0x1f0>)
 8002206:	681b      	ldr	r3, [r3, #0]
 8002208:	689b      	ldr	r3, [r3, #8]
 800220a:	4798      	blx	r3
				break;
 800220c:	e034      	b.n	8002278 <acc_llenado+0x1e8>
			}

			if (getStatBoton(IN_AST) == FALL) { //volver
 800220e:	200c      	movs	r0, #12
 8002210:	f7fe f95e 	bl	80004d0 <getStatBoton>
 8002214:	4603      	mov	r3, r0
 8002216:	2b02      	cmp	r3, #2
 8002218:	d12d      	bne.n	8002276 <acc_llenado+0x1e6>
				//vuelve al menu principal
				menuActual = &menu[MENU_PRINCIPAL];
 800221a:	4b19      	ldr	r3, [pc, #100]	; (8002280 <acc_llenado+0x1f0>)
 800221c:	4a19      	ldr	r2, [pc, #100]	; (8002284 <acc_llenado+0x1f4>)
 800221e:	601a      	str	r2, [r3, #0]
				menuActual->inicia_menu();
 8002220:	4b17      	ldr	r3, [pc, #92]	; (8002280 <acc_llenado+0x1f0>)
 8002222:	681b      	ldr	r3, [r3, #0]
 8002224:	689b      	ldr	r3, [r3, #8]
 8002226:	4798      	blx	r3
				break;
 8002228:	e026      	b.n	8002278 <acc_llenado+0x1e8>
			}
		break;
		case PILETA_LLENA:
			if (getStatBoton(IN_HASH) == FALL) { //CONFIRMO
 800222a:	200e      	movs	r0, #14
 800222c:	f7fe f950 	bl	80004d0 <getStatBoton>
 8002230:	4603      	mov	r3, r0
 8002232:	2b02      	cmp	r3, #2
 8002234:	d107      	bne.n	8002246 <acc_llenado+0x1b6>
				//vuelve al menu principal
				menuActual = &menu[MENU_PRINCIPAL];
 8002236:	4b12      	ldr	r3, [pc, #72]	; (8002280 <acc_llenado+0x1f0>)
 8002238:	4a12      	ldr	r2, [pc, #72]	; (8002284 <acc_llenado+0x1f4>)
 800223a:	601a      	str	r2, [r3, #0]
				menuActual->inicia_menu();
 800223c:	4b10      	ldr	r3, [pc, #64]	; (8002280 <acc_llenado+0x1f0>)
 800223e:	681b      	ldr	r3, [r3, #0]
 8002240:	689b      	ldr	r3, [r3, #8]
 8002242:	4798      	blx	r3
				break;
 8002244:	e018      	b.n	8002278 <acc_llenado+0x1e8>
			}

			if (getStatBoton(IN_AST) == FALL) { //volver
 8002246:	200c      	movs	r0, #12
 8002248:	f7fe f942 	bl	80004d0 <getStatBoton>
 800224c:	4603      	mov	r3, r0
 800224e:	2b02      	cmp	r3, #2
 8002250:	d107      	bne.n	8002262 <acc_llenado+0x1d2>
				//vuelve al menu principal
				menuActual = &menu[MENU_PRINCIPAL];
 8002252:	4b0b      	ldr	r3, [pc, #44]	; (8002280 <acc_llenado+0x1f0>)
 8002254:	4a0b      	ldr	r2, [pc, #44]	; (8002284 <acc_llenado+0x1f4>)
 8002256:	601a      	str	r2, [r3, #0]
				menuActual->inicia_menu();
 8002258:	4b09      	ldr	r3, [pc, #36]	; (8002280 <acc_llenado+0x1f0>)
 800225a:	681b      	ldr	r3, [r3, #0]
 800225c:	689b      	ldr	r3, [r3, #8]
 800225e:	4798      	blx	r3
				break;
 8002260:	e00a      	b.n	8002278 <acc_llenado+0x1e8>
			}

		default:
		break;
 8002262:	bf00      	nop
 8002264:	e008      	b.n	8002278 <acc_llenado+0x1e8>
		break;
 8002266:	bf00      	nop
 8002268:	e006      	b.n	8002278 <acc_llenado+0x1e8>
		break;
 800226a:	bf00      	nop
 800226c:	e004      	b.n	8002278 <acc_llenado+0x1e8>
		break;
 800226e:	bf00      	nop
 8002270:	e002      	b.n	8002278 <acc_llenado+0x1e8>
		break;
 8002272:	bf00      	nop
 8002274:	e000      	b.n	8002278 <acc_llenado+0x1e8>
		break;
 8002276:	bf00      	nop
	} //end switch status_menuLlenado

} //end acc_llenado ()
 8002278:	bf00      	nop
 800227a:	bd80      	pop	{r7, pc}
 800227c:	20000140 	.word	0x20000140
 8002280:	20000610 	.word	0x20000610
 8002284:	20000008 	.word	0x20000008

08002288 <acc_skimmer>:


void acc_skimmer (void){
 8002288:	b580      	push	{r7, lr}
 800228a:	af00      	add	r7, sp, #0
	switch (status_menuSkimmer) {
 800228c:	4b69      	ldr	r3, [pc, #420]	; (8002434 <acc_skimmer+0x1ac>)
 800228e:	781b      	ldrb	r3, [r3, #0]
 8002290:	2b08      	cmp	r3, #8
 8002292:	f200 80cd 	bhi.w	8002430 <acc_skimmer+0x1a8>
 8002296:	a201      	add	r2, pc, #4	; (adr r2, 800229c <acc_skimmer+0x14>)
 8002298:	f852 f023 	ldr.w	pc, [r2, r3, lsl #2]
 800229c:	080022c1 	.word	0x080022c1
 80022a0:	080022f7 	.word	0x080022f7
 80022a4:	08002331 	.word	0x08002331
 80022a8:	0800241b 	.word	0x0800241b
 80022ac:	0800241b 	.word	0x0800241b
 80022b0:	0800237f 	.word	0x0800237f
 80022b4:	080023cd 	.word	0x080023cd
 80022b8:	0800241b 	.word	0x0800241b
 80022bc:	0800241b 	.word	0x0800241b
		case COMPRUEBE_BOMBA:
			if (getStatBoton(IN_AST) == FALL) {
 80022c0:	200c      	movs	r0, #12
 80022c2:	f7fe f905 	bl	80004d0 <getStatBoton>
 80022c6:	4603      	mov	r3, r0
 80022c8:	2b02      	cmp	r3, #2
 80022ca:	d106      	bne.n	80022da <acc_skimmer+0x52>
				//vuelve al menu principal
				menuActual = &menu[MENU_PRINCIPAL];
 80022cc:	4b5a      	ldr	r3, [pc, #360]	; (8002438 <acc_skimmer+0x1b0>)
 80022ce:	4a5b      	ldr	r2, [pc, #364]	; (800243c <acc_skimmer+0x1b4>)
 80022d0:	601a      	str	r2, [r3, #0]
				menuActual->inicia_menu();
 80022d2:	4b59      	ldr	r3, [pc, #356]	; (8002438 <acc_skimmer+0x1b0>)
 80022d4:	681b      	ldr	r3, [r3, #0]
 80022d6:	689b      	ldr	r3, [r3, #8]
 80022d8:	4798      	blx	r3
			}

			if (getStatBoton(IN_HASH) == FALL) {
 80022da:	200e      	movs	r0, #14
 80022dc:	f7fe f8f8 	bl	80004d0 <getStatBoton>
 80022e0:	4603      	mov	r3, r0
 80022e2:	2b02      	cmp	r3, #2
 80022e4:	f040 809b 	bne.w	800241e <acc_skimmer+0x196>
				set_pantalla(PANT_OPCIONES_SKIMMER);
 80022e8:	200e      	movs	r0, #14
 80022ea:	f7fe fc4d 	bl	8000b88 <set_pantalla>
				status_menuSkimmer = OPCIONES_SKIMMER;
 80022ee:	4b51      	ldr	r3, [pc, #324]	; (8002434 <acc_skimmer+0x1ac>)
 80022f0:	2201      	movs	r2, #1
 80022f2:	701a      	strb	r2, [r3, #0]
				break;
 80022f4:	e09c      	b.n	8002430 <acc_skimmer+0x1a8>
			}
		break;
		case OPCIONES_SKIMMER:
			if (getStatBoton(IN_AST) == FALL) {
 80022f6:	200c      	movs	r0, #12
 80022f8:	f7fe f8ea 	bl	80004d0 <getStatBoton>
				//vuelve al menu principal
			}

			if (getStatBoton(IN_1) == FALL) {
 80022fc:	2000      	movs	r0, #0
 80022fe:	f7fe f8e7 	bl	80004d0 <getStatBoton>
 8002302:	4603      	mov	r3, r0
 8002304:	2b02      	cmp	r3, #2
 8002306:	d106      	bne.n	8002316 <acc_skimmer+0x8e>
				set_pantalla(PANT_ELIJE_FRECUENCIA_SKIMMER);
 8002308:	200f      	movs	r0, #15
 800230a:	f7fe fc3d 	bl	8000b88 <set_pantalla>
				status_menuSkimmer = ELIJE_FRECUENCIA_SKIMMER;
 800230e:	4b49      	ldr	r3, [pc, #292]	; (8002434 <acc_skimmer+0x1ac>)
 8002310:	2202      	movs	r2, #2
 8002312:	701a      	strb	r2, [r3, #0]
				break;
 8002314:	e08c      	b.n	8002430 <acc_skimmer+0x1a8>
			}

			if (getStatBoton(IN_2) == FALL) {
 8002316:	2001      	movs	r0, #1
 8002318:	f7fe f8da 	bl	80004d0 <getStatBoton>
 800231c:	4603      	mov	r3, r0
 800231e:	2b02      	cmp	r3, #2
 8002320:	d17f      	bne.n	8002422 <acc_skimmer+0x19a>
				set_pantalla(PANT_ELIJE_PROGRAMA_SKIMMER);
 8002322:	2010      	movs	r0, #16
 8002324:	f7fe fc30 	bl	8000b88 <set_pantalla>
				status_menuSkimmer = ELIJE_PROGRAMA_SKIMMER;
 8002328:	4b42      	ldr	r3, [pc, #264]	; (8002434 <acc_skimmer+0x1ac>)
 800232a:	2205      	movs	r2, #5
 800232c:	701a      	strb	r2, [r3, #0]
				break;
 800232e:	e07f      	b.n	8002430 <acc_skimmer+0x1a8>
			}
		break;
		case ELIJE_FRECUENCIA_SKIMMER:
			if (getStatBoton(IN_1) == FALL) {
 8002330:	2000      	movs	r0, #0
 8002332:	f7fe f8cd 	bl	80004d0 <getStatBoton>
 8002336:	4603      	mov	r3, r0
 8002338:	2b02      	cmp	r3, #2
 800233a:	d106      	bne.n	800234a <acc_skimmer+0xc2>
				set_pantalla(PANT_PERIODO_ON_SKIMMER);
 800233c:	2011      	movs	r0, #17
 800233e:	f7fe fc23 	bl	8000b88 <set_pantalla>
				status_menuSkimmer = PERIODO_ON_SKIMMER;
 8002342:	4b3c      	ldr	r3, [pc, #240]	; (8002434 <acc_skimmer+0x1ac>)
 8002344:	2203      	movs	r2, #3
 8002346:	701a      	strb	r2, [r3, #0]
				break;
 8002348:	e072      	b.n	8002430 <acc_skimmer+0x1a8>
			}

			if (getStatBoton(IN_2) == FALL) {
 800234a:	2001      	movs	r0, #1
 800234c:	f7fe f8c0 	bl	80004d0 <getStatBoton>
 8002350:	4603      	mov	r3, r0
 8002352:	2b02      	cmp	r3, #2
 8002354:	d106      	bne.n	8002364 <acc_skimmer+0xdc>
				set_pantalla(PANT_PERIODO_OFF_SKIMMER);
 8002356:	2012      	movs	r0, #18
 8002358:	f7fe fc16 	bl	8000b88 <set_pantalla>
				status_menuSkimmer = PERIODO_OFF_SKIMMER;
 800235c:	4b35      	ldr	r3, [pc, #212]	; (8002434 <acc_skimmer+0x1ac>)
 800235e:	2204      	movs	r2, #4
 8002360:	701a      	strb	r2, [r3, #0]
				break;
 8002362:	e065      	b.n	8002430 <acc_skimmer+0x1a8>
			}

			if (getStatBoton(IN_AST) == FALL) {
 8002364:	200c      	movs	r0, #12
 8002366:	f7fe f8b3 	bl	80004d0 <getStatBoton>
 800236a:	4603      	mov	r3, r0
 800236c:	2b02      	cmp	r3, #2
 800236e:	d15a      	bne.n	8002426 <acc_skimmer+0x19e>
				set_pantalla(PANT_OPCIONES_SKIMMER);
 8002370:	200e      	movs	r0, #14
 8002372:	f7fe fc09 	bl	8000b88 <set_pantalla>
				status_menuSkimmer = OPCIONES_SKIMMER;
 8002376:	4b2f      	ldr	r3, [pc, #188]	; (8002434 <acc_skimmer+0x1ac>)
 8002378:	2201      	movs	r2, #1
 800237a:	701a      	strb	r2, [r3, #0]
				break;
 800237c:	e058      	b.n	8002430 <acc_skimmer+0x1a8>
		break;
		case PERIODO_OFF_SKIMMER:
			//funcion de seteo de periodo off
		break;
		case ELIJE_PROGRAMA_SKIMMER:
			if (getStatBoton(IN_1) == FALL) {
 800237e:	2000      	movs	r0, #0
 8002380:	f7fe f8a6 	bl	80004d0 <getStatBoton>
 8002384:	4603      	mov	r3, r0
 8002386:	2b02      	cmp	r3, #2
 8002388:	d106      	bne.n	8002398 <acc_skimmer+0x110>
				//levanta el flag de modificar el programa 1
				set_pantalla(PANT_ELIJE_ON_OFF_HORARIO_SKIMMER);
 800238a:	2013      	movs	r0, #19
 800238c:	f7fe fbfc 	bl	8000b88 <set_pantalla>
				status_menuSkimmer = ELIJE_ON_OFF_HORARIO_SKIMMER;
 8002390:	4b28      	ldr	r3, [pc, #160]	; (8002434 <acc_skimmer+0x1ac>)
 8002392:	2206      	movs	r2, #6
 8002394:	701a      	strb	r2, [r3, #0]
				break;
 8002396:	e04b      	b.n	8002430 <acc_skimmer+0x1a8>
			}

			if (getStatBoton(IN_2) == FALL) {
 8002398:	2001      	movs	r0, #1
 800239a:	f7fe f899 	bl	80004d0 <getStatBoton>
 800239e:	4603      	mov	r3, r0
 80023a0:	2b02      	cmp	r3, #2
 80023a2:	d106      	bne.n	80023b2 <acc_skimmer+0x12a>
				//levanta el flag de modificar el programa 2
				set_pantalla(PANT_ELIJE_ON_OFF_HORARIO_SKIMMER);
 80023a4:	2013      	movs	r0, #19
 80023a6:	f7fe fbef 	bl	8000b88 <set_pantalla>
				status_menuSkimmer = ELIJE_ON_OFF_HORARIO_SKIMMER;
 80023aa:	4b22      	ldr	r3, [pc, #136]	; (8002434 <acc_skimmer+0x1ac>)
 80023ac:	2206      	movs	r2, #6
 80023ae:	701a      	strb	r2, [r3, #0]
				break;
 80023b0:	e03e      	b.n	8002430 <acc_skimmer+0x1a8>
			}

			if (getStatBoton(IN_AST) == FALL) {
 80023b2:	200c      	movs	r0, #12
 80023b4:	f7fe f88c 	bl	80004d0 <getStatBoton>
 80023b8:	4603      	mov	r3, r0
 80023ba:	2b02      	cmp	r3, #2
 80023bc:	d135      	bne.n	800242a <acc_skimmer+0x1a2>
				set_pantalla(PANT_OPCIONES_SKIMMER);
 80023be:	200e      	movs	r0, #14
 80023c0:	f7fe fbe2 	bl	8000b88 <set_pantalla>
				status_menuSkimmer = OPCIONES_SKIMMER;
 80023c4:	4b1b      	ldr	r3, [pc, #108]	; (8002434 <acc_skimmer+0x1ac>)
 80023c6:	2201      	movs	r2, #1
 80023c8:	701a      	strb	r2, [r3, #0]
				break;
 80023ca:	e031      	b.n	8002430 <acc_skimmer+0x1a8>
			}
		break;
		case ELIJE_ON_OFF_HORARIO_SKIMMER:
			if (getStatBoton(IN_1) == FALL) {
 80023cc:	2000      	movs	r0, #0
 80023ce:	f7fe f87f 	bl	80004d0 <getStatBoton>
 80023d2:	4603      	mov	r3, r0
 80023d4:	2b02      	cmp	r3, #2
 80023d6:	d106      	bne.n	80023e6 <acc_skimmer+0x15e>
				//levanta el flag de modificar el horario ON
				set_pantalla(PANT_HORARIO_ON_SKIMMER);
 80023d8:	2014      	movs	r0, #20
 80023da:	f7fe fbd5 	bl	8000b88 <set_pantalla>
				status_menuSkimmer = HORARIO_ON_SKIMMER;
 80023de:	4b15      	ldr	r3, [pc, #84]	; (8002434 <acc_skimmer+0x1ac>)
 80023e0:	2207      	movs	r2, #7
 80023e2:	701a      	strb	r2, [r3, #0]
				break;
 80023e4:	e024      	b.n	8002430 <acc_skimmer+0x1a8>
			}

			if (getStatBoton(IN_2) == FALL) {
 80023e6:	2001      	movs	r0, #1
 80023e8:	f7fe f872 	bl	80004d0 <getStatBoton>
 80023ec:	4603      	mov	r3, r0
 80023ee:	2b02      	cmp	r3, #2
 80023f0:	d106      	bne.n	8002400 <acc_skimmer+0x178>
				//levanta el flag de modificar el horario OFF
				set_pantalla(PANT_HORARIO_OFF_SKIMMER);
 80023f2:	2015      	movs	r0, #21
 80023f4:	f7fe fbc8 	bl	8000b88 <set_pantalla>
				status_menuSkimmer = HORARIO_OFF_SKIMMER;
 80023f8:	4b0e      	ldr	r3, [pc, #56]	; (8002434 <acc_skimmer+0x1ac>)
 80023fa:	2208      	movs	r2, #8
 80023fc:	701a      	strb	r2, [r3, #0]
				break;
 80023fe:	e017      	b.n	8002430 <acc_skimmer+0x1a8>
			}

			if (getStatBoton(IN_AST) == FALL) {
 8002400:	200c      	movs	r0, #12
 8002402:	f7fe f865 	bl	80004d0 <getStatBoton>
 8002406:	4603      	mov	r3, r0
 8002408:	2b02      	cmp	r3, #2
 800240a:	d110      	bne.n	800242e <acc_skimmer+0x1a6>
				set_pantalla(PANT_ELIJE_PROGRAMA_SKIMMER);
 800240c:	2010      	movs	r0, #16
 800240e:	f7fe fbbb 	bl	8000b88 <set_pantalla>
				status_menuSkimmer = ELIJE_PROGRAMA_SKIMMER;
 8002412:	4b08      	ldr	r3, [pc, #32]	; (8002434 <acc_skimmer+0x1ac>)
 8002414:	2205      	movs	r2, #5
 8002416:	701a      	strb	r2, [r3, #0]
				break;
 8002418:	e00a      	b.n	8002430 <acc_skimmer+0x1a8>
		break;
 800241a:	bf00      	nop
 800241c:	e008      	b.n	8002430 <acc_skimmer+0x1a8>
		break;
 800241e:	bf00      	nop
 8002420:	e006      	b.n	8002430 <acc_skimmer+0x1a8>
		break;
 8002422:	bf00      	nop
 8002424:	e004      	b.n	8002430 <acc_skimmer+0x1a8>
		break;
 8002426:	bf00      	nop
 8002428:	e002      	b.n	8002430 <acc_skimmer+0x1a8>
		break;
 800242a:	bf00      	nop
 800242c:	e000      	b.n	8002430 <acc_skimmer+0x1a8>
			}
		break;
 800242e:	bf00      	nop
		break;
		case HORARIO_OFF_SKIMMER:
			//funcion de seteo de horario off
		break;
	} //end switch status_menuSkimmer
} //end acc_skimmer()
 8002430:	bf00      	nop
 8002432:	bd80      	pop	{r7, pc}
 8002434:	20000141 	.word	0x20000141
 8002438:	20000610 	.word	0x20000610
 800243c:	20000008 	.word	0x20000008

08002440 <acc_hidro>:


void acc_hidro (void){
 8002440:	b580      	push	{r7, lr}
 8002442:	af00      	add	r7, sp, #0

	switch (status_menuHidro) {
 8002444:	4b2d      	ldr	r3, [pc, #180]	; (80024fc <acc_hidro+0xbc>)
 8002446:	781b      	ldrb	r3, [r3, #0]
 8002448:	2b01      	cmp	r3, #1
 800244a:	d01c      	beq.n	8002486 <acc_hidro+0x46>
 800244c:	2b02      	cmp	r3, #2
 800244e:	d034      	beq.n	80024ba <acc_hidro+0x7a>
 8002450:	2b00      	cmp	r3, #0
 8002452:	d000      	beq.n	8002456 <acc_hidro+0x16>
				break;
			}
		break;
	} //end switch status_menuHidro

} //end acc_hidro()
 8002454:	e04f      	b.n	80024f6 <acc_hidro+0xb6>
			if (getStatBoton(IN_AST) == FALL) {
 8002456:	200c      	movs	r0, #12
 8002458:	f7fe f83a 	bl	80004d0 <getStatBoton>
 800245c:	4603      	mov	r3, r0
 800245e:	2b02      	cmp	r3, #2
 8002460:	d107      	bne.n	8002472 <acc_hidro+0x32>
				menuActual = &menu[MENU_PRINCIPAL];
 8002462:	4b27      	ldr	r3, [pc, #156]	; (8002500 <acc_hidro+0xc0>)
 8002464:	4a27      	ldr	r2, [pc, #156]	; (8002504 <acc_hidro+0xc4>)
 8002466:	601a      	str	r2, [r3, #0]
				menuActual->inicia_menu();
 8002468:	4b25      	ldr	r3, [pc, #148]	; (8002500 <acc_hidro+0xc0>)
 800246a:	681b      	ldr	r3, [r3, #0]
 800246c:	689b      	ldr	r3, [r3, #8]
 800246e:	4798      	blx	r3
				break;
 8002470:	e041      	b.n	80024f6 <acc_hidro+0xb6>
			if (getStatBoton(IN_HASH) == FALL) {
 8002472:	200e      	movs	r0, #14
 8002474:	f7fe f82c 	bl	80004d0 <getStatBoton>
 8002478:	4603      	mov	r3, r0
 800247a:	2b02      	cmp	r3, #2
 800247c:	d138      	bne.n	80024f0 <acc_hidro+0xb0>
				status_menuHidro = ELIJE_TIEMPO_HIDRO;
 800247e:	4b1f      	ldr	r3, [pc, #124]	; (80024fc <acc_hidro+0xbc>)
 8002480:	2201      	movs	r2, #1
 8002482:	701a      	strb	r2, [r3, #0]
				break;
 8002484:	e037      	b.n	80024f6 <acc_hidro+0xb6>
			aux_progOutput = setProg_hidro(PROG_RUN);
 8002486:	2002      	movs	r0, #2
 8002488:	f7fe fd06 	bl	8000e98 <setProg_hidro>
 800248c:	4603      	mov	r3, r0
 800248e:	461a      	mov	r2, r3
 8002490:	4b1d      	ldr	r3, [pc, #116]	; (8002508 <acc_hidro+0xc8>)
 8002492:	701a      	strb	r2, [r3, #0]
			switch (aux_progOutput) {
 8002494:	4b1c      	ldr	r3, [pc, #112]	; (8002508 <acc_hidro+0xc8>)
 8002496:	781b      	ldrb	r3, [r3, #0]
 8002498:	2b01      	cmp	r3, #1
 800249a:	d002      	beq.n	80024a2 <acc_hidro+0x62>
 800249c:	2b03      	cmp	r3, #3
 800249e:	d007      	beq.n	80024b0 <acc_hidro+0x70>
				break;
 80024a0:	e00a      	b.n	80024b8 <acc_hidro+0x78>
					status_menuHidro = LIMITE_TIEMPO_HIDRO;
 80024a2:	4b16      	ldr	r3, [pc, #88]	; (80024fc <acc_hidro+0xbc>)
 80024a4:	2200      	movs	r2, #0
 80024a6:	701a      	strb	r2, [r3, #0]
					set_pantalla(PANT_init_hidro);
 80024a8:	2004      	movs	r0, #4
 80024aa:	f7fe fb6d 	bl	8000b88 <set_pantalla>
				break;
 80024ae:	e003      	b.n	80024b8 <acc_hidro+0x78>
					status_menuHidro = TIEMPO_HIDRO_GUARDADO;
 80024b0:	4b12      	ldr	r3, [pc, #72]	; (80024fc <acc_hidro+0xbc>)
 80024b2:	2202      	movs	r2, #2
 80024b4:	701a      	strb	r2, [r3, #0]
				break;
 80024b6:	bf00      	nop
		break;
 80024b8:	e01d      	b.n	80024f6 <acc_hidro+0xb6>
			if (getStatBoton(IN_HASH) == FALL) {
 80024ba:	200e      	movs	r0, #14
 80024bc:	f7fe f808 	bl	80004d0 <getStatBoton>
 80024c0:	4603      	mov	r3, r0
 80024c2:	2b02      	cmp	r3, #2
 80024c4:	d107      	bne.n	80024d6 <acc_hidro+0x96>
				menuActual = &menu[MENU_PRINCIPAL];
 80024c6:	4b0e      	ldr	r3, [pc, #56]	; (8002500 <acc_hidro+0xc0>)
 80024c8:	4a0e      	ldr	r2, [pc, #56]	; (8002504 <acc_hidro+0xc4>)
 80024ca:	601a      	str	r2, [r3, #0]
				menuActual->inicia_menu();
 80024cc:	4b0c      	ldr	r3, [pc, #48]	; (8002500 <acc_hidro+0xc0>)
 80024ce:	681b      	ldr	r3, [r3, #0]
 80024d0:	689b      	ldr	r3, [r3, #8]
 80024d2:	4798      	blx	r3
				break;
 80024d4:	e00f      	b.n	80024f6 <acc_hidro+0xb6>
			if (getStatBoton(IN_AST) == FALL) {
 80024d6:	200c      	movs	r0, #12
 80024d8:	f7fd fffa 	bl	80004d0 <getStatBoton>
 80024dc:	4603      	mov	r3, r0
 80024de:	2b02      	cmp	r3, #2
 80024e0:	d108      	bne.n	80024f4 <acc_hidro+0xb4>
				status_menuHidro = LIMITE_TIEMPO_HIDRO;
 80024e2:	4b06      	ldr	r3, [pc, #24]	; (80024fc <acc_hidro+0xbc>)
 80024e4:	2200      	movs	r2, #0
 80024e6:	701a      	strb	r2, [r3, #0]
				set_pantalla(PANT_init_hidro);
 80024e8:	2004      	movs	r0, #4
 80024ea:	f7fe fb4d 	bl	8000b88 <set_pantalla>
				break;
 80024ee:	e002      	b.n	80024f6 <acc_hidro+0xb6>
		break;
 80024f0:	bf00      	nop
 80024f2:	e000      	b.n	80024f6 <acc_hidro+0xb6>
		break;
 80024f4:	bf00      	nop
} //end acc_hidro()
 80024f6:	bf00      	nop
 80024f8:	bd80      	pop	{r7, pc}
 80024fa:	bf00      	nop
 80024fc:	20000142 	.word	0x20000142
 8002500:	20000610 	.word	0x20000610
 8002504:	20000008 	.word	0x20000008
 8002508:	20000618 	.word	0x20000618

0800250c <acc_lucesExt>:


void acc_lucesExt (void){ //luces Amarillas
 800250c:	b580      	push	{r7, lr}
 800250e:	af00      	add	r7, sp, #0
	switch (status_menuLucesExt) {
 8002510:	4b12      	ldr	r3, [pc, #72]	; (800255c <acc_lucesExt+0x50>)
 8002512:	781b      	ldrb	r3, [r3, #0]
 8002514:	2b00      	cmp	r3, #0
 8002516:	d002      	beq.n	800251e <acc_lucesExt+0x12>
 8002518:	2b01      	cmp	r3, #1
 800251a:	d017      	beq.n	800254c <acc_lucesExt+0x40>
			case ELIJE_TIEMPO_LUCESEXT:
				//funcion de seteo de timepo de hidro
				setProg_luz(PROG_RUN);
			break;
		} //end switch status_menuLucesExt
} //end acc_lucesExt()
 800251c:	e01b      	b.n	8002556 <acc_lucesExt+0x4a>
				if (getStatBoton(IN_AST) == FALL) {
 800251e:	200c      	movs	r0, #12
 8002520:	f7fd ffd6 	bl	80004d0 <getStatBoton>
 8002524:	4603      	mov	r3, r0
 8002526:	2b02      	cmp	r3, #2
 8002528:	d106      	bne.n	8002538 <acc_lucesExt+0x2c>
					menuActual = &menu[MENU_PRINCIPAL];
 800252a:	4b0d      	ldr	r3, [pc, #52]	; (8002560 <acc_lucesExt+0x54>)
 800252c:	4a0d      	ldr	r2, [pc, #52]	; (8002564 <acc_lucesExt+0x58>)
 800252e:	601a      	str	r2, [r3, #0]
					menuActual->inicia_menu();
 8002530:	4b0b      	ldr	r3, [pc, #44]	; (8002560 <acc_lucesExt+0x54>)
 8002532:	681b      	ldr	r3, [r3, #0]
 8002534:	689b      	ldr	r3, [r3, #8]
 8002536:	4798      	blx	r3
				if (getStatBoton(IN_HASH) == FALL) {
 8002538:	200e      	movs	r0, #14
 800253a:	f7fd ffc9 	bl	80004d0 <getStatBoton>
 800253e:	4603      	mov	r3, r0
 8002540:	2b02      	cmp	r3, #2
 8002542:	d107      	bne.n	8002554 <acc_lucesExt+0x48>
					status_menuLucesExt = ELIJE_TIEMPO_LUCESEXT;
 8002544:	4b05      	ldr	r3, [pc, #20]	; (800255c <acc_lucesExt+0x50>)
 8002546:	2201      	movs	r2, #1
 8002548:	701a      	strb	r2, [r3, #0]
					break;
 800254a:	e004      	b.n	8002556 <acc_lucesExt+0x4a>
				setProg_luz(PROG_RUN);
 800254c:	2002      	movs	r0, #2
 800254e:	f7fe ff01 	bl	8001354 <setProg_luz>
			break;
 8002552:	e000      	b.n	8002556 <acc_lucesExt+0x4a>
			break;
 8002554:	bf00      	nop
} //end acc_lucesExt()
 8002556:	bf00      	nop
 8002558:	bd80      	pop	{r7, pc}
 800255a:	bf00      	nop
 800255c:	20000143 	.word	0x20000143
 8002560:	20000610 	.word	0x20000610
 8002564:	20000008 	.word	0x20000008

08002568 <acc_lucesLed>:


void acc_lucesLed (void){
 8002568:	b480      	push	{r7}
 800256a:	af00      	add	r7, sp, #0

}
 800256c:	bf00      	nop
 800256e:	46bd      	mov	sp, r7
 8002570:	bc80      	pop	{r7}
 8002572:	4770      	bx	lr

08002574 <acc_config>:


void acc_config (void){
 8002574:	b480      	push	{r7}
 8002576:	af00      	add	r7, sp, #0

}
 8002578:	bf00      	nop
 800257a:	46bd      	mov	sp, r7
 800257c:	bc80      	pop	{r7}
 800257e:	4770      	bx	lr

08002580 <MX_RTC_Init>:
 8002580:	b580      	push	{r7, lr}
 8002582:	b084      	sub	sp, #16
 8002584:	af00      	add	r7, sp, #0
 8002586:	f107 030c 	add.w	r3, r7, #12
 800258a:	2100      	movs	r1, #0
 800258c:	460a      	mov	r2, r1
 800258e:	801a      	strh	r2, [r3, #0]
 8002590:	460a      	mov	r2, r1
 8002592:	709a      	strb	r2, [r3, #2]
 8002594:	2300      	movs	r3, #0
 8002596:	60bb      	str	r3, [r7, #8]
 8002598:	463b      	mov	r3, r7
 800259a:	2200      	movs	r2, #0
 800259c:	601a      	str	r2, [r3, #0]
 800259e:	605a      	str	r2, [r3, #4]
 80025a0:	4b27      	ldr	r3, [pc, #156]	; (8002640 <MX_RTC_Init+0xc0>)
 80025a2:	4a28      	ldr	r2, [pc, #160]	; (8002644 <MX_RTC_Init+0xc4>)
 80025a4:	601a      	str	r2, [r3, #0]
 80025a6:	4b26      	ldr	r3, [pc, #152]	; (8002640 <MX_RTC_Init+0xc0>)
 80025a8:	f04f 32ff 	mov.w	r2, #4294967295
 80025ac:	605a      	str	r2, [r3, #4]
 80025ae:	4b24      	ldr	r3, [pc, #144]	; (8002640 <MX_RTC_Init+0xc0>)
 80025b0:	f44f 7280 	mov.w	r2, #256	; 0x100
 80025b4:	609a      	str	r2, [r3, #8]
 80025b6:	4822      	ldr	r0, [pc, #136]	; (8002640 <MX_RTC_Init+0xc0>)
 80025b8:	f001 fe1c 	bl	80041f4 <HAL_RTC_Init>
 80025bc:	4603      	mov	r3, r0
 80025be:	2b00      	cmp	r3, #0
 80025c0:	d001      	beq.n	80025c6 <MX_RTC_Init+0x46>
 80025c2:	f7ff fb37 	bl	8001c34 <Error_Handler>
 80025c6:	2312      	movs	r3, #18
 80025c8:	733b      	strb	r3, [r7, #12]
 80025ca:	2359      	movs	r3, #89	; 0x59
 80025cc:	737b      	strb	r3, [r7, #13]
 80025ce:	2330      	movs	r3, #48	; 0x30
 80025d0:	73bb      	strb	r3, [r7, #14]
 80025d2:	f107 030c 	add.w	r3, r7, #12
 80025d6:	2201      	movs	r2, #1
 80025d8:	4619      	mov	r1, r3
 80025da:	4819      	ldr	r0, [pc, #100]	; (8002640 <MX_RTC_Init+0xc0>)
 80025dc:	f001 fea0 	bl	8004320 <HAL_RTC_SetTime>
 80025e0:	4603      	mov	r3, r0
 80025e2:	2b00      	cmp	r3, #0
 80025e4:	d001      	beq.n	80025ea <MX_RTC_Init+0x6a>
 80025e6:	f7ff fb25 	bl	8001c34 <Error_Handler>
 80025ea:	2301      	movs	r3, #1
 80025ec:	723b      	strb	r3, [r7, #8]
 80025ee:	2305      	movs	r3, #5
 80025f0:	727b      	strb	r3, [r7, #9]
 80025f2:	2301      	movs	r3, #1
 80025f4:	72bb      	strb	r3, [r7, #10]
 80025f6:	2300      	movs	r3, #0
 80025f8:	72fb      	strb	r3, [r7, #11]
 80025fa:	f107 0308 	add.w	r3, r7, #8
 80025fe:	2201      	movs	r2, #1
 8002600:	4619      	mov	r1, r3
 8002602:	480f      	ldr	r0, [pc, #60]	; (8002640 <MX_RTC_Init+0xc0>)
 8002604:	f001 fffc 	bl	8004600 <HAL_RTC_SetDate>
 8002608:	4603      	mov	r3, r0
 800260a:	2b00      	cmp	r3, #0
 800260c:	d001      	beq.n	8002612 <MX_RTC_Init+0x92>
 800260e:	f7ff fb11 	bl	8001c34 <Error_Handler>
 8002612:	2313      	movs	r3, #19
 8002614:	703b      	strb	r3, [r7, #0]
 8002616:	2301      	movs	r3, #1
 8002618:	707b      	strb	r3, [r7, #1]
 800261a:	2300      	movs	r3, #0
 800261c:	70bb      	strb	r3, [r7, #2]
 800261e:	2300      	movs	r3, #0
 8002620:	607b      	str	r3, [r7, #4]
 8002622:	463b      	mov	r3, r7
 8002624:	2201      	movs	r2, #1
 8002626:	4619      	mov	r1, r3
 8002628:	4805      	ldr	r0, [pc, #20]	; (8002640 <MX_RTC_Init+0xc0>)
 800262a:	f002 f8f3 	bl	8004814 <HAL_RTC_SetAlarm_IT>
 800262e:	4603      	mov	r3, r0
 8002630:	2b00      	cmp	r3, #0
 8002632:	d001      	beq.n	8002638 <MX_RTC_Init+0xb8>
 8002634:	f7ff fafe 	bl	8001c34 <Error_Handler>
 8002638:	bf00      	nop
 800263a:	3710      	adds	r7, #16
 800263c:	46bd      	mov	sp, r7
 800263e:	bd80      	pop	{r7, pc}
 8002640:	2000061c 	.word	0x2000061c
 8002644:	40002800 	.word	0x40002800

08002648 <HAL_RTC_MspInit>:
 8002648:	b580      	push	{r7, lr}
 800264a:	b084      	sub	sp, #16
 800264c:	af00      	add	r7, sp, #0
 800264e:	6078      	str	r0, [r7, #4]
 8002650:	687b      	ldr	r3, [r7, #4]
 8002652:	681b      	ldr	r3, [r3, #0]
 8002654:	4a13      	ldr	r2, [pc, #76]	; (80026a4 <HAL_RTC_MspInit+0x5c>)
 8002656:	4293      	cmp	r3, r2
 8002658:	d120      	bne.n	800269c <HAL_RTC_MspInit+0x54>
 800265a:	f001 f831 	bl	80036c0 <HAL_PWR_EnableBkUpAccess>
 800265e:	4b12      	ldr	r3, [pc, #72]	; (80026a8 <HAL_RTC_MspInit+0x60>)
 8002660:	69db      	ldr	r3, [r3, #28]
 8002662:	4a11      	ldr	r2, [pc, #68]	; (80026a8 <HAL_RTC_MspInit+0x60>)
 8002664:	f043 6300 	orr.w	r3, r3, #134217728	; 0x8000000
 8002668:	61d3      	str	r3, [r2, #28]
 800266a:	4b0f      	ldr	r3, [pc, #60]	; (80026a8 <HAL_RTC_MspInit+0x60>)
 800266c:	69db      	ldr	r3, [r3, #28]
 800266e:	f003 6300 	and.w	r3, r3, #134217728	; 0x8000000
 8002672:	60fb      	str	r3, [r7, #12]
 8002674:	68fb      	ldr	r3, [r7, #12]
 8002676:	4b0d      	ldr	r3, [pc, #52]	; (80026ac <HAL_RTC_MspInit+0x64>)
 8002678:	2201      	movs	r2, #1
 800267a:	601a      	str	r2, [r3, #0]
 800267c:	2200      	movs	r2, #0
 800267e:	2100      	movs	r1, #0
 8002680:	2003      	movs	r0, #3
 8002682:	f000 fe5c 	bl	800333e <HAL_NVIC_SetPriority>
 8002686:	2003      	movs	r0, #3
 8002688:	f000 fe75 	bl	8003376 <HAL_NVIC_EnableIRQ>
 800268c:	2200      	movs	r2, #0
 800268e:	2100      	movs	r1, #0
 8002690:	2029      	movs	r0, #41	; 0x29
 8002692:	f000 fe54 	bl	800333e <HAL_NVIC_SetPriority>
 8002696:	2029      	movs	r0, #41	; 0x29
 8002698:	f000 fe6d 	bl	8003376 <HAL_NVIC_EnableIRQ>
 800269c:	bf00      	nop
 800269e:	3710      	adds	r7, #16
 80026a0:	46bd      	mov	sp, r7
 80026a2:	bd80      	pop	{r7, pc}
 80026a4:	40002800 	.word	0x40002800
 80026a8:	40021000 	.word	0x40021000
 80026ac:	4242043c 	.word	0x4242043c

080026b0 <MX_SPI2_Init>:
 80026b0:	b580      	push	{r7, lr}
 80026b2:	af00      	add	r7, sp, #0
 80026b4:	4b17      	ldr	r3, [pc, #92]	; (8002714 <MX_SPI2_Init+0x64>)
 80026b6:	4a18      	ldr	r2, [pc, #96]	; (8002718 <MX_SPI2_Init+0x68>)
 80026b8:	601a      	str	r2, [r3, #0]
 80026ba:	4b16      	ldr	r3, [pc, #88]	; (8002714 <MX_SPI2_Init+0x64>)
 80026bc:	f44f 7282 	mov.w	r2, #260	; 0x104
 80026c0:	605a      	str	r2, [r3, #4]
 80026c2:	4b14      	ldr	r3, [pc, #80]	; (8002714 <MX_SPI2_Init+0x64>)
 80026c4:	2200      	movs	r2, #0
 80026c6:	609a      	str	r2, [r3, #8]
 80026c8:	4b12      	ldr	r3, [pc, #72]	; (8002714 <MX_SPI2_Init+0x64>)
 80026ca:	2200      	movs	r2, #0
 80026cc:	60da      	str	r2, [r3, #12]
 80026ce:	4b11      	ldr	r3, [pc, #68]	; (8002714 <MX_SPI2_Init+0x64>)
 80026d0:	2200      	movs	r2, #0
 80026d2:	611a      	str	r2, [r3, #16]
 80026d4:	4b0f      	ldr	r3, [pc, #60]	; (8002714 <MX_SPI2_Init+0x64>)
 80026d6:	2200      	movs	r2, #0
 80026d8:	615a      	str	r2, [r3, #20]
 80026da:	4b0e      	ldr	r3, [pc, #56]	; (8002714 <MX_SPI2_Init+0x64>)
 80026dc:	f44f 7200 	mov.w	r2, #512	; 0x200
 80026e0:	619a      	str	r2, [r3, #24]
 80026e2:	4b0c      	ldr	r3, [pc, #48]	; (8002714 <MX_SPI2_Init+0x64>)
 80026e4:	2238      	movs	r2, #56	; 0x38
 80026e6:	61da      	str	r2, [r3, #28]
 80026e8:	4b0a      	ldr	r3, [pc, #40]	; (8002714 <MX_SPI2_Init+0x64>)
 80026ea:	2200      	movs	r2, #0
 80026ec:	621a      	str	r2, [r3, #32]
 80026ee:	4b09      	ldr	r3, [pc, #36]	; (8002714 <MX_SPI2_Init+0x64>)
 80026f0:	2200      	movs	r2, #0
 80026f2:	625a      	str	r2, [r3, #36]	; 0x24
 80026f4:	4b07      	ldr	r3, [pc, #28]	; (8002714 <MX_SPI2_Init+0x64>)
 80026f6:	2200      	movs	r2, #0
 80026f8:	629a      	str	r2, [r3, #40]	; 0x28
 80026fa:	4b06      	ldr	r3, [pc, #24]	; (8002714 <MX_SPI2_Init+0x64>)
 80026fc:	220a      	movs	r2, #10
 80026fe:	62da      	str	r2, [r3, #44]	; 0x2c
 8002700:	4804      	ldr	r0, [pc, #16]	; (8002714 <MX_SPI2_Init+0x64>)
 8002702:	f002 fc4b 	bl	8004f9c <HAL_SPI_Init>
 8002706:	4603      	mov	r3, r0
 8002708:	2b00      	cmp	r3, #0
 800270a:	d001      	beq.n	8002710 <MX_SPI2_Init+0x60>
 800270c:	f7ff fa92 	bl	8001c34 <Error_Handler>
 8002710:	bf00      	nop
 8002712:	bd80      	pop	{r7, pc}
 8002714:	20000630 	.word	0x20000630
 8002718:	40003800 	.word	0x40003800

0800271c <HAL_SPI_MspInit>:
 800271c:	b580      	push	{r7, lr}
 800271e:	b088      	sub	sp, #32
 8002720:	af00      	add	r7, sp, #0
 8002722:	6078      	str	r0, [r7, #4]
 8002724:	f107 0310 	add.w	r3, r7, #16
 8002728:	2200      	movs	r2, #0
 800272a:	601a      	str	r2, [r3, #0]
 800272c:	605a      	str	r2, [r3, #4]
 800272e:	609a      	str	r2, [r3, #8]
 8002730:	60da      	str	r2, [r3, #12]
 8002732:	687b      	ldr	r3, [r7, #4]
 8002734:	681b      	ldr	r3, [r3, #0]
 8002736:	4a1c      	ldr	r2, [pc, #112]	; (80027a8 <HAL_SPI_MspInit+0x8c>)
 8002738:	4293      	cmp	r3, r2
 800273a:	d131      	bne.n	80027a0 <HAL_SPI_MspInit+0x84>
 800273c:	4b1b      	ldr	r3, [pc, #108]	; (80027ac <HAL_SPI_MspInit+0x90>)
 800273e:	69db      	ldr	r3, [r3, #28]
 8002740:	4a1a      	ldr	r2, [pc, #104]	; (80027ac <HAL_SPI_MspInit+0x90>)
 8002742:	f443 4380 	orr.w	r3, r3, #16384	; 0x4000
 8002746:	61d3      	str	r3, [r2, #28]
 8002748:	4b18      	ldr	r3, [pc, #96]	; (80027ac <HAL_SPI_MspInit+0x90>)
 800274a:	69db      	ldr	r3, [r3, #28]
 800274c:	f403 4380 	and.w	r3, r3, #16384	; 0x4000
 8002750:	60fb      	str	r3, [r7, #12]
 8002752:	68fb      	ldr	r3, [r7, #12]
 8002754:	4b15      	ldr	r3, [pc, #84]	; (80027ac <HAL_SPI_MspInit+0x90>)
 8002756:	699b      	ldr	r3, [r3, #24]
 8002758:	4a14      	ldr	r2, [pc, #80]	; (80027ac <HAL_SPI_MspInit+0x90>)
 800275a:	f043 0308 	orr.w	r3, r3, #8
 800275e:	6193      	str	r3, [r2, #24]
 8002760:	4b12      	ldr	r3, [pc, #72]	; (80027ac <HAL_SPI_MspInit+0x90>)
 8002762:	699b      	ldr	r3, [r3, #24]
 8002764:	f003 0308 	and.w	r3, r3, #8
 8002768:	60bb      	str	r3, [r7, #8]
 800276a:	68bb      	ldr	r3, [r7, #8]
 800276c:	f44f 4320 	mov.w	r3, #40960	; 0xa000
 8002770:	613b      	str	r3, [r7, #16]
 8002772:	2302      	movs	r3, #2
 8002774:	617b      	str	r3, [r7, #20]
 8002776:	2303      	movs	r3, #3
 8002778:	61fb      	str	r3, [r7, #28]
 800277a:	f107 0310 	add.w	r3, r7, #16
 800277e:	4619      	mov	r1, r3
 8002780:	480b      	ldr	r0, [pc, #44]	; (80027b0 <HAL_SPI_MspInit+0x94>)
 8002782:	f000 fe13 	bl	80033ac <HAL_GPIO_Init>
 8002786:	f44f 4380 	mov.w	r3, #16384	; 0x4000
 800278a:	613b      	str	r3, [r7, #16]
 800278c:	2300      	movs	r3, #0
 800278e:	617b      	str	r3, [r7, #20]
 8002790:	2300      	movs	r3, #0
 8002792:	61bb      	str	r3, [r7, #24]
 8002794:	f107 0310 	add.w	r3, r7, #16
 8002798:	4619      	mov	r1, r3
 800279a:	4805      	ldr	r0, [pc, #20]	; (80027b0 <HAL_SPI_MspInit+0x94>)
 800279c:	f000 fe06 	bl	80033ac <HAL_GPIO_Init>
 80027a0:	bf00      	nop
 80027a2:	3720      	adds	r7, #32
 80027a4:	46bd      	mov	sp, r7
 80027a6:	bd80      	pop	{r7, pc}
 80027a8:	40003800 	.word	0x40003800
 80027ac:	40021000 	.word	0x40021000
 80027b0:	40010c00 	.word	0x40010c00

080027b4 <HAL_MspInit>:
 80027b4:	b480      	push	{r7}
 80027b6:	b085      	sub	sp, #20
 80027b8:	af00      	add	r7, sp, #0
 80027ba:	4b15      	ldr	r3, [pc, #84]	; (8002810 <HAL_MspInit+0x5c>)
 80027bc:	699b      	ldr	r3, [r3, #24]
 80027be:	4a14      	ldr	r2, [pc, #80]	; (8002810 <HAL_MspInit+0x5c>)
 80027c0:	f043 0301 	orr.w	r3, r3, #1
 80027c4:	6193      	str	r3, [r2, #24]
 80027c6:	4b12      	ldr	r3, [pc, #72]	; (8002810 <HAL_MspInit+0x5c>)
 80027c8:	699b      	ldr	r3, [r3, #24]
 80027ca:	f003 0301 	and.w	r3, r3, #1
 80027ce:	60bb      	str	r3, [r7, #8]
 80027d0:	68bb      	ldr	r3, [r7, #8]
 80027d2:	4b0f      	ldr	r3, [pc, #60]	; (8002810 <HAL_MspInit+0x5c>)
 80027d4:	69db      	ldr	r3, [r3, #28]
 80027d6:	4a0e      	ldr	r2, [pc, #56]	; (8002810 <HAL_MspInit+0x5c>)
 80027d8:	f043 5380 	orr.w	r3, r3, #268435456	; 0x10000000
 80027dc:	61d3      	str	r3, [r2, #28]
 80027de:	4b0c      	ldr	r3, [pc, #48]	; (8002810 <HAL_MspInit+0x5c>)
 80027e0:	69db      	ldr	r3, [r3, #28]
 80027e2:	f003 5380 	and.w	r3, r3, #268435456	; 0x10000000
 80027e6:	607b      	str	r3, [r7, #4]
 80027e8:	687b      	ldr	r3, [r7, #4]
 80027ea:	4b0a      	ldr	r3, [pc, #40]	; (8002814 <HAL_MspInit+0x60>)
 80027ec:	685b      	ldr	r3, [r3, #4]
 80027ee:	60fb      	str	r3, [r7, #12]
 80027f0:	68fb      	ldr	r3, [r7, #12]
 80027f2:	f023 63e0 	bic.w	r3, r3, #117440512	; 0x7000000
 80027f6:	60fb      	str	r3, [r7, #12]
 80027f8:	68fb      	ldr	r3, [r7, #12]
 80027fa:	f043 7300 	orr.w	r3, r3, #33554432	; 0x2000000
 80027fe:	60fb      	str	r3, [r7, #12]
 8002800:	4a04      	ldr	r2, [pc, #16]	; (8002814 <HAL_MspInit+0x60>)
 8002802:	68fb      	ldr	r3, [r7, #12]
 8002804:	6053      	str	r3, [r2, #4]
 8002806:	bf00      	nop
 8002808:	3714      	adds	r7, #20
 800280a:	46bd      	mov	sp, r7
 800280c:	bc80      	pop	{r7}
 800280e:	4770      	bx	lr
 8002810:	40021000 	.word	0x40021000
 8002814:	40010000 	.word	0x40010000

08002818 <NMI_Handler>:
 8002818:	b480      	push	{r7}
 800281a:	af00      	add	r7, sp, #0
 800281c:	bf00      	nop
 800281e:	46bd      	mov	sp, r7
 8002820:	bc80      	pop	{r7}
 8002822:	4770      	bx	lr

08002824 <HardFault_Handler>:
 8002824:	b480      	push	{r7}
 8002826:	af00      	add	r7, sp, #0
 8002828:	e7fe      	b.n	8002828 <HardFault_Handler+0x4>

0800282a <MemManage_Handler>:
 800282a:	b480      	push	{r7}
 800282c:	af00      	add	r7, sp, #0
 800282e:	e7fe      	b.n	800282e <MemManage_Handler+0x4>

08002830 <BusFault_Handler>:
 8002830:	b480      	push	{r7}
 8002832:	af00      	add	r7, sp, #0
 8002834:	e7fe      	b.n	8002834 <BusFault_Handler+0x4>

08002836 <UsageFault_Handler>:
 8002836:	b480      	push	{r7}
 8002838:	af00      	add	r7, sp, #0
 800283a:	e7fe      	b.n	800283a <UsageFault_Handler+0x4>

0800283c <SVC_Handler>:
 800283c:	b480      	push	{r7}
 800283e:	af00      	add	r7, sp, #0
 8002840:	bf00      	nop
 8002842:	46bd      	mov	sp, r7
 8002844:	bc80      	pop	{r7}
 8002846:	4770      	bx	lr

08002848 <DebugMon_Handler>:
 8002848:	b480      	push	{r7}
 800284a:	af00      	add	r7, sp, #0
 800284c:	bf00      	nop
 800284e:	46bd      	mov	sp, r7
 8002850:	bc80      	pop	{r7}
 8002852:	4770      	bx	lr

08002854 <PendSV_Handler>:
 8002854:	b480      	push	{r7}
 8002856:	af00      	add	r7, sp, #0
 8002858:	bf00      	nop
 800285a:	46bd      	mov	sp, r7
 800285c:	bc80      	pop	{r7}
 800285e:	4770      	bx	lr

08002860 <SysTick_Handler>:
 8002860:	b580      	push	{r7, lr}
 8002862:	af00      	add	r7, sp, #0
 8002864:	f000 fa4c 	bl	8002d00 <HAL_IncTick>
 8002868:	bf00      	nop
 800286a:	bd80      	pop	{r7, pc}

0800286c <RTC_IRQHandler>:
 800286c:	b580      	push	{r7, lr}
 800286e:	af00      	add	r7, sp, #0
 8002870:	4802      	ldr	r0, [pc, #8]	; (800287c <RTC_IRQHandler+0x10>)
 8002872:	f002 fb4d 	bl	8004f10 <HAL_RTCEx_RTCIRQHandler>
 8002876:	bf00      	nop
 8002878:	bd80      	pop	{r7, pc}
 800287a:	bf00      	nop
 800287c:	2000061c 	.word	0x2000061c

08002880 <TIM2_IRQHandler>:
 8002880:	b580      	push	{r7, lr}
 8002882:	af00      	add	r7, sp, #0
 8002884:	4802      	ldr	r0, [pc, #8]	; (8002890 <TIM2_IRQHandler+0x10>)
 8002886:	f003 f914 	bl	8005ab2 <HAL_TIM_IRQHandler>
 800288a:	bf00      	nop
 800288c:	bd80      	pop	{r7, pc}
 800288e:	bf00      	nop
 8002890:	200006c8 	.word	0x200006c8

08002894 <RTC_Alarm_IRQHandler>:
 8002894:	b580      	push	{r7, lr}
 8002896:	af00      	add	r7, sp, #0
 8002898:	4802      	ldr	r0, [pc, #8]	; (80028a4 <RTC_Alarm_IRQHandler+0x10>)
 800289a:	f002 f86f 	bl	800497c <HAL_RTC_AlarmIRQHandler>
 800289e:	bf00      	nop
 80028a0:	bd80      	pop	{r7, pc}
 80028a2:	bf00      	nop
 80028a4:	2000061c 	.word	0x2000061c

080028a8 <_sbrk>:
 80028a8:	b580      	push	{r7, lr}
 80028aa:	b086      	sub	sp, #24
 80028ac:	af00      	add	r7, sp, #0
 80028ae:	6078      	str	r0, [r7, #4]
 80028b0:	4a14      	ldr	r2, [pc, #80]	; (8002904 <_sbrk+0x5c>)
 80028b2:	4b15      	ldr	r3, [pc, #84]	; (8002908 <_sbrk+0x60>)
 80028b4:	1ad3      	subs	r3, r2, r3
 80028b6:	617b      	str	r3, [r7, #20]
 80028b8:	697b      	ldr	r3, [r7, #20]
 80028ba:	613b      	str	r3, [r7, #16]
 80028bc:	4b13      	ldr	r3, [pc, #76]	; (800290c <_sbrk+0x64>)
 80028be:	681b      	ldr	r3, [r3, #0]
 80028c0:	2b00      	cmp	r3, #0
 80028c2:	d102      	bne.n	80028ca <_sbrk+0x22>
 80028c4:	4b11      	ldr	r3, [pc, #68]	; (800290c <_sbrk+0x64>)
 80028c6:	4a12      	ldr	r2, [pc, #72]	; (8002910 <_sbrk+0x68>)
 80028c8:	601a      	str	r2, [r3, #0]
 80028ca:	4b10      	ldr	r3, [pc, #64]	; (800290c <_sbrk+0x64>)
 80028cc:	681a      	ldr	r2, [r3, #0]
 80028ce:	687b      	ldr	r3, [r7, #4]
 80028d0:	4413      	add	r3, r2
 80028d2:	693a      	ldr	r2, [r7, #16]
 80028d4:	429a      	cmp	r2, r3
 80028d6:	d207      	bcs.n	80028e8 <_sbrk+0x40>
 80028d8:	f003 fd44 	bl	8006364 <__errno>
 80028dc:	4602      	mov	r2, r0
 80028de:	230c      	movs	r3, #12
 80028e0:	6013      	str	r3, [r2, #0]
 80028e2:	f04f 33ff 	mov.w	r3, #4294967295
 80028e6:	e009      	b.n	80028fc <_sbrk+0x54>
 80028e8:	4b08      	ldr	r3, [pc, #32]	; (800290c <_sbrk+0x64>)
 80028ea:	681b      	ldr	r3, [r3, #0]
 80028ec:	60fb      	str	r3, [r7, #12]
 80028ee:	4b07      	ldr	r3, [pc, #28]	; (800290c <_sbrk+0x64>)
 80028f0:	681a      	ldr	r2, [r3, #0]
 80028f2:	687b      	ldr	r3, [r7, #4]
 80028f4:	4413      	add	r3, r2
 80028f6:	4a05      	ldr	r2, [pc, #20]	; (800290c <_sbrk+0x64>)
 80028f8:	6013      	str	r3, [r2, #0]
 80028fa:	68fb      	ldr	r3, [r7, #12]
 80028fc:	4618      	mov	r0, r3
 80028fe:	3718      	adds	r7, #24
 8002900:	46bd      	mov	sp, r7
 8002902:	bd80      	pop	{r7, pc}
 8002904:	20005000 	.word	0x20005000
 8002908:	00000400 	.word	0x00000400
 800290c:	20000144 	.word	0x20000144
 8002910:	20000750 	.word	0x20000750

08002914 <SystemInit>:
 8002914:	b480      	push	{r7}
 8002916:	af00      	add	r7, sp, #0
 8002918:	4b15      	ldr	r3, [pc, #84]	; (8002970 <SystemInit+0x5c>)
 800291a:	681b      	ldr	r3, [r3, #0]
 800291c:	4a14      	ldr	r2, [pc, #80]	; (8002970 <SystemInit+0x5c>)
 800291e:	f043 0301 	orr.w	r3, r3, #1
 8002922:	6013      	str	r3, [r2, #0]
 8002924:	4b12      	ldr	r3, [pc, #72]	; (8002970 <SystemInit+0x5c>)
 8002926:	685a      	ldr	r2, [r3, #4]
 8002928:	4911      	ldr	r1, [pc, #68]	; (8002970 <SystemInit+0x5c>)
 800292a:	4b12      	ldr	r3, [pc, #72]	; (8002974 <SystemInit+0x60>)
 800292c:	4013      	ands	r3, r2
 800292e:	604b      	str	r3, [r1, #4]
 8002930:	4b0f      	ldr	r3, [pc, #60]	; (8002970 <SystemInit+0x5c>)
 8002932:	681b      	ldr	r3, [r3, #0]
 8002934:	4a0e      	ldr	r2, [pc, #56]	; (8002970 <SystemInit+0x5c>)
 8002936:	f023 7384 	bic.w	r3, r3, #17301504	; 0x1080000
 800293a:	f423 3380 	bic.w	r3, r3, #65536	; 0x10000
 800293e:	6013      	str	r3, [r2, #0]
 8002940:	4b0b      	ldr	r3, [pc, #44]	; (8002970 <SystemInit+0x5c>)
 8002942:	681b      	ldr	r3, [r3, #0]
 8002944:	4a0a      	ldr	r2, [pc, #40]	; (8002970 <SystemInit+0x5c>)
 8002946:	f423 2380 	bic.w	r3, r3, #262144	; 0x40000
 800294a:	6013      	str	r3, [r2, #0]
 800294c:	4b08      	ldr	r3, [pc, #32]	; (8002970 <SystemInit+0x5c>)
 800294e:	685b      	ldr	r3, [r3, #4]
 8002950:	4a07      	ldr	r2, [pc, #28]	; (8002970 <SystemInit+0x5c>)
 8002952:	f423 03fe 	bic.w	r3, r3, #8323072	; 0x7f0000
 8002956:	6053      	str	r3, [r2, #4]
 8002958:	4b05      	ldr	r3, [pc, #20]	; (8002970 <SystemInit+0x5c>)
 800295a:	f44f 021f 	mov.w	r2, #10420224	; 0x9f0000
 800295e:	609a      	str	r2, [r3, #8]
 8002960:	4b05      	ldr	r3, [pc, #20]	; (8002978 <SystemInit+0x64>)
 8002962:	f04f 6200 	mov.w	r2, #134217728	; 0x8000000
 8002966:	609a      	str	r2, [r3, #8]
 8002968:	bf00      	nop
 800296a:	46bd      	mov	sp, r7
 800296c:	bc80      	pop	{r7}
 800296e:	4770      	bx	lr
 8002970:	40021000 	.word	0x40021000
 8002974:	f8ff0000 	.word	0xf8ff0000
 8002978:	e000ed00 	.word	0xe000ed00

0800297c <MX_TIM2_Init>:
 800297c:	b580      	push	{r7, lr}
 800297e:	b086      	sub	sp, #24
 8002980:	af00      	add	r7, sp, #0
 8002982:	f107 0308 	add.w	r3, r7, #8
 8002986:	2200      	movs	r2, #0
 8002988:	601a      	str	r2, [r3, #0]
 800298a:	605a      	str	r2, [r3, #4]
 800298c:	609a      	str	r2, [r3, #8]
 800298e:	60da      	str	r2, [r3, #12]
 8002990:	463b      	mov	r3, r7
 8002992:	2200      	movs	r2, #0
 8002994:	601a      	str	r2, [r3, #0]
 8002996:	605a      	str	r2, [r3, #4]
 8002998:	4b1d      	ldr	r3, [pc, #116]	; (8002a10 <MX_TIM2_Init+0x94>)
 800299a:	f04f 4280 	mov.w	r2, #1073741824	; 0x40000000
 800299e:	601a      	str	r2, [r3, #0]
 80029a0:	4b1b      	ldr	r3, [pc, #108]	; (8002a10 <MX_TIM2_Init+0x94>)
 80029a2:	f641 421f 	movw	r2, #7199	; 0x1c1f
 80029a6:	605a      	str	r2, [r3, #4]
 80029a8:	4b19      	ldr	r3, [pc, #100]	; (8002a10 <MX_TIM2_Init+0x94>)
 80029aa:	2200      	movs	r2, #0
 80029ac:	609a      	str	r2, [r3, #8]
 80029ae:	4b18      	ldr	r3, [pc, #96]	; (8002a10 <MX_TIM2_Init+0x94>)
 80029b0:	2263      	movs	r2, #99	; 0x63
 80029b2:	60da      	str	r2, [r3, #12]
 80029b4:	4b16      	ldr	r3, [pc, #88]	; (8002a10 <MX_TIM2_Init+0x94>)
 80029b6:	2200      	movs	r2, #0
 80029b8:	611a      	str	r2, [r3, #16]
 80029ba:	4b15      	ldr	r3, [pc, #84]	; (8002a10 <MX_TIM2_Init+0x94>)
 80029bc:	2200      	movs	r2, #0
 80029be:	619a      	str	r2, [r3, #24]
 80029c0:	4813      	ldr	r0, [pc, #76]	; (8002a10 <MX_TIM2_Init+0x94>)
 80029c2:	f003 f805 	bl	80059d0 <HAL_TIM_Base_Init>
 80029c6:	4603      	mov	r3, r0
 80029c8:	2b00      	cmp	r3, #0
 80029ca:	d001      	beq.n	80029d0 <MX_TIM2_Init+0x54>
 80029cc:	f7ff f932 	bl	8001c34 <Error_Handler>
 80029d0:	f44f 5380 	mov.w	r3, #4096	; 0x1000
 80029d4:	60bb      	str	r3, [r7, #8]
 80029d6:	f107 0308 	add.w	r3, r7, #8
 80029da:	4619      	mov	r1, r3
 80029dc:	480c      	ldr	r0, [pc, #48]	; (8002a10 <MX_TIM2_Init+0x94>)
 80029de:	f003 f970 	bl	8005cc2 <HAL_TIM_ConfigClockSource>
 80029e2:	4603      	mov	r3, r0
 80029e4:	2b00      	cmp	r3, #0
 80029e6:	d001      	beq.n	80029ec <MX_TIM2_Init+0x70>
 80029e8:	f7ff f924 	bl	8001c34 <Error_Handler>
 80029ec:	2300      	movs	r3, #0
 80029ee:	603b      	str	r3, [r7, #0]
 80029f0:	2300      	movs	r3, #0
 80029f2:	607b      	str	r3, [r7, #4]
 80029f4:	463b      	mov	r3, r7
 80029f6:	4619      	mov	r1, r3
 80029f8:	4805      	ldr	r0, [pc, #20]	; (8002a10 <MX_TIM2_Init+0x94>)
 80029fa:	f003 fb35 	bl	8006068 <HAL_TIMEx_MasterConfigSynchronization>
 80029fe:	4603      	mov	r3, r0
 8002a00:	2b00      	cmp	r3, #0
 8002a02:	d001      	beq.n	8002a08 <MX_TIM2_Init+0x8c>
 8002a04:	f7ff f916 	bl	8001c34 <Error_Handler>
 8002a08:	bf00      	nop
 8002a0a:	3718      	adds	r7, #24
 8002a0c:	46bd      	mov	sp, r7
 8002a0e:	bd80      	pop	{r7, pc}
 8002a10:	200006c8 	.word	0x200006c8

08002a14 <MX_TIM3_Init>:
 8002a14:	b580      	push	{r7, lr}
 8002a16:	b086      	sub	sp, #24
 8002a18:	af00      	add	r7, sp, #0
 8002a1a:	f107 0308 	add.w	r3, r7, #8
 8002a1e:	2200      	movs	r2, #0
 8002a20:	601a      	str	r2, [r3, #0]
 8002a22:	605a      	str	r2, [r3, #4]
 8002a24:	609a      	str	r2, [r3, #8]
 8002a26:	60da      	str	r2, [r3, #12]
 8002a28:	463b      	mov	r3, r7
 8002a2a:	2200      	movs	r2, #0
 8002a2c:	601a      	str	r2, [r3, #0]
 8002a2e:	605a      	str	r2, [r3, #4]
 8002a30:	4b1d      	ldr	r3, [pc, #116]	; (8002aa8 <MX_TIM3_Init+0x94>)
 8002a32:	4a1e      	ldr	r2, [pc, #120]	; (8002aac <MX_TIM3_Init+0x98>)
 8002a34:	601a      	str	r2, [r3, #0]
 8002a36:	4b1c      	ldr	r3, [pc, #112]	; (8002aa8 <MX_TIM3_Init+0x94>)
 8002a38:	2248      	movs	r2, #72	; 0x48
 8002a3a:	605a      	str	r2, [r3, #4]
 8002a3c:	4b1a      	ldr	r3, [pc, #104]	; (8002aa8 <MX_TIM3_Init+0x94>)
 8002a3e:	2200      	movs	r2, #0
 8002a40:	609a      	str	r2, [r3, #8]
 8002a42:	4b19      	ldr	r3, [pc, #100]	; (8002aa8 <MX_TIM3_Init+0x94>)
 8002a44:	f64f 72ff 	movw	r2, #65535	; 0xffff
 8002a48:	60da      	str	r2, [r3, #12]
 8002a4a:	4b17      	ldr	r3, [pc, #92]	; (8002aa8 <MX_TIM3_Init+0x94>)
 8002a4c:	2200      	movs	r2, #0
 8002a4e:	611a      	str	r2, [r3, #16]
 8002a50:	4b15      	ldr	r3, [pc, #84]	; (8002aa8 <MX_TIM3_Init+0x94>)
 8002a52:	2200      	movs	r2, #0
 8002a54:	619a      	str	r2, [r3, #24]
 8002a56:	4814      	ldr	r0, [pc, #80]	; (8002aa8 <MX_TIM3_Init+0x94>)
 8002a58:	f002 ffba 	bl	80059d0 <HAL_TIM_Base_Init>
 8002a5c:	4603      	mov	r3, r0
 8002a5e:	2b00      	cmp	r3, #0
 8002a60:	d001      	beq.n	8002a66 <MX_TIM3_Init+0x52>
 8002a62:	f7ff f8e7 	bl	8001c34 <Error_Handler>
 8002a66:	f44f 5380 	mov.w	r3, #4096	; 0x1000
 8002a6a:	60bb      	str	r3, [r7, #8]
 8002a6c:	f107 0308 	add.w	r3, r7, #8
 8002a70:	4619      	mov	r1, r3
 8002a72:	480d      	ldr	r0, [pc, #52]	; (8002aa8 <MX_TIM3_Init+0x94>)
 8002a74:	f003 f925 	bl	8005cc2 <HAL_TIM_ConfigClockSource>
 8002a78:	4603      	mov	r3, r0
 8002a7a:	2b00      	cmp	r3, #0
 8002a7c:	d001      	beq.n	8002a82 <MX_TIM3_Init+0x6e>
 8002a7e:	f7ff f8d9 	bl	8001c34 <Error_Handler>
 8002a82:	2300      	movs	r3, #0
 8002a84:	603b      	str	r3, [r7, #0]
 8002a86:	2300      	movs	r3, #0
 8002a88:	607b      	str	r3, [r7, #4]
 8002a8a:	463b      	mov	r3, r7
 8002a8c:	4619      	mov	r1, r3
 8002a8e:	4806      	ldr	r0, [pc, #24]	; (8002aa8 <MX_TIM3_Init+0x94>)
 8002a90:	f003 faea 	bl	8006068 <HAL_TIMEx_MasterConfigSynchronization>
 8002a94:	4603      	mov	r3, r0
 8002a96:	2b00      	cmp	r3, #0
 8002a98:	d001      	beq.n	8002a9e <MX_TIM3_Init+0x8a>
 8002a9a:	f7ff f8cb 	bl	8001c34 <Error_Handler>
 8002a9e:	bf00      	nop
 8002aa0:	3718      	adds	r7, #24
 8002aa2:	46bd      	mov	sp, r7
 8002aa4:	bd80      	pop	{r7, pc}
 8002aa6:	bf00      	nop
 8002aa8:	20000688 	.word	0x20000688
 8002aac:	40000400 	.word	0x40000400

08002ab0 <HAL_TIM_Base_MspInit>:
 8002ab0:	b580      	push	{r7, lr}
 8002ab2:	b084      	sub	sp, #16
 8002ab4:	af00      	add	r7, sp, #0
 8002ab6:	6078      	str	r0, [r7, #4]
 8002ab8:	687b      	ldr	r3, [r7, #4]
 8002aba:	681b      	ldr	r3, [r3, #0]
 8002abc:	f1b3 4f80 	cmp.w	r3, #1073741824	; 0x40000000
 8002ac0:	d114      	bne.n	8002aec <HAL_TIM_Base_MspInit+0x3c>
 8002ac2:	4b15      	ldr	r3, [pc, #84]	; (8002b18 <HAL_TIM_Base_MspInit+0x68>)
 8002ac4:	69db      	ldr	r3, [r3, #28]
 8002ac6:	4a14      	ldr	r2, [pc, #80]	; (8002b18 <HAL_TIM_Base_MspInit+0x68>)
 8002ac8:	f043 0301 	orr.w	r3, r3, #1
 8002acc:	61d3      	str	r3, [r2, #28]
 8002ace:	4b12      	ldr	r3, [pc, #72]	; (8002b18 <HAL_TIM_Base_MspInit+0x68>)
 8002ad0:	69db      	ldr	r3, [r3, #28]
 8002ad2:	f003 0301 	and.w	r3, r3, #1
 8002ad6:	60fb      	str	r3, [r7, #12]
 8002ad8:	68fb      	ldr	r3, [r7, #12]
 8002ada:	2200      	movs	r2, #0
 8002adc:	2100      	movs	r1, #0
 8002ade:	201c      	movs	r0, #28
 8002ae0:	f000 fc2d 	bl	800333e <HAL_NVIC_SetPriority>
 8002ae4:	201c      	movs	r0, #28
 8002ae6:	f000 fc46 	bl	8003376 <HAL_NVIC_EnableIRQ>
 8002aea:	e010      	b.n	8002b0e <HAL_TIM_Base_MspInit+0x5e>
 8002aec:	687b      	ldr	r3, [r7, #4]
 8002aee:	681b      	ldr	r3, [r3, #0]
 8002af0:	4a0a      	ldr	r2, [pc, #40]	; (8002b1c <HAL_TIM_Base_MspInit+0x6c>)
 8002af2:	4293      	cmp	r3, r2
 8002af4:	d10b      	bne.n	8002b0e <HAL_TIM_Base_MspInit+0x5e>
 8002af6:	4b08      	ldr	r3, [pc, #32]	; (8002b18 <HAL_TIM_Base_MspInit+0x68>)
 8002af8:	69db      	ldr	r3, [r3, #28]
 8002afa:	4a07      	ldr	r2, [pc, #28]	; (8002b18 <HAL_TIM_Base_MspInit+0x68>)
 8002afc:	f043 0302 	orr.w	r3, r3, #2
 8002b00:	61d3      	str	r3, [r2, #28]
 8002b02:	4b05      	ldr	r3, [pc, #20]	; (8002b18 <HAL_TIM_Base_MspInit+0x68>)
 8002b04:	69db      	ldr	r3, [r3, #28]
 8002b06:	f003 0302 	and.w	r3, r3, #2
 8002b0a:	60bb      	str	r3, [r7, #8]
 8002b0c:	68bb      	ldr	r3, [r7, #8]
 8002b0e:	bf00      	nop
 8002b10:	3710      	adds	r7, #16
 8002b12:	46bd      	mov	sp, r7
 8002b14:	bd80      	pop	{r7, pc}
 8002b16:	bf00      	nop
 8002b18:	40021000 	.word	0x40021000
 8002b1c:	40000400 	.word	0x40000400

08002b20 <MX_USART1_UART_Init>:
 8002b20:	b580      	push	{r7, lr}
 8002b22:	af00      	add	r7, sp, #0
 8002b24:	4b11      	ldr	r3, [pc, #68]	; (8002b6c <MX_USART1_UART_Init+0x4c>)
 8002b26:	4a12      	ldr	r2, [pc, #72]	; (8002b70 <MX_USART1_UART_Init+0x50>)
 8002b28:	601a      	str	r2, [r3, #0]
 8002b2a:	4b10      	ldr	r3, [pc, #64]	; (8002b6c <MX_USART1_UART_Init+0x4c>)
 8002b2c:	f44f 32e1 	mov.w	r2, #115200	; 0x1c200
 8002b30:	605a      	str	r2, [r3, #4]
 8002b32:	4b0e      	ldr	r3, [pc, #56]	; (8002b6c <MX_USART1_UART_Init+0x4c>)
 8002b34:	2200      	movs	r2, #0
 8002b36:	609a      	str	r2, [r3, #8]
 8002b38:	4b0c      	ldr	r3, [pc, #48]	; (8002b6c <MX_USART1_UART_Init+0x4c>)
 8002b3a:	2200      	movs	r2, #0
 8002b3c:	60da      	str	r2, [r3, #12]
 8002b3e:	4b0b      	ldr	r3, [pc, #44]	; (8002b6c <MX_USART1_UART_Init+0x4c>)
 8002b40:	2200      	movs	r2, #0
 8002b42:	611a      	str	r2, [r3, #16]
 8002b44:	4b09      	ldr	r3, [pc, #36]	; (8002b6c <MX_USART1_UART_Init+0x4c>)
 8002b46:	220c      	movs	r2, #12
 8002b48:	615a      	str	r2, [r3, #20]
 8002b4a:	4b08      	ldr	r3, [pc, #32]	; (8002b6c <MX_USART1_UART_Init+0x4c>)
 8002b4c:	2200      	movs	r2, #0
 8002b4e:	619a      	str	r2, [r3, #24]
 8002b50:	4b06      	ldr	r3, [pc, #24]	; (8002b6c <MX_USART1_UART_Init+0x4c>)
 8002b52:	2200      	movs	r2, #0
 8002b54:	61da      	str	r2, [r3, #28]
 8002b56:	4805      	ldr	r0, [pc, #20]	; (8002b6c <MX_USART1_UART_Init+0x4c>)
 8002b58:	f003 fadc 	bl	8006114 <HAL_UART_Init>
 8002b5c:	4603      	mov	r3, r0
 8002b5e:	2b00      	cmp	r3, #0
 8002b60:	d001      	beq.n	8002b66 <MX_USART1_UART_Init+0x46>
 8002b62:	f7ff f867 	bl	8001c34 <Error_Handler>
 8002b66:	bf00      	nop
 8002b68:	bd80      	pop	{r7, pc}
 8002b6a:	bf00      	nop
 8002b6c:	20000708 	.word	0x20000708
 8002b70:	40013800 	.word	0x40013800

08002b74 <HAL_UART_MspInit>:
 8002b74:	b580      	push	{r7, lr}
 8002b76:	b08a      	sub	sp, #40	; 0x28
 8002b78:	af00      	add	r7, sp, #0
 8002b7a:	6078      	str	r0, [r7, #4]
 8002b7c:	f107 0314 	add.w	r3, r7, #20
 8002b80:	2200      	movs	r2, #0
 8002b82:	601a      	str	r2, [r3, #0]
 8002b84:	605a      	str	r2, [r3, #4]
 8002b86:	609a      	str	r2, [r3, #8]
 8002b88:	60da      	str	r2, [r3, #12]
 8002b8a:	687b      	ldr	r3, [r7, #4]
 8002b8c:	681b      	ldr	r3, [r3, #0]
 8002b8e:	4a22      	ldr	r2, [pc, #136]	; (8002c18 <HAL_UART_MspInit+0xa4>)
 8002b90:	4293      	cmp	r3, r2
 8002b92:	d13d      	bne.n	8002c10 <HAL_UART_MspInit+0x9c>
 8002b94:	4b21      	ldr	r3, [pc, #132]	; (8002c1c <HAL_UART_MspInit+0xa8>)
 8002b96:	699b      	ldr	r3, [r3, #24]
 8002b98:	4a20      	ldr	r2, [pc, #128]	; (8002c1c <HAL_UART_MspInit+0xa8>)
 8002b9a:	f443 4380 	orr.w	r3, r3, #16384	; 0x4000
 8002b9e:	6193      	str	r3, [r2, #24]
 8002ba0:	4b1e      	ldr	r3, [pc, #120]	; (8002c1c <HAL_UART_MspInit+0xa8>)
 8002ba2:	699b      	ldr	r3, [r3, #24]
 8002ba4:	f403 4380 	and.w	r3, r3, #16384	; 0x4000
 8002ba8:	613b      	str	r3, [r7, #16]
 8002baa:	693b      	ldr	r3, [r7, #16]
 8002bac:	4b1b      	ldr	r3, [pc, #108]	; (8002c1c <HAL_UART_MspInit+0xa8>)
 8002bae:	699b      	ldr	r3, [r3, #24]
 8002bb0:	4a1a      	ldr	r2, [pc, #104]	; (8002c1c <HAL_UART_MspInit+0xa8>)
 8002bb2:	f043 0308 	orr.w	r3, r3, #8
 8002bb6:	6193      	str	r3, [r2, #24]
 8002bb8:	4b18      	ldr	r3, [pc, #96]	; (8002c1c <HAL_UART_MspInit+0xa8>)
 8002bba:	699b      	ldr	r3, [r3, #24]
 8002bbc:	f003 0308 	and.w	r3, r3, #8
 8002bc0:	60fb      	str	r3, [r7, #12]
 8002bc2:	68fb      	ldr	r3, [r7, #12]
 8002bc4:	2340      	movs	r3, #64	; 0x40
 8002bc6:	617b      	str	r3, [r7, #20]
 8002bc8:	2302      	movs	r3, #2
 8002bca:	61bb      	str	r3, [r7, #24]
 8002bcc:	2303      	movs	r3, #3
 8002bce:	623b      	str	r3, [r7, #32]
 8002bd0:	f107 0314 	add.w	r3, r7, #20
 8002bd4:	4619      	mov	r1, r3
 8002bd6:	4812      	ldr	r0, [pc, #72]	; (8002c20 <HAL_UART_MspInit+0xac>)
 8002bd8:	f000 fbe8 	bl	80033ac <HAL_GPIO_Init>
 8002bdc:	2380      	movs	r3, #128	; 0x80
 8002bde:	617b      	str	r3, [r7, #20]
 8002be0:	2300      	movs	r3, #0
 8002be2:	61bb      	str	r3, [r7, #24]
 8002be4:	2300      	movs	r3, #0
 8002be6:	61fb      	str	r3, [r7, #28]
 8002be8:	f107 0314 	add.w	r3, r7, #20
 8002bec:	4619      	mov	r1, r3
 8002bee:	480c      	ldr	r0, [pc, #48]	; (8002c20 <HAL_UART_MspInit+0xac>)
 8002bf0:	f000 fbdc 	bl	80033ac <HAL_GPIO_Init>
 8002bf4:	4b0b      	ldr	r3, [pc, #44]	; (8002c24 <HAL_UART_MspInit+0xb0>)
 8002bf6:	685b      	ldr	r3, [r3, #4]
 8002bf8:	627b      	str	r3, [r7, #36]	; 0x24
 8002bfa:	6a7b      	ldr	r3, [r7, #36]	; 0x24
 8002bfc:	f043 63e0 	orr.w	r3, r3, #117440512	; 0x7000000
 8002c00:	627b      	str	r3, [r7, #36]	; 0x24
 8002c02:	6a7b      	ldr	r3, [r7, #36]	; 0x24
 8002c04:	f043 0304 	orr.w	r3, r3, #4
 8002c08:	627b      	str	r3, [r7, #36]	; 0x24
 8002c0a:	4a06      	ldr	r2, [pc, #24]	; (8002c24 <HAL_UART_MspInit+0xb0>)
 8002c0c:	6a7b      	ldr	r3, [r7, #36]	; 0x24
 8002c0e:	6053      	str	r3, [r2, #4]
 8002c10:	bf00      	nop
 8002c12:	3728      	adds	r7, #40	; 0x28
 8002c14:	46bd      	mov	sp, r7
 8002c16:	bd80      	pop	{r7, pc}
 8002c18:	40013800 	.word	0x40013800
 8002c1c:	40021000 	.word	0x40021000
 8002c20:	40010c00 	.word	0x40010c00
 8002c24:	40010000 	.word	0x40010000

08002c28 <Reset_Handler>:
 8002c28:	2100      	movs	r1, #0
 8002c2a:	e003      	b.n	8002c34 <LoopCopyDataInit>

08002c2c <CopyDataInit>:
 8002c2c:	4b0b      	ldr	r3, [pc, #44]	; (8002c5c <LoopFillZerobss+0x14>)
 8002c2e:	585b      	ldr	r3, [r3, r1]
 8002c30:	5043      	str	r3, [r0, r1]
 8002c32:	3104      	adds	r1, #4

08002c34 <LoopCopyDataInit>:
 8002c34:	480a      	ldr	r0, [pc, #40]	; (8002c60 <LoopFillZerobss+0x18>)
 8002c36:	4b0b      	ldr	r3, [pc, #44]	; (8002c64 <LoopFillZerobss+0x1c>)
 8002c38:	1842      	adds	r2, r0, r1
 8002c3a:	429a      	cmp	r2, r3
 8002c3c:	d3f6      	bcc.n	8002c2c <CopyDataInit>
 8002c3e:	4a0a      	ldr	r2, [pc, #40]	; (8002c68 <LoopFillZerobss+0x20>)
 8002c40:	e002      	b.n	8002c48 <LoopFillZerobss>

08002c42 <FillZerobss>:
 8002c42:	2300      	movs	r3, #0
 8002c44:	f842 3b04 	str.w	r3, [r2], #4

08002c48 <LoopFillZerobss>:
 8002c48:	4b08      	ldr	r3, [pc, #32]	; (8002c6c <LoopFillZerobss+0x24>)
 8002c4a:	429a      	cmp	r2, r3
 8002c4c:	d3f9      	bcc.n	8002c42 <FillZerobss>
 8002c4e:	f7ff fe61 	bl	8002914 <SystemInit>
 8002c52:	f003 fb8d 	bl	8006370 <__libc_init_array>
 8002c56:	f7fe feeb 	bl	8001a30 <main>
 8002c5a:	4770      	bx	lr
 8002c5c:	08006e70 	.word	0x08006e70
 8002c60:	20000000 	.word	0x20000000
 8002c64:	200000f8 	.word	0x200000f8
 8002c68:	200000f8 	.word	0x200000f8
 8002c6c:	20000750 	.word	0x20000750

08002c70 <ADC1_2_IRQHandler>:
 8002c70:	e7fe      	b.n	8002c70 <ADC1_2_IRQHandler>
	...

08002c74 <HAL_Init>:
 8002c74:	b580      	push	{r7, lr}
 8002c76:	af00      	add	r7, sp, #0
 8002c78:	4b08      	ldr	r3, [pc, #32]	; (8002c9c <HAL_Init+0x28>)
 8002c7a:	681b      	ldr	r3, [r3, #0]
 8002c7c:	4a07      	ldr	r2, [pc, #28]	; (8002c9c <HAL_Init+0x28>)
 8002c7e:	f043 0310 	orr.w	r3, r3, #16
 8002c82:	6013      	str	r3, [r2, #0]
 8002c84:	2003      	movs	r0, #3
 8002c86:	f000 fb4f 	bl	8003328 <HAL_NVIC_SetPriorityGrouping>
 8002c8a:	2000      	movs	r0, #0
 8002c8c:	f000 f808 	bl	8002ca0 <HAL_InitTick>
 8002c90:	f7ff fd90 	bl	80027b4 <HAL_MspInit>
 8002c94:	2300      	movs	r3, #0
 8002c96:	4618      	mov	r0, r3
 8002c98:	bd80      	pop	{r7, pc}
 8002c9a:	bf00      	nop
 8002c9c:	40022000 	.word	0x40022000

08002ca0 <HAL_InitTick>:
 8002ca0:	b580      	push	{r7, lr}
 8002ca2:	b082      	sub	sp, #8
 8002ca4:	af00      	add	r7, sp, #0
 8002ca6:	6078      	str	r0, [r7, #4]
 8002ca8:	4b12      	ldr	r3, [pc, #72]	; (8002cf4 <HAL_InitTick+0x54>)
 8002caa:	681a      	ldr	r2, [r3, #0]
 8002cac:	4b12      	ldr	r3, [pc, #72]	; (8002cf8 <HAL_InitTick+0x58>)
 8002cae:	781b      	ldrb	r3, [r3, #0]
 8002cb0:	4619      	mov	r1, r3
 8002cb2:	f44f 737a 	mov.w	r3, #1000	; 0x3e8
 8002cb6:	fbb3 f3f1 	udiv	r3, r3, r1
 8002cba:	fbb2 f3f3 	udiv	r3, r2, r3
 8002cbe:	4618      	mov	r0, r3
 8002cc0:	f000 fb67 	bl	8003392 <HAL_SYSTICK_Config>
 8002cc4:	4603      	mov	r3, r0
 8002cc6:	2b00      	cmp	r3, #0
 8002cc8:	d001      	beq.n	8002cce <HAL_InitTick+0x2e>
 8002cca:	2301      	movs	r3, #1
 8002ccc:	e00e      	b.n	8002cec <HAL_InitTick+0x4c>
 8002cce:	687b      	ldr	r3, [r7, #4]
 8002cd0:	2b0f      	cmp	r3, #15
 8002cd2:	d80a      	bhi.n	8002cea <HAL_InitTick+0x4a>
 8002cd4:	2200      	movs	r2, #0
 8002cd6:	6879      	ldr	r1, [r7, #4]
 8002cd8:	f04f 30ff 	mov.w	r0, #4294967295
 8002cdc:	f000 fb2f 	bl	800333e <HAL_NVIC_SetPriority>
 8002ce0:	4a06      	ldr	r2, [pc, #24]	; (8002cfc <HAL_InitTick+0x5c>)
 8002ce2:	687b      	ldr	r3, [r7, #4]
 8002ce4:	6013      	str	r3, [r2, #0]
 8002ce6:	2300      	movs	r3, #0
 8002ce8:	e000      	b.n	8002cec <HAL_InitTick+0x4c>
 8002cea:	2301      	movs	r3, #1
 8002cec:	4618      	mov	r0, r3
 8002cee:	3708      	adds	r7, #8
 8002cf0:	46bd      	mov	sp, r7
 8002cf2:	bd80      	pop	{r7, pc}
 8002cf4:	20000088 	.word	0x20000088
 8002cf8:	20000090 	.word	0x20000090
 8002cfc:	2000008c 	.word	0x2000008c

08002d00 <HAL_IncTick>:
 8002d00:	b480      	push	{r7}
 8002d02:	af00      	add	r7, sp, #0
 8002d04:	4b05      	ldr	r3, [pc, #20]	; (8002d1c <HAL_IncTick+0x1c>)
 8002d06:	781b      	ldrb	r3, [r3, #0]
 8002d08:	461a      	mov	r2, r3
 8002d0a:	4b05      	ldr	r3, [pc, #20]	; (8002d20 <HAL_IncTick+0x20>)
 8002d0c:	681b      	ldr	r3, [r3, #0]
 8002d0e:	4413      	add	r3, r2
 8002d10:	4a03      	ldr	r2, [pc, #12]	; (8002d20 <HAL_IncTick+0x20>)
 8002d12:	6013      	str	r3, [r2, #0]
 8002d14:	bf00      	nop
 8002d16:	46bd      	mov	sp, r7
 8002d18:	bc80      	pop	{r7}
 8002d1a:	4770      	bx	lr
 8002d1c:	20000090 	.word	0x20000090
 8002d20:	20000748 	.word	0x20000748

08002d24 <HAL_GetTick>:
 8002d24:	b480      	push	{r7}
 8002d26:	af00      	add	r7, sp, #0
 8002d28:	4b02      	ldr	r3, [pc, #8]	; (8002d34 <HAL_GetTick+0x10>)
 8002d2a:	681b      	ldr	r3, [r3, #0]
 8002d2c:	4618      	mov	r0, r3
 8002d2e:	46bd      	mov	sp, r7
 8002d30:	bc80      	pop	{r7}
 8002d32:	4770      	bx	lr
 8002d34:	20000748 	.word	0x20000748

08002d38 <HAL_Delay>:
 8002d38:	b580      	push	{r7, lr}
 8002d3a:	b084      	sub	sp, #16
 8002d3c:	af00      	add	r7, sp, #0
 8002d3e:	6078      	str	r0, [r7, #4]
 8002d40:	f7ff fff0 	bl	8002d24 <HAL_GetTick>
 8002d44:	60b8      	str	r0, [r7, #8]
 8002d46:	687b      	ldr	r3, [r7, #4]
 8002d48:	60fb      	str	r3, [r7, #12]
 8002d4a:	68fb      	ldr	r3, [r7, #12]
 8002d4c:	f1b3 3fff 	cmp.w	r3, #4294967295
 8002d50:	d005      	beq.n	8002d5e <HAL_Delay+0x26>
 8002d52:	4b09      	ldr	r3, [pc, #36]	; (8002d78 <HAL_Delay+0x40>)
 8002d54:	781b      	ldrb	r3, [r3, #0]
 8002d56:	461a      	mov	r2, r3
 8002d58:	68fb      	ldr	r3, [r7, #12]
 8002d5a:	4413      	add	r3, r2
 8002d5c:	60fb      	str	r3, [r7, #12]
 8002d5e:	bf00      	nop
 8002d60:	f7ff ffe0 	bl	8002d24 <HAL_GetTick>
 8002d64:	4602      	mov	r2, r0
 8002d66:	68bb      	ldr	r3, [r7, #8]
 8002d68:	1ad3      	subs	r3, r2, r3
 8002d6a:	68fa      	ldr	r2, [r7, #12]
 8002d6c:	429a      	cmp	r2, r3
 8002d6e:	d8f7      	bhi.n	8002d60 <HAL_Delay+0x28>
 8002d70:	bf00      	nop
 8002d72:	3710      	adds	r7, #16
 8002d74:	46bd      	mov	sp, r7
 8002d76:	bd80      	pop	{r7, pc}
 8002d78:	20000090 	.word	0x20000090

08002d7c <HAL_ADC_Init>:
 8002d7c:	b580      	push	{r7, lr}
 8002d7e:	b086      	sub	sp, #24
 8002d80:	af00      	add	r7, sp, #0
 8002d82:	6078      	str	r0, [r7, #4]
 8002d84:	2300      	movs	r3, #0
 8002d86:	75fb      	strb	r3, [r7, #23]
 8002d88:	2300      	movs	r3, #0
 8002d8a:	613b      	str	r3, [r7, #16]
 8002d8c:	2300      	movs	r3, #0
 8002d8e:	60bb      	str	r3, [r7, #8]
 8002d90:	2300      	movs	r3, #0
 8002d92:	60fb      	str	r3, [r7, #12]
 8002d94:	687b      	ldr	r3, [r7, #4]
 8002d96:	2b00      	cmp	r3, #0
 8002d98:	d101      	bne.n	8002d9e <HAL_ADC_Init+0x22>
 8002d9a:	2301      	movs	r3, #1
 8002d9c:	e0be      	b.n	8002f1c <HAL_ADC_Init+0x1a0>
 8002d9e:	687b      	ldr	r3, [r7, #4]
 8002da0:	689b      	ldr	r3, [r3, #8]
 8002da2:	2b00      	cmp	r3, #0
 8002da4:	687b      	ldr	r3, [r7, #4]
 8002da6:	6a9b      	ldr	r3, [r3, #40]	; 0x28
 8002da8:	2b00      	cmp	r3, #0
 8002daa:	d109      	bne.n	8002dc0 <HAL_ADC_Init+0x44>
 8002dac:	687b      	ldr	r3, [r7, #4]
 8002dae:	2200      	movs	r2, #0
 8002db0:	62da      	str	r2, [r3, #44]	; 0x2c
 8002db2:	687b      	ldr	r3, [r7, #4]
 8002db4:	2200      	movs	r2, #0
 8002db6:	f883 2024 	strb.w	r2, [r3, #36]	; 0x24
 8002dba:	6878      	ldr	r0, [r7, #4]
 8002dbc:	f7fd fe7e 	bl	8000abc <HAL_ADC_MspInit>
 8002dc0:	6878      	ldr	r0, [r7, #4]
 8002dc2:	f000 f9ab 	bl	800311c <ADC_ConversionStop_Disable>
 8002dc6:	4603      	mov	r3, r0
 8002dc8:	75fb      	strb	r3, [r7, #23]
 8002dca:	687b      	ldr	r3, [r7, #4]
 8002dcc:	6a9b      	ldr	r3, [r3, #40]	; 0x28
 8002dce:	f003 0310 	and.w	r3, r3, #16
 8002dd2:	2b00      	cmp	r3, #0
 8002dd4:	f040 8099 	bne.w	8002f0a <HAL_ADC_Init+0x18e>
 8002dd8:	7dfb      	ldrb	r3, [r7, #23]
 8002dda:	2b00      	cmp	r3, #0
 8002ddc:	f040 8095 	bne.w	8002f0a <HAL_ADC_Init+0x18e>
 8002de0:	687b      	ldr	r3, [r7, #4]
 8002de2:	6a9b      	ldr	r3, [r3, #40]	; 0x28
 8002de4:	f423 5388 	bic.w	r3, r3, #4352	; 0x1100
 8002de8:	f023 0302 	bic.w	r3, r3, #2
 8002dec:	f043 0202 	orr.w	r2, r3, #2
 8002df0:	687b      	ldr	r3, [r7, #4]
 8002df2:	629a      	str	r2, [r3, #40]	; 0x28
 8002df4:	687b      	ldr	r3, [r7, #4]
 8002df6:	685a      	ldr	r2, [r3, #4]
 8002df8:	687b      	ldr	r3, [r7, #4]
 8002dfa:	69db      	ldr	r3, [r3, #28]
 8002dfc:	431a      	orrs	r2, r3
 8002dfe:	687b      	ldr	r3, [r7, #4]
 8002e00:	7b1b      	ldrb	r3, [r3, #12]
 8002e02:	005b      	lsls	r3, r3, #1
 8002e04:	4313      	orrs	r3, r2
 8002e06:	68ba      	ldr	r2, [r7, #8]
 8002e08:	4313      	orrs	r3, r2
 8002e0a:	60bb      	str	r3, [r7, #8]
 8002e0c:	687b      	ldr	r3, [r7, #4]
 8002e0e:	689b      	ldr	r3, [r3, #8]
 8002e10:	f5b3 7f80 	cmp.w	r3, #256	; 0x100
 8002e14:	d003      	beq.n	8002e1e <HAL_ADC_Init+0xa2>
 8002e16:	687b      	ldr	r3, [r7, #4]
 8002e18:	689b      	ldr	r3, [r3, #8]
 8002e1a:	2b01      	cmp	r3, #1
 8002e1c:	d102      	bne.n	8002e24 <HAL_ADC_Init+0xa8>
 8002e1e:	f44f 7380 	mov.w	r3, #256	; 0x100
 8002e22:	e000      	b.n	8002e26 <HAL_ADC_Init+0xaa>
 8002e24:	2300      	movs	r3, #0
 8002e26:	693a      	ldr	r2, [r7, #16]
 8002e28:	4313      	orrs	r3, r2
 8002e2a:	613b      	str	r3, [r7, #16]
 8002e2c:	687b      	ldr	r3, [r7, #4]
 8002e2e:	7d1b      	ldrb	r3, [r3, #20]
 8002e30:	2b01      	cmp	r3, #1
 8002e32:	d119      	bne.n	8002e68 <HAL_ADC_Init+0xec>
 8002e34:	687b      	ldr	r3, [r7, #4]
 8002e36:	7b1b      	ldrb	r3, [r3, #12]
 8002e38:	2b00      	cmp	r3, #0
 8002e3a:	d109      	bne.n	8002e50 <HAL_ADC_Init+0xd4>
 8002e3c:	687b      	ldr	r3, [r7, #4]
 8002e3e:	699b      	ldr	r3, [r3, #24]
 8002e40:	3b01      	subs	r3, #1
 8002e42:	035a      	lsls	r2, r3, #13
 8002e44:	693b      	ldr	r3, [r7, #16]
 8002e46:	4313      	orrs	r3, r2
 8002e48:	f443 6300 	orr.w	r3, r3, #2048	; 0x800
 8002e4c:	613b      	str	r3, [r7, #16]
 8002e4e:	e00b      	b.n	8002e68 <HAL_ADC_Init+0xec>
 8002e50:	687b      	ldr	r3, [r7, #4]
 8002e52:	6a9b      	ldr	r3, [r3, #40]	; 0x28
 8002e54:	f043 0220 	orr.w	r2, r3, #32
 8002e58:	687b      	ldr	r3, [r7, #4]
 8002e5a:	629a      	str	r2, [r3, #40]	; 0x28
 8002e5c:	687b      	ldr	r3, [r7, #4]
 8002e5e:	6adb      	ldr	r3, [r3, #44]	; 0x2c
 8002e60:	f043 0201 	orr.w	r2, r3, #1
 8002e64:	687b      	ldr	r3, [r7, #4]
 8002e66:	62da      	str	r2, [r3, #44]	; 0x2c
 8002e68:	687b      	ldr	r3, [r7, #4]
 8002e6a:	681b      	ldr	r3, [r3, #0]
 8002e6c:	685b      	ldr	r3, [r3, #4]
 8002e6e:	f423 4169 	bic.w	r1, r3, #59648	; 0xe900
 8002e72:	687b      	ldr	r3, [r7, #4]
 8002e74:	681b      	ldr	r3, [r3, #0]
 8002e76:	693a      	ldr	r2, [r7, #16]
 8002e78:	430a      	orrs	r2, r1
 8002e7a:	605a      	str	r2, [r3, #4]
 8002e7c:	687b      	ldr	r3, [r7, #4]
 8002e7e:	681b      	ldr	r3, [r3, #0]
 8002e80:	689a      	ldr	r2, [r3, #8]
 8002e82:	4b28      	ldr	r3, [pc, #160]	; (8002f24 <HAL_ADC_Init+0x1a8>)
 8002e84:	4013      	ands	r3, r2
 8002e86:	687a      	ldr	r2, [r7, #4]
 8002e88:	6812      	ldr	r2, [r2, #0]
 8002e8a:	68b9      	ldr	r1, [r7, #8]
 8002e8c:	430b      	orrs	r3, r1
 8002e8e:	6093      	str	r3, [r2, #8]
 8002e90:	687b      	ldr	r3, [r7, #4]
 8002e92:	689b      	ldr	r3, [r3, #8]
 8002e94:	f5b3 7f80 	cmp.w	r3, #256	; 0x100
 8002e98:	d003      	beq.n	8002ea2 <HAL_ADC_Init+0x126>
 8002e9a:	687b      	ldr	r3, [r7, #4]
 8002e9c:	689b      	ldr	r3, [r3, #8]
 8002e9e:	2b01      	cmp	r3, #1
 8002ea0:	d104      	bne.n	8002eac <HAL_ADC_Init+0x130>
 8002ea2:	687b      	ldr	r3, [r7, #4]
 8002ea4:	691b      	ldr	r3, [r3, #16]
 8002ea6:	3b01      	subs	r3, #1
 8002ea8:	051b      	lsls	r3, r3, #20
 8002eaa:	60fb      	str	r3, [r7, #12]
 8002eac:	687b      	ldr	r3, [r7, #4]
 8002eae:	681b      	ldr	r3, [r3, #0]
 8002eb0:	6adb      	ldr	r3, [r3, #44]	; 0x2c
 8002eb2:	f423 0170 	bic.w	r1, r3, #15728640	; 0xf00000
 8002eb6:	687b      	ldr	r3, [r7, #4]
 8002eb8:	681b      	ldr	r3, [r3, #0]
 8002eba:	68fa      	ldr	r2, [r7, #12]
 8002ebc:	430a      	orrs	r2, r1
 8002ebe:	62da      	str	r2, [r3, #44]	; 0x2c
 8002ec0:	687b      	ldr	r3, [r7, #4]
 8002ec2:	681b      	ldr	r3, [r3, #0]
 8002ec4:	689a      	ldr	r2, [r3, #8]
 8002ec6:	4b18      	ldr	r3, [pc, #96]	; (8002f28 <HAL_ADC_Init+0x1ac>)
 8002ec8:	4013      	ands	r3, r2
 8002eca:	68ba      	ldr	r2, [r7, #8]
 8002ecc:	429a      	cmp	r2, r3
 8002ece:	d10b      	bne.n	8002ee8 <HAL_ADC_Init+0x16c>
 8002ed0:	687b      	ldr	r3, [r7, #4]
 8002ed2:	2200      	movs	r2, #0
 8002ed4:	62da      	str	r2, [r3, #44]	; 0x2c
 8002ed6:	687b      	ldr	r3, [r7, #4]
 8002ed8:	6a9b      	ldr	r3, [r3, #40]	; 0x28
 8002eda:	f023 0303 	bic.w	r3, r3, #3
 8002ede:	f043 0201 	orr.w	r2, r3, #1
 8002ee2:	687b      	ldr	r3, [r7, #4]
 8002ee4:	629a      	str	r2, [r3, #40]	; 0x28
 8002ee6:	e018      	b.n	8002f1a <HAL_ADC_Init+0x19e>
 8002ee8:	687b      	ldr	r3, [r7, #4]
 8002eea:	6a9b      	ldr	r3, [r3, #40]	; 0x28
 8002eec:	f023 0312 	bic.w	r3, r3, #18
 8002ef0:	f043 0210 	orr.w	r2, r3, #16
 8002ef4:	687b      	ldr	r3, [r7, #4]
 8002ef6:	629a      	str	r2, [r3, #40]	; 0x28
 8002ef8:	687b      	ldr	r3, [r7, #4]
 8002efa:	6adb      	ldr	r3, [r3, #44]	; 0x2c
 8002efc:	f043 0201 	orr.w	r2, r3, #1
 8002f00:	687b      	ldr	r3, [r7, #4]
 8002f02:	62da      	str	r2, [r3, #44]	; 0x2c
 8002f04:	2301      	movs	r3, #1
 8002f06:	75fb      	strb	r3, [r7, #23]
 8002f08:	e007      	b.n	8002f1a <HAL_ADC_Init+0x19e>
 8002f0a:	687b      	ldr	r3, [r7, #4]
 8002f0c:	6a9b      	ldr	r3, [r3, #40]	; 0x28
 8002f0e:	f043 0210 	orr.w	r2, r3, #16
 8002f12:	687b      	ldr	r3, [r7, #4]
 8002f14:	629a      	str	r2, [r3, #40]	; 0x28
 8002f16:	2301      	movs	r3, #1
 8002f18:	75fb      	strb	r3, [r7, #23]
 8002f1a:	7dfb      	ldrb	r3, [r7, #23]
 8002f1c:	4618      	mov	r0, r3
 8002f1e:	3718      	adds	r7, #24
 8002f20:	46bd      	mov	sp, r7
 8002f22:	bd80      	pop	{r7, pc}
 8002f24:	ffe1f7fd 	.word	0xffe1f7fd
 8002f28:	ff1f0efe 	.word	0xff1f0efe

08002f2c <HAL_ADC_ConfigChannel>:
 8002f2c:	b480      	push	{r7}
 8002f2e:	b085      	sub	sp, #20
 8002f30:	af00      	add	r7, sp, #0
 8002f32:	6078      	str	r0, [r7, #4]
 8002f34:	6039      	str	r1, [r7, #0]
 8002f36:	2300      	movs	r3, #0
 8002f38:	73fb      	strb	r3, [r7, #15]
 8002f3a:	2300      	movs	r3, #0
 8002f3c:	60bb      	str	r3, [r7, #8]
 8002f3e:	687b      	ldr	r3, [r7, #4]
 8002f40:	f893 3024 	ldrb.w	r3, [r3, #36]	; 0x24
 8002f44:	2b01      	cmp	r3, #1
 8002f46:	d101      	bne.n	8002f4c <HAL_ADC_ConfigChannel+0x20>
 8002f48:	2302      	movs	r3, #2
 8002f4a:	e0dc      	b.n	8003106 <HAL_ADC_ConfigChannel+0x1da>
 8002f4c:	687b      	ldr	r3, [r7, #4]
 8002f4e:	2201      	movs	r2, #1
 8002f50:	f883 2024 	strb.w	r2, [r3, #36]	; 0x24
 8002f54:	683b      	ldr	r3, [r7, #0]
 8002f56:	685b      	ldr	r3, [r3, #4]
 8002f58:	2b06      	cmp	r3, #6
 8002f5a:	d81c      	bhi.n	8002f96 <HAL_ADC_ConfigChannel+0x6a>
 8002f5c:	687b      	ldr	r3, [r7, #4]
 8002f5e:	681b      	ldr	r3, [r3, #0]
 8002f60:	6b59      	ldr	r1, [r3, #52]	; 0x34
 8002f62:	683b      	ldr	r3, [r7, #0]
 8002f64:	685a      	ldr	r2, [r3, #4]
 8002f66:	4613      	mov	r3, r2
 8002f68:	009b      	lsls	r3, r3, #2
 8002f6a:	4413      	add	r3, r2
 8002f6c:	3b05      	subs	r3, #5
 8002f6e:	221f      	movs	r2, #31
 8002f70:	fa02 f303 	lsl.w	r3, r2, r3
 8002f74:	43db      	mvns	r3, r3
 8002f76:	4019      	ands	r1, r3
 8002f78:	683b      	ldr	r3, [r7, #0]
 8002f7a:	6818      	ldr	r0, [r3, #0]
 8002f7c:	683b      	ldr	r3, [r7, #0]
 8002f7e:	685a      	ldr	r2, [r3, #4]
 8002f80:	4613      	mov	r3, r2
 8002f82:	009b      	lsls	r3, r3, #2
 8002f84:	4413      	add	r3, r2
 8002f86:	3b05      	subs	r3, #5
 8002f88:	fa00 f203 	lsl.w	r2, r0, r3
 8002f8c:	687b      	ldr	r3, [r7, #4]
 8002f8e:	681b      	ldr	r3, [r3, #0]
 8002f90:	430a      	orrs	r2, r1
 8002f92:	635a      	str	r2, [r3, #52]	; 0x34
 8002f94:	e03c      	b.n	8003010 <HAL_ADC_ConfigChannel+0xe4>
 8002f96:	683b      	ldr	r3, [r7, #0]
 8002f98:	685b      	ldr	r3, [r3, #4]
 8002f9a:	2b0c      	cmp	r3, #12
 8002f9c:	d81c      	bhi.n	8002fd8 <HAL_ADC_ConfigChannel+0xac>
 8002f9e:	687b      	ldr	r3, [r7, #4]
 8002fa0:	681b      	ldr	r3, [r3, #0]
 8002fa2:	6b19      	ldr	r1, [r3, #48]	; 0x30
 8002fa4:	683b      	ldr	r3, [r7, #0]
 8002fa6:	685a      	ldr	r2, [r3, #4]
 8002fa8:	4613      	mov	r3, r2
 8002faa:	009b      	lsls	r3, r3, #2
 8002fac:	4413      	add	r3, r2
 8002fae:	3b23      	subs	r3, #35	; 0x23
 8002fb0:	221f      	movs	r2, #31
 8002fb2:	fa02 f303 	lsl.w	r3, r2, r3
 8002fb6:	43db      	mvns	r3, r3
 8002fb8:	4019      	ands	r1, r3
 8002fba:	683b      	ldr	r3, [r7, #0]
 8002fbc:	6818      	ldr	r0, [r3, #0]
 8002fbe:	683b      	ldr	r3, [r7, #0]
 8002fc0:	685a      	ldr	r2, [r3, #4]
 8002fc2:	4613      	mov	r3, r2
 8002fc4:	009b      	lsls	r3, r3, #2
 8002fc6:	4413      	add	r3, r2
 8002fc8:	3b23      	subs	r3, #35	; 0x23
 8002fca:	fa00 f203 	lsl.w	r2, r0, r3
 8002fce:	687b      	ldr	r3, [r7, #4]
 8002fd0:	681b      	ldr	r3, [r3, #0]
 8002fd2:	430a      	orrs	r2, r1
 8002fd4:	631a      	str	r2, [r3, #48]	; 0x30
 8002fd6:	e01b      	b.n	8003010 <HAL_ADC_ConfigChannel+0xe4>
 8002fd8:	687b      	ldr	r3, [r7, #4]
 8002fda:	681b      	ldr	r3, [r3, #0]
 8002fdc:	6ad9      	ldr	r1, [r3, #44]	; 0x2c
 8002fde:	683b      	ldr	r3, [r7, #0]
 8002fe0:	685a      	ldr	r2, [r3, #4]
 8002fe2:	4613      	mov	r3, r2
 8002fe4:	009b      	lsls	r3, r3, #2
 8002fe6:	4413      	add	r3, r2
 8002fe8:	3b41      	subs	r3, #65	; 0x41
 8002fea:	221f      	movs	r2, #31
 8002fec:	fa02 f303 	lsl.w	r3, r2, r3
 8002ff0:	43db      	mvns	r3, r3
 8002ff2:	4019      	ands	r1, r3
 8002ff4:	683b      	ldr	r3, [r7, #0]
 8002ff6:	6818      	ldr	r0, [r3, #0]
 8002ff8:	683b      	ldr	r3, [r7, #0]
 8002ffa:	685a      	ldr	r2, [r3, #4]
 8002ffc:	4613      	mov	r3, r2
 8002ffe:	009b      	lsls	r3, r3, #2
 8003000:	4413      	add	r3, r2
 8003002:	3b41      	subs	r3, #65	; 0x41
 8003004:	fa00 f203 	lsl.w	r2, r0, r3
 8003008:	687b      	ldr	r3, [r7, #4]
 800300a:	681b      	ldr	r3, [r3, #0]
 800300c:	430a      	orrs	r2, r1
 800300e:	62da      	str	r2, [r3, #44]	; 0x2c
 8003010:	683b      	ldr	r3, [r7, #0]
 8003012:	681b      	ldr	r3, [r3, #0]
 8003014:	2b09      	cmp	r3, #9
 8003016:	d91c      	bls.n	8003052 <HAL_ADC_ConfigChannel+0x126>
 8003018:	687b      	ldr	r3, [r7, #4]
 800301a:	681b      	ldr	r3, [r3, #0]
 800301c:	68d9      	ldr	r1, [r3, #12]
 800301e:	683b      	ldr	r3, [r7, #0]
 8003020:	681a      	ldr	r2, [r3, #0]
 8003022:	4613      	mov	r3, r2
 8003024:	005b      	lsls	r3, r3, #1
 8003026:	4413      	add	r3, r2
 8003028:	3b1e      	subs	r3, #30
 800302a:	2207      	movs	r2, #7
 800302c:	fa02 f303 	lsl.w	r3, r2, r3
 8003030:	43db      	mvns	r3, r3
 8003032:	4019      	ands	r1, r3
 8003034:	683b      	ldr	r3, [r7, #0]
 8003036:	6898      	ldr	r0, [r3, #8]
 8003038:	683b      	ldr	r3, [r7, #0]
 800303a:	681a      	ldr	r2, [r3, #0]
 800303c:	4613      	mov	r3, r2
 800303e:	005b      	lsls	r3, r3, #1
 8003040:	4413      	add	r3, r2
 8003042:	3b1e      	subs	r3, #30
 8003044:	fa00 f203 	lsl.w	r2, r0, r3
 8003048:	687b      	ldr	r3, [r7, #4]
 800304a:	681b      	ldr	r3, [r3, #0]
 800304c:	430a      	orrs	r2, r1
 800304e:	60da      	str	r2, [r3, #12]
 8003050:	e019      	b.n	8003086 <HAL_ADC_ConfigChannel+0x15a>
 8003052:	687b      	ldr	r3, [r7, #4]
 8003054:	681b      	ldr	r3, [r3, #0]
 8003056:	6919      	ldr	r1, [r3, #16]
 8003058:	683b      	ldr	r3, [r7, #0]
 800305a:	681a      	ldr	r2, [r3, #0]
 800305c:	4613      	mov	r3, r2
 800305e:	005b      	lsls	r3, r3, #1
 8003060:	4413      	add	r3, r2
 8003062:	2207      	movs	r2, #7
 8003064:	fa02 f303 	lsl.w	r3, r2, r3
 8003068:	43db      	mvns	r3, r3
 800306a:	4019      	ands	r1, r3
 800306c:	683b      	ldr	r3, [r7, #0]
 800306e:	6898      	ldr	r0, [r3, #8]
 8003070:	683b      	ldr	r3, [r7, #0]
 8003072:	681a      	ldr	r2, [r3, #0]
 8003074:	4613      	mov	r3, r2
 8003076:	005b      	lsls	r3, r3, #1
 8003078:	4413      	add	r3, r2
 800307a:	fa00 f203 	lsl.w	r2, r0, r3
 800307e:	687b      	ldr	r3, [r7, #4]
 8003080:	681b      	ldr	r3, [r3, #0]
 8003082:	430a      	orrs	r2, r1
 8003084:	611a      	str	r2, [r3, #16]
 8003086:	683b      	ldr	r3, [r7, #0]
 8003088:	681b      	ldr	r3, [r3, #0]
 800308a:	2b10      	cmp	r3, #16
 800308c:	d003      	beq.n	8003096 <HAL_ADC_ConfigChannel+0x16a>
 800308e:	683b      	ldr	r3, [r7, #0]
 8003090:	681b      	ldr	r3, [r3, #0]
 8003092:	2b11      	cmp	r3, #17
 8003094:	d132      	bne.n	80030fc <HAL_ADC_ConfigChannel+0x1d0>
 8003096:	687b      	ldr	r3, [r7, #4]
 8003098:	681b      	ldr	r3, [r3, #0]
 800309a:	4a1d      	ldr	r2, [pc, #116]	; (8003110 <HAL_ADC_ConfigChannel+0x1e4>)
 800309c:	4293      	cmp	r3, r2
 800309e:	d125      	bne.n	80030ec <HAL_ADC_ConfigChannel+0x1c0>
 80030a0:	687b      	ldr	r3, [r7, #4]
 80030a2:	681b      	ldr	r3, [r3, #0]
 80030a4:	689b      	ldr	r3, [r3, #8]
 80030a6:	f403 0300 	and.w	r3, r3, #8388608	; 0x800000
 80030aa:	2b00      	cmp	r3, #0
 80030ac:	d126      	bne.n	80030fc <HAL_ADC_ConfigChannel+0x1d0>
 80030ae:	687b      	ldr	r3, [r7, #4]
 80030b0:	681b      	ldr	r3, [r3, #0]
 80030b2:	689a      	ldr	r2, [r3, #8]
 80030b4:	687b      	ldr	r3, [r7, #4]
 80030b6:	681b      	ldr	r3, [r3, #0]
 80030b8:	f442 0200 	orr.w	r2, r2, #8388608	; 0x800000
 80030bc:	609a      	str	r2, [r3, #8]
 80030be:	683b      	ldr	r3, [r7, #0]
 80030c0:	681b      	ldr	r3, [r3, #0]
 80030c2:	2b10      	cmp	r3, #16
 80030c4:	d11a      	bne.n	80030fc <HAL_ADC_ConfigChannel+0x1d0>
 80030c6:	4b13      	ldr	r3, [pc, #76]	; (8003114 <HAL_ADC_ConfigChannel+0x1e8>)
 80030c8:	681b      	ldr	r3, [r3, #0]
 80030ca:	4a13      	ldr	r2, [pc, #76]	; (8003118 <HAL_ADC_ConfigChannel+0x1ec>)
 80030cc:	fba2 2303 	umull	r2, r3, r2, r3
 80030d0:	0c9a      	lsrs	r2, r3, #18
 80030d2:	4613      	mov	r3, r2
 80030d4:	009b      	lsls	r3, r3, #2
 80030d6:	4413      	add	r3, r2
 80030d8:	005b      	lsls	r3, r3, #1
 80030da:	60bb      	str	r3, [r7, #8]
 80030dc:	e002      	b.n	80030e4 <HAL_ADC_ConfigChannel+0x1b8>
 80030de:	68bb      	ldr	r3, [r7, #8]
 80030e0:	3b01      	subs	r3, #1
 80030e2:	60bb      	str	r3, [r7, #8]
 80030e4:	68bb      	ldr	r3, [r7, #8]
 80030e6:	2b00      	cmp	r3, #0
 80030e8:	d1f9      	bne.n	80030de <HAL_ADC_ConfigChannel+0x1b2>
 80030ea:	e007      	b.n	80030fc <HAL_ADC_ConfigChannel+0x1d0>
 80030ec:	687b      	ldr	r3, [r7, #4]
 80030ee:	6a9b      	ldr	r3, [r3, #40]	; 0x28
 80030f0:	f043 0220 	orr.w	r2, r3, #32
 80030f4:	687b      	ldr	r3, [r7, #4]
 80030f6:	629a      	str	r2, [r3, #40]	; 0x28
 80030f8:	2301      	movs	r3, #1
 80030fa:	73fb      	strb	r3, [r7, #15]
 80030fc:	687b      	ldr	r3, [r7, #4]
 80030fe:	2200      	movs	r2, #0
 8003100:	f883 2024 	strb.w	r2, [r3, #36]	; 0x24
 8003104:	7bfb      	ldrb	r3, [r7, #15]
 8003106:	4618      	mov	r0, r3
 8003108:	3714      	adds	r7, #20
 800310a:	46bd      	mov	sp, r7
 800310c:	bc80      	pop	{r7}
 800310e:	4770      	bx	lr
 8003110:	40012400 	.word	0x40012400
 8003114:	20000088 	.word	0x20000088
 8003118:	431bde83 	.word	0x431bde83

0800311c <ADC_ConversionStop_Disable>:
 800311c:	b580      	push	{r7, lr}
 800311e:	b084      	sub	sp, #16
 8003120:	af00      	add	r7, sp, #0
 8003122:	6078      	str	r0, [r7, #4]
 8003124:	2300      	movs	r3, #0
 8003126:	60fb      	str	r3, [r7, #12]
 8003128:	687b      	ldr	r3, [r7, #4]
 800312a:	681b      	ldr	r3, [r3, #0]
 800312c:	689b      	ldr	r3, [r3, #8]
 800312e:	f003 0301 	and.w	r3, r3, #1
 8003132:	2b01      	cmp	r3, #1
 8003134:	d127      	bne.n	8003186 <ADC_ConversionStop_Disable+0x6a>
 8003136:	687b      	ldr	r3, [r7, #4]
 8003138:	681b      	ldr	r3, [r3, #0]
 800313a:	689a      	ldr	r2, [r3, #8]
 800313c:	687b      	ldr	r3, [r7, #4]
 800313e:	681b      	ldr	r3, [r3, #0]
 8003140:	f022 0201 	bic.w	r2, r2, #1
 8003144:	609a      	str	r2, [r3, #8]
 8003146:	f7ff fded 	bl	8002d24 <HAL_GetTick>
 800314a:	60f8      	str	r0, [r7, #12]
 800314c:	e014      	b.n	8003178 <ADC_ConversionStop_Disable+0x5c>
 800314e:	f7ff fde9 	bl	8002d24 <HAL_GetTick>
 8003152:	4602      	mov	r2, r0
 8003154:	68fb      	ldr	r3, [r7, #12]
 8003156:	1ad3      	subs	r3, r2, r3
 8003158:	2b02      	cmp	r3, #2
 800315a:	d90d      	bls.n	8003178 <ADC_ConversionStop_Disable+0x5c>
 800315c:	687b      	ldr	r3, [r7, #4]
 800315e:	6a9b      	ldr	r3, [r3, #40]	; 0x28
 8003160:	f043 0210 	orr.w	r2, r3, #16
 8003164:	687b      	ldr	r3, [r7, #4]
 8003166:	629a      	str	r2, [r3, #40]	; 0x28
 8003168:	687b      	ldr	r3, [r7, #4]
 800316a:	6adb      	ldr	r3, [r3, #44]	; 0x2c
 800316c:	f043 0201 	orr.w	r2, r3, #1
 8003170:	687b      	ldr	r3, [r7, #4]
 8003172:	62da      	str	r2, [r3, #44]	; 0x2c
 8003174:	2301      	movs	r3, #1
 8003176:	e007      	b.n	8003188 <ADC_ConversionStop_Disable+0x6c>
 8003178:	687b      	ldr	r3, [r7, #4]
 800317a:	681b      	ldr	r3, [r3, #0]
 800317c:	689b      	ldr	r3, [r3, #8]
 800317e:	f003 0301 	and.w	r3, r3, #1
 8003182:	2b01      	cmp	r3, #1
 8003184:	d0e3      	beq.n	800314e <ADC_ConversionStop_Disable+0x32>
 8003186:	2300      	movs	r3, #0
 8003188:	4618      	mov	r0, r3
 800318a:	3710      	adds	r7, #16
 800318c:	46bd      	mov	sp, r7
 800318e:	bd80      	pop	{r7, pc}

08003190 <__NVIC_SetPriorityGrouping>:
 8003190:	b480      	push	{r7}
 8003192:	b085      	sub	sp, #20
 8003194:	af00      	add	r7, sp, #0
 8003196:	6078      	str	r0, [r7, #4]
 8003198:	687b      	ldr	r3, [r7, #4]
 800319a:	f003 0307 	and.w	r3, r3, #7
 800319e:	60fb      	str	r3, [r7, #12]
 80031a0:	4b0c      	ldr	r3, [pc, #48]	; (80031d4 <__NVIC_SetPriorityGrouping+0x44>)
 80031a2:	68db      	ldr	r3, [r3, #12]
 80031a4:	60bb      	str	r3, [r7, #8]
 80031a6:	68ba      	ldr	r2, [r7, #8]
 80031a8:	f64f 03ff 	movw	r3, #63743	; 0xf8ff
 80031ac:	4013      	ands	r3, r2
 80031ae:	60bb      	str	r3, [r7, #8]
 80031b0:	68fb      	ldr	r3, [r7, #12]
 80031b2:	021a      	lsls	r2, r3, #8
 80031b4:	68bb      	ldr	r3, [r7, #8]
 80031b6:	4313      	orrs	r3, r2
 80031b8:	f043 63bf 	orr.w	r3, r3, #100139008	; 0x5f80000
 80031bc:	f443 3300 	orr.w	r3, r3, #131072	; 0x20000
 80031c0:	60bb      	str	r3, [r7, #8]
 80031c2:	4a04      	ldr	r2, [pc, #16]	; (80031d4 <__NVIC_SetPriorityGrouping+0x44>)
 80031c4:	68bb      	ldr	r3, [r7, #8]
 80031c6:	60d3      	str	r3, [r2, #12]
 80031c8:	bf00      	nop
 80031ca:	3714      	adds	r7, #20
 80031cc:	46bd      	mov	sp, r7
 80031ce:	bc80      	pop	{r7}
 80031d0:	4770      	bx	lr
 80031d2:	bf00      	nop
 80031d4:	e000ed00 	.word	0xe000ed00

080031d8 <__NVIC_GetPriorityGrouping>:
 80031d8:	b480      	push	{r7}
 80031da:	af00      	add	r7, sp, #0
 80031dc:	4b04      	ldr	r3, [pc, #16]	; (80031f0 <__NVIC_GetPriorityGrouping+0x18>)
 80031de:	68db      	ldr	r3, [r3, #12]
 80031e0:	0a1b      	lsrs	r3, r3, #8
 80031e2:	f003 0307 	and.w	r3, r3, #7
 80031e6:	4618      	mov	r0, r3
 80031e8:	46bd      	mov	sp, r7
 80031ea:	bc80      	pop	{r7}
 80031ec:	4770      	bx	lr
 80031ee:	bf00      	nop
 80031f0:	e000ed00 	.word	0xe000ed00

080031f4 <__NVIC_EnableIRQ>:
 80031f4:	b480      	push	{r7}
 80031f6:	b083      	sub	sp, #12
 80031f8:	af00      	add	r7, sp, #0
 80031fa:	4603      	mov	r3, r0
 80031fc:	71fb      	strb	r3, [r7, #7]
 80031fe:	f997 3007 	ldrsb.w	r3, [r7, #7]
 8003202:	2b00      	cmp	r3, #0
 8003204:	db0b      	blt.n	800321e <__NVIC_EnableIRQ+0x2a>
 8003206:	79fb      	ldrb	r3, [r7, #7]
 8003208:	f003 021f 	and.w	r2, r3, #31
 800320c:	4906      	ldr	r1, [pc, #24]	; (8003228 <__NVIC_EnableIRQ+0x34>)
 800320e:	f997 3007 	ldrsb.w	r3, [r7, #7]
 8003212:	095b      	lsrs	r3, r3, #5
 8003214:	2001      	movs	r0, #1
 8003216:	fa00 f202 	lsl.w	r2, r0, r2
 800321a:	f841 2023 	str.w	r2, [r1, r3, lsl #2]
 800321e:	bf00      	nop
 8003220:	370c      	adds	r7, #12
 8003222:	46bd      	mov	sp, r7
 8003224:	bc80      	pop	{r7}
 8003226:	4770      	bx	lr
 8003228:	e000e100 	.word	0xe000e100

0800322c <__NVIC_SetPriority>:
 800322c:	b480      	push	{r7}
 800322e:	b083      	sub	sp, #12
 8003230:	af00      	add	r7, sp, #0
 8003232:	4603      	mov	r3, r0
 8003234:	6039      	str	r1, [r7, #0]
 8003236:	71fb      	strb	r3, [r7, #7]
 8003238:	f997 3007 	ldrsb.w	r3, [r7, #7]
 800323c:	2b00      	cmp	r3, #0
 800323e:	db0a      	blt.n	8003256 <__NVIC_SetPriority+0x2a>
 8003240:	683b      	ldr	r3, [r7, #0]
 8003242:	b2da      	uxtb	r2, r3
 8003244:	490c      	ldr	r1, [pc, #48]	; (8003278 <__NVIC_SetPriority+0x4c>)
 8003246:	f997 3007 	ldrsb.w	r3, [r7, #7]
 800324a:	0112      	lsls	r2, r2, #4
 800324c:	b2d2      	uxtb	r2, r2
 800324e:	440b      	add	r3, r1
 8003250:	f883 2300 	strb.w	r2, [r3, #768]	; 0x300
 8003254:	e00a      	b.n	800326c <__NVIC_SetPriority+0x40>
 8003256:	683b      	ldr	r3, [r7, #0]
 8003258:	b2da      	uxtb	r2, r3
 800325a:	4908      	ldr	r1, [pc, #32]	; (800327c <__NVIC_SetPriority+0x50>)
 800325c:	79fb      	ldrb	r3, [r7, #7]
 800325e:	f003 030f 	and.w	r3, r3, #15
 8003262:	3b04      	subs	r3, #4
 8003264:	0112      	lsls	r2, r2, #4
 8003266:	b2d2      	uxtb	r2, r2
 8003268:	440b      	add	r3, r1
 800326a:	761a      	strb	r2, [r3, #24]
 800326c:	bf00      	nop
 800326e:	370c      	adds	r7, #12
 8003270:	46bd      	mov	sp, r7
 8003272:	bc80      	pop	{r7}
 8003274:	4770      	bx	lr
 8003276:	bf00      	nop
 8003278:	e000e100 	.word	0xe000e100
 800327c:	e000ed00 	.word	0xe000ed00

08003280 <NVIC_EncodePriority>:
 8003280:	b480      	push	{r7}
 8003282:	b089      	sub	sp, #36	; 0x24
 8003284:	af00      	add	r7, sp, #0
 8003286:	60f8      	str	r0, [r7, #12]
 8003288:	60b9      	str	r1, [r7, #8]
 800328a:	607a      	str	r2, [r7, #4]
 800328c:	68fb      	ldr	r3, [r7, #12]
 800328e:	f003 0307 	and.w	r3, r3, #7
 8003292:	61fb      	str	r3, [r7, #28]
 8003294:	69fb      	ldr	r3, [r7, #28]
 8003296:	f1c3 0307 	rsb	r3, r3, #7
 800329a:	2b04      	cmp	r3, #4
 800329c:	bf28      	it	cs
 800329e:	2304      	movcs	r3, #4
 80032a0:	61bb      	str	r3, [r7, #24]
 80032a2:	69fb      	ldr	r3, [r7, #28]
 80032a4:	3304      	adds	r3, #4
 80032a6:	2b06      	cmp	r3, #6
 80032a8:	d902      	bls.n	80032b0 <NVIC_EncodePriority+0x30>
 80032aa:	69fb      	ldr	r3, [r7, #28]
 80032ac:	3b03      	subs	r3, #3
 80032ae:	e000      	b.n	80032b2 <NVIC_EncodePriority+0x32>
 80032b0:	2300      	movs	r3, #0
 80032b2:	617b      	str	r3, [r7, #20]
 80032b4:	f04f 32ff 	mov.w	r2, #4294967295
 80032b8:	69bb      	ldr	r3, [r7, #24]
 80032ba:	fa02 f303 	lsl.w	r3, r2, r3
 80032be:	43da      	mvns	r2, r3
 80032c0:	68bb      	ldr	r3, [r7, #8]
 80032c2:	401a      	ands	r2, r3
 80032c4:	697b      	ldr	r3, [r7, #20]
 80032c6:	409a      	lsls	r2, r3
 80032c8:	f04f 31ff 	mov.w	r1, #4294967295
 80032cc:	697b      	ldr	r3, [r7, #20]
 80032ce:	fa01 f303 	lsl.w	r3, r1, r3
 80032d2:	43d9      	mvns	r1, r3
 80032d4:	687b      	ldr	r3, [r7, #4]
 80032d6:	400b      	ands	r3, r1
 80032d8:	4313      	orrs	r3, r2
 80032da:	4618      	mov	r0, r3
 80032dc:	3724      	adds	r7, #36	; 0x24
 80032de:	46bd      	mov	sp, r7
 80032e0:	bc80      	pop	{r7}
 80032e2:	4770      	bx	lr

080032e4 <SysTick_Config>:
 80032e4:	b580      	push	{r7, lr}
 80032e6:	b082      	sub	sp, #8
 80032e8:	af00      	add	r7, sp, #0
 80032ea:	6078      	str	r0, [r7, #4]
 80032ec:	687b      	ldr	r3, [r7, #4]
 80032ee:	3b01      	subs	r3, #1
 80032f0:	f1b3 7f80 	cmp.w	r3, #16777216	; 0x1000000
 80032f4:	d301      	bcc.n	80032fa <SysTick_Config+0x16>
 80032f6:	2301      	movs	r3, #1
 80032f8:	e00f      	b.n	800331a <SysTick_Config+0x36>
 80032fa:	4a0a      	ldr	r2, [pc, #40]	; (8003324 <SysTick_Config+0x40>)
 80032fc:	687b      	ldr	r3, [r7, #4]
 80032fe:	3b01      	subs	r3, #1
 8003300:	6053      	str	r3, [r2, #4]
 8003302:	210f      	movs	r1, #15
 8003304:	f04f 30ff 	mov.w	r0, #4294967295
 8003308:	f7ff ff90 	bl	800322c <__NVIC_SetPriority>
 800330c:	4b05      	ldr	r3, [pc, #20]	; (8003324 <SysTick_Config+0x40>)
 800330e:	2200      	movs	r2, #0
 8003310:	609a      	str	r2, [r3, #8]
 8003312:	4b04      	ldr	r3, [pc, #16]	; (8003324 <SysTick_Config+0x40>)
 8003314:	2207      	movs	r2, #7
 8003316:	601a      	str	r2, [r3, #0]
 8003318:	2300      	movs	r3, #0
 800331a:	4618      	mov	r0, r3
 800331c:	3708      	adds	r7, #8
 800331e:	46bd      	mov	sp, r7
 8003320:	bd80      	pop	{r7, pc}
 8003322:	bf00      	nop
 8003324:	e000e010 	.word	0xe000e010

08003328 <HAL_NVIC_SetPriorityGrouping>:
 8003328:	b580      	push	{r7, lr}
 800332a:	b082      	sub	sp, #8
 800332c:	af00      	add	r7, sp, #0
 800332e:	6078      	str	r0, [r7, #4]
 8003330:	6878      	ldr	r0, [r7, #4]
 8003332:	f7ff ff2d 	bl	8003190 <__NVIC_SetPriorityGrouping>
 8003336:	bf00      	nop
 8003338:	3708      	adds	r7, #8
 800333a:	46bd      	mov	sp, r7
 800333c:	bd80      	pop	{r7, pc}

0800333e <HAL_NVIC_SetPriority>:
 800333e:	b580      	push	{r7, lr}
 8003340:	b086      	sub	sp, #24
 8003342:	af00      	add	r7, sp, #0
 8003344:	4603      	mov	r3, r0
 8003346:	60b9      	str	r1, [r7, #8]
 8003348:	607a      	str	r2, [r7, #4]
 800334a:	73fb      	strb	r3, [r7, #15]
 800334c:	2300      	movs	r3, #0
 800334e:	617b      	str	r3, [r7, #20]
 8003350:	f7ff ff42 	bl	80031d8 <__NVIC_GetPriorityGrouping>
 8003354:	6178      	str	r0, [r7, #20]
 8003356:	687a      	ldr	r2, [r7, #4]
 8003358:	68b9      	ldr	r1, [r7, #8]
 800335a:	6978      	ldr	r0, [r7, #20]
 800335c:	f7ff ff90 	bl	8003280 <NVIC_EncodePriority>
 8003360:	4602      	mov	r2, r0
 8003362:	f997 300f 	ldrsb.w	r3, [r7, #15]
 8003366:	4611      	mov	r1, r2
 8003368:	4618      	mov	r0, r3
 800336a:	f7ff ff5f 	bl	800322c <__NVIC_SetPriority>
 800336e:	bf00      	nop
 8003370:	3718      	adds	r7, #24
 8003372:	46bd      	mov	sp, r7
 8003374:	bd80      	pop	{r7, pc}

08003376 <HAL_NVIC_EnableIRQ>:
 8003376:	b580      	push	{r7, lr}
 8003378:	b082      	sub	sp, #8
 800337a:	af00      	add	r7, sp, #0
 800337c:	4603      	mov	r3, r0
 800337e:	71fb      	strb	r3, [r7, #7]
 8003380:	f997 3007 	ldrsb.w	r3, [r7, #7]
 8003384:	4618      	mov	r0, r3
 8003386:	f7ff ff35 	bl	80031f4 <__NVIC_EnableIRQ>
 800338a:	bf00      	nop
 800338c:	3708      	adds	r7, #8
 800338e:	46bd      	mov	sp, r7
 8003390:	bd80      	pop	{r7, pc}

08003392 <HAL_SYSTICK_Config>:
 8003392:	b580      	push	{r7, lr}
 8003394:	b082      	sub	sp, #8
 8003396:	af00      	add	r7, sp, #0
 8003398:	6078      	str	r0, [r7, #4]
 800339a:	6878      	ldr	r0, [r7, #4]
 800339c:	f7ff ffa2 	bl	80032e4 <SysTick_Config>
 80033a0:	4603      	mov	r3, r0
 80033a2:	4618      	mov	r0, r3
 80033a4:	3708      	adds	r7, #8
 80033a6:	46bd      	mov	sp, r7
 80033a8:	bd80      	pop	{r7, pc}
	...

080033ac <HAL_GPIO_Init>:
 80033ac:	b480      	push	{r7}
 80033ae:	b08b      	sub	sp, #44	; 0x2c
 80033b0:	af00      	add	r7, sp, #0
 80033b2:	6078      	str	r0, [r7, #4]
 80033b4:	6039      	str	r1, [r7, #0]
 80033b6:	2300      	movs	r3, #0
 80033b8:	627b      	str	r3, [r7, #36]	; 0x24
 80033ba:	2300      	movs	r3, #0
 80033bc:	623b      	str	r3, [r7, #32]
 80033be:	e127      	b.n	8003610 <HAL_GPIO_Init+0x264>
 80033c0:	2201      	movs	r2, #1
 80033c2:	6a7b      	ldr	r3, [r7, #36]	; 0x24
 80033c4:	fa02 f303 	lsl.w	r3, r2, r3
 80033c8:	61fb      	str	r3, [r7, #28]
 80033ca:	683b      	ldr	r3, [r7, #0]
 80033cc:	681b      	ldr	r3, [r3, #0]
 80033ce:	69fa      	ldr	r2, [r7, #28]
 80033d0:	4013      	ands	r3, r2
 80033d2:	61bb      	str	r3, [r7, #24]
 80033d4:	69ba      	ldr	r2, [r7, #24]
 80033d6:	69fb      	ldr	r3, [r7, #28]
 80033d8:	429a      	cmp	r2, r3
 80033da:	f040 8116 	bne.w	800360a <HAL_GPIO_Init+0x25e>
 80033de:	683b      	ldr	r3, [r7, #0]
 80033e0:	685b      	ldr	r3, [r3, #4]
 80033e2:	2b12      	cmp	r3, #18
 80033e4:	d034      	beq.n	8003450 <HAL_GPIO_Init+0xa4>
 80033e6:	2b12      	cmp	r3, #18
 80033e8:	d80d      	bhi.n	8003406 <HAL_GPIO_Init+0x5a>
 80033ea:	2b02      	cmp	r3, #2
 80033ec:	d02b      	beq.n	8003446 <HAL_GPIO_Init+0x9a>
 80033ee:	2b02      	cmp	r3, #2
 80033f0:	d804      	bhi.n	80033fc <HAL_GPIO_Init+0x50>
 80033f2:	2b00      	cmp	r3, #0
 80033f4:	d031      	beq.n	800345a <HAL_GPIO_Init+0xae>
 80033f6:	2b01      	cmp	r3, #1
 80033f8:	d01c      	beq.n	8003434 <HAL_GPIO_Init+0x88>
 80033fa:	e048      	b.n	800348e <HAL_GPIO_Init+0xe2>
 80033fc:	2b03      	cmp	r3, #3
 80033fe:	d043      	beq.n	8003488 <HAL_GPIO_Init+0xdc>
 8003400:	2b11      	cmp	r3, #17
 8003402:	d01b      	beq.n	800343c <HAL_GPIO_Init+0x90>
 8003404:	e043      	b.n	800348e <HAL_GPIO_Init+0xe2>
 8003406:	4a89      	ldr	r2, [pc, #548]	; (800362c <HAL_GPIO_Init+0x280>)
 8003408:	4293      	cmp	r3, r2
 800340a:	d026      	beq.n	800345a <HAL_GPIO_Init+0xae>
 800340c:	4a87      	ldr	r2, [pc, #540]	; (800362c <HAL_GPIO_Init+0x280>)
 800340e:	4293      	cmp	r3, r2
 8003410:	d806      	bhi.n	8003420 <HAL_GPIO_Init+0x74>
 8003412:	4a87      	ldr	r2, [pc, #540]	; (8003630 <HAL_GPIO_Init+0x284>)
 8003414:	4293      	cmp	r3, r2
 8003416:	d020      	beq.n	800345a <HAL_GPIO_Init+0xae>
 8003418:	4a86      	ldr	r2, [pc, #536]	; (8003634 <HAL_GPIO_Init+0x288>)
 800341a:	4293      	cmp	r3, r2
 800341c:	d01d      	beq.n	800345a <HAL_GPIO_Init+0xae>
 800341e:	e036      	b.n	800348e <HAL_GPIO_Init+0xe2>
 8003420:	4a85      	ldr	r2, [pc, #532]	; (8003638 <HAL_GPIO_Init+0x28c>)
 8003422:	4293      	cmp	r3, r2
 8003424:	d019      	beq.n	800345a <HAL_GPIO_Init+0xae>
 8003426:	4a85      	ldr	r2, [pc, #532]	; (800363c <HAL_GPIO_Init+0x290>)
 8003428:	4293      	cmp	r3, r2
 800342a:	d016      	beq.n	800345a <HAL_GPIO_Init+0xae>
 800342c:	4a84      	ldr	r2, [pc, #528]	; (8003640 <HAL_GPIO_Init+0x294>)
 800342e:	4293      	cmp	r3, r2
 8003430:	d013      	beq.n	800345a <HAL_GPIO_Init+0xae>
 8003432:	e02c      	b.n	800348e <HAL_GPIO_Init+0xe2>
 8003434:	683b      	ldr	r3, [r7, #0]
 8003436:	68db      	ldr	r3, [r3, #12]
 8003438:	623b      	str	r3, [r7, #32]
 800343a:	e028      	b.n	800348e <HAL_GPIO_Init+0xe2>
 800343c:	683b      	ldr	r3, [r7, #0]
 800343e:	68db      	ldr	r3, [r3, #12]
 8003440:	3304      	adds	r3, #4
 8003442:	623b      	str	r3, [r7, #32]
 8003444:	e023      	b.n	800348e <HAL_GPIO_Init+0xe2>
 8003446:	683b      	ldr	r3, [r7, #0]
 8003448:	68db      	ldr	r3, [r3, #12]
 800344a:	3308      	adds	r3, #8
 800344c:	623b      	str	r3, [r7, #32]
 800344e:	e01e      	b.n	800348e <HAL_GPIO_Init+0xe2>
 8003450:	683b      	ldr	r3, [r7, #0]
 8003452:	68db      	ldr	r3, [r3, #12]
 8003454:	330c      	adds	r3, #12
 8003456:	623b      	str	r3, [r7, #32]
 8003458:	e019      	b.n	800348e <HAL_GPIO_Init+0xe2>
 800345a:	683b      	ldr	r3, [r7, #0]
 800345c:	689b      	ldr	r3, [r3, #8]
 800345e:	2b00      	cmp	r3, #0
 8003460:	d102      	bne.n	8003468 <HAL_GPIO_Init+0xbc>
 8003462:	2304      	movs	r3, #4
 8003464:	623b      	str	r3, [r7, #32]
 8003466:	e012      	b.n	800348e <HAL_GPIO_Init+0xe2>
 8003468:	683b      	ldr	r3, [r7, #0]
 800346a:	689b      	ldr	r3, [r3, #8]
 800346c:	2b01      	cmp	r3, #1
 800346e:	d105      	bne.n	800347c <HAL_GPIO_Init+0xd0>
 8003470:	2308      	movs	r3, #8
 8003472:	623b      	str	r3, [r7, #32]
 8003474:	687b      	ldr	r3, [r7, #4]
 8003476:	69fa      	ldr	r2, [r7, #28]
 8003478:	611a      	str	r2, [r3, #16]
 800347a:	e008      	b.n	800348e <HAL_GPIO_Init+0xe2>
 800347c:	2308      	movs	r3, #8
 800347e:	623b      	str	r3, [r7, #32]
 8003480:	687b      	ldr	r3, [r7, #4]
 8003482:	69fa      	ldr	r2, [r7, #28]
 8003484:	615a      	str	r2, [r3, #20]
 8003486:	e002      	b.n	800348e <HAL_GPIO_Init+0xe2>
 8003488:	2300      	movs	r3, #0
 800348a:	623b      	str	r3, [r7, #32]
 800348c:	bf00      	nop
 800348e:	69bb      	ldr	r3, [r7, #24]
 8003490:	2bff      	cmp	r3, #255	; 0xff
 8003492:	d801      	bhi.n	8003498 <HAL_GPIO_Init+0xec>
 8003494:	687b      	ldr	r3, [r7, #4]
 8003496:	e001      	b.n	800349c <HAL_GPIO_Init+0xf0>
 8003498:	687b      	ldr	r3, [r7, #4]
 800349a:	3304      	adds	r3, #4
 800349c:	617b      	str	r3, [r7, #20]
 800349e:	69bb      	ldr	r3, [r7, #24]
 80034a0:	2bff      	cmp	r3, #255	; 0xff
 80034a2:	d802      	bhi.n	80034aa <HAL_GPIO_Init+0xfe>
 80034a4:	6a7b      	ldr	r3, [r7, #36]	; 0x24
 80034a6:	009b      	lsls	r3, r3, #2
 80034a8:	e002      	b.n	80034b0 <HAL_GPIO_Init+0x104>
 80034aa:	6a7b      	ldr	r3, [r7, #36]	; 0x24
 80034ac:	3b08      	subs	r3, #8
 80034ae:	009b      	lsls	r3, r3, #2
 80034b0:	613b      	str	r3, [r7, #16]
 80034b2:	697b      	ldr	r3, [r7, #20]
 80034b4:	681a      	ldr	r2, [r3, #0]
 80034b6:	210f      	movs	r1, #15
 80034b8:	693b      	ldr	r3, [r7, #16]
 80034ba:	fa01 f303 	lsl.w	r3, r1, r3
 80034be:	43db      	mvns	r3, r3
 80034c0:	401a      	ands	r2, r3
 80034c2:	6a39      	ldr	r1, [r7, #32]
 80034c4:	693b      	ldr	r3, [r7, #16]
 80034c6:	fa01 f303 	lsl.w	r3, r1, r3
 80034ca:	431a      	orrs	r2, r3
 80034cc:	697b      	ldr	r3, [r7, #20]
 80034ce:	601a      	str	r2, [r3, #0]
 80034d0:	683b      	ldr	r3, [r7, #0]
 80034d2:	685b      	ldr	r3, [r3, #4]
 80034d4:	f003 5380 	and.w	r3, r3, #268435456	; 0x10000000
 80034d8:	2b00      	cmp	r3, #0
 80034da:	f000 8096 	beq.w	800360a <HAL_GPIO_Init+0x25e>
 80034de:	4b59      	ldr	r3, [pc, #356]	; (8003644 <HAL_GPIO_Init+0x298>)
 80034e0:	699b      	ldr	r3, [r3, #24]
 80034e2:	4a58      	ldr	r2, [pc, #352]	; (8003644 <HAL_GPIO_Init+0x298>)
 80034e4:	f043 0301 	orr.w	r3, r3, #1
 80034e8:	6193      	str	r3, [r2, #24]
 80034ea:	4b56      	ldr	r3, [pc, #344]	; (8003644 <HAL_GPIO_Init+0x298>)
 80034ec:	699b      	ldr	r3, [r3, #24]
 80034ee:	f003 0301 	and.w	r3, r3, #1
 80034f2:	60bb      	str	r3, [r7, #8]
 80034f4:	68bb      	ldr	r3, [r7, #8]
 80034f6:	4a54      	ldr	r2, [pc, #336]	; (8003648 <HAL_GPIO_Init+0x29c>)
 80034f8:	6a7b      	ldr	r3, [r7, #36]	; 0x24
 80034fa:	089b      	lsrs	r3, r3, #2
 80034fc:	3302      	adds	r3, #2
 80034fe:	f852 3023 	ldr.w	r3, [r2, r3, lsl #2]
 8003502:	60fb      	str	r3, [r7, #12]
 8003504:	6a7b      	ldr	r3, [r7, #36]	; 0x24
 8003506:	f003 0303 	and.w	r3, r3, #3
 800350a:	009b      	lsls	r3, r3, #2
 800350c:	220f      	movs	r2, #15
 800350e:	fa02 f303 	lsl.w	r3, r2, r3
 8003512:	43db      	mvns	r3, r3
 8003514:	68fa      	ldr	r2, [r7, #12]
 8003516:	4013      	ands	r3, r2
 8003518:	60fb      	str	r3, [r7, #12]
 800351a:	687b      	ldr	r3, [r7, #4]
 800351c:	4a4b      	ldr	r2, [pc, #300]	; (800364c <HAL_GPIO_Init+0x2a0>)
 800351e:	4293      	cmp	r3, r2
 8003520:	d013      	beq.n	800354a <HAL_GPIO_Init+0x19e>
 8003522:	687b      	ldr	r3, [r7, #4]
 8003524:	4a4a      	ldr	r2, [pc, #296]	; (8003650 <HAL_GPIO_Init+0x2a4>)
 8003526:	4293      	cmp	r3, r2
 8003528:	d00d      	beq.n	8003546 <HAL_GPIO_Init+0x19a>
 800352a:	687b      	ldr	r3, [r7, #4]
 800352c:	4a49      	ldr	r2, [pc, #292]	; (8003654 <HAL_GPIO_Init+0x2a8>)
 800352e:	4293      	cmp	r3, r2
 8003530:	d007      	beq.n	8003542 <HAL_GPIO_Init+0x196>
 8003532:	687b      	ldr	r3, [r7, #4]
 8003534:	4a48      	ldr	r2, [pc, #288]	; (8003658 <HAL_GPIO_Init+0x2ac>)
 8003536:	4293      	cmp	r3, r2
 8003538:	d101      	bne.n	800353e <HAL_GPIO_Init+0x192>
 800353a:	2303      	movs	r3, #3
 800353c:	e006      	b.n	800354c <HAL_GPIO_Init+0x1a0>
 800353e:	2304      	movs	r3, #4
 8003540:	e004      	b.n	800354c <HAL_GPIO_Init+0x1a0>
 8003542:	2302      	movs	r3, #2
 8003544:	e002      	b.n	800354c <HAL_GPIO_Init+0x1a0>
 8003546:	2301      	movs	r3, #1
 8003548:	e000      	b.n	800354c <HAL_GPIO_Init+0x1a0>
 800354a:	2300      	movs	r3, #0
 800354c:	6a7a      	ldr	r2, [r7, #36]	; 0x24
 800354e:	f002 0203 	and.w	r2, r2, #3
 8003552:	0092      	lsls	r2, r2, #2
 8003554:	4093      	lsls	r3, r2
 8003556:	68fa      	ldr	r2, [r7, #12]
 8003558:	4313      	orrs	r3, r2
 800355a:	60fb      	str	r3, [r7, #12]
 800355c:	493a      	ldr	r1, [pc, #232]	; (8003648 <HAL_GPIO_Init+0x29c>)
 800355e:	6a7b      	ldr	r3, [r7, #36]	; 0x24
 8003560:	089b      	lsrs	r3, r3, #2
 8003562:	3302      	adds	r3, #2
 8003564:	68fa      	ldr	r2, [r7, #12]
 8003566:	f841 2023 	str.w	r2, [r1, r3, lsl #2]
 800356a:	683b      	ldr	r3, [r7, #0]
 800356c:	685b      	ldr	r3, [r3, #4]
 800356e:	f403 3380 	and.w	r3, r3, #65536	; 0x10000
 8003572:	2b00      	cmp	r3, #0
 8003574:	d006      	beq.n	8003584 <HAL_GPIO_Init+0x1d8>
 8003576:	4b39      	ldr	r3, [pc, #228]	; (800365c <HAL_GPIO_Init+0x2b0>)
 8003578:	681a      	ldr	r2, [r3, #0]
 800357a:	4938      	ldr	r1, [pc, #224]	; (800365c <HAL_GPIO_Init+0x2b0>)
 800357c:	69bb      	ldr	r3, [r7, #24]
 800357e:	4313      	orrs	r3, r2
 8003580:	600b      	str	r3, [r1, #0]
 8003582:	e006      	b.n	8003592 <HAL_GPIO_Init+0x1e6>
 8003584:	4b35      	ldr	r3, [pc, #212]	; (800365c <HAL_GPIO_Init+0x2b0>)
 8003586:	681a      	ldr	r2, [r3, #0]
 8003588:	69bb      	ldr	r3, [r7, #24]
 800358a:	43db      	mvns	r3, r3
 800358c:	4933      	ldr	r1, [pc, #204]	; (800365c <HAL_GPIO_Init+0x2b0>)
 800358e:	4013      	ands	r3, r2
 8003590:	600b      	str	r3, [r1, #0]
 8003592:	683b      	ldr	r3, [r7, #0]
 8003594:	685b      	ldr	r3, [r3, #4]
 8003596:	f403 3300 	and.w	r3, r3, #131072	; 0x20000
 800359a:	2b00      	cmp	r3, #0
 800359c:	d006      	beq.n	80035ac <HAL_GPIO_Init+0x200>
 800359e:	4b2f      	ldr	r3, [pc, #188]	; (800365c <HAL_GPIO_Init+0x2b0>)
 80035a0:	685a      	ldr	r2, [r3, #4]
 80035a2:	492e      	ldr	r1, [pc, #184]	; (800365c <HAL_GPIO_Init+0x2b0>)
 80035a4:	69bb      	ldr	r3, [r7, #24]
 80035a6:	4313      	orrs	r3, r2
 80035a8:	604b      	str	r3, [r1, #4]
 80035aa:	e006      	b.n	80035ba <HAL_GPIO_Init+0x20e>
 80035ac:	4b2b      	ldr	r3, [pc, #172]	; (800365c <HAL_GPIO_Init+0x2b0>)
 80035ae:	685a      	ldr	r2, [r3, #4]
 80035b0:	69bb      	ldr	r3, [r7, #24]
 80035b2:	43db      	mvns	r3, r3
 80035b4:	4929      	ldr	r1, [pc, #164]	; (800365c <HAL_GPIO_Init+0x2b0>)
 80035b6:	4013      	ands	r3, r2
 80035b8:	604b      	str	r3, [r1, #4]
 80035ba:	683b      	ldr	r3, [r7, #0]
 80035bc:	685b      	ldr	r3, [r3, #4]
 80035be:	f403 1380 	and.w	r3, r3, #1048576	; 0x100000
 80035c2:	2b00      	cmp	r3, #0
 80035c4:	d006      	beq.n	80035d4 <HAL_GPIO_Init+0x228>
 80035c6:	4b25      	ldr	r3, [pc, #148]	; (800365c <HAL_GPIO_Init+0x2b0>)
 80035c8:	689a      	ldr	r2, [r3, #8]
 80035ca:	4924      	ldr	r1, [pc, #144]	; (800365c <HAL_GPIO_Init+0x2b0>)
 80035cc:	69bb      	ldr	r3, [r7, #24]
 80035ce:	4313      	orrs	r3, r2
 80035d0:	608b      	str	r3, [r1, #8]
 80035d2:	e006      	b.n	80035e2 <HAL_GPIO_Init+0x236>
 80035d4:	4b21      	ldr	r3, [pc, #132]	; (800365c <HAL_GPIO_Init+0x2b0>)
 80035d6:	689a      	ldr	r2, [r3, #8]
 80035d8:	69bb      	ldr	r3, [r7, #24]
 80035da:	43db      	mvns	r3, r3
 80035dc:	491f      	ldr	r1, [pc, #124]	; (800365c <HAL_GPIO_Init+0x2b0>)
 80035de:	4013      	ands	r3, r2
 80035e0:	608b      	str	r3, [r1, #8]
 80035e2:	683b      	ldr	r3, [r7, #0]
 80035e4:	685b      	ldr	r3, [r3, #4]
 80035e6:	f403 1300 	and.w	r3, r3, #2097152	; 0x200000
 80035ea:	2b00      	cmp	r3, #0
 80035ec:	d006      	beq.n	80035fc <HAL_GPIO_Init+0x250>
 80035ee:	4b1b      	ldr	r3, [pc, #108]	; (800365c <HAL_GPIO_Init+0x2b0>)
 80035f0:	68da      	ldr	r2, [r3, #12]
 80035f2:	491a      	ldr	r1, [pc, #104]	; (800365c <HAL_GPIO_Init+0x2b0>)
 80035f4:	69bb      	ldr	r3, [r7, #24]
 80035f6:	4313      	orrs	r3, r2
 80035f8:	60cb      	str	r3, [r1, #12]
 80035fa:	e006      	b.n	800360a <HAL_GPIO_Init+0x25e>
 80035fc:	4b17      	ldr	r3, [pc, #92]	; (800365c <HAL_GPIO_Init+0x2b0>)
 80035fe:	68da      	ldr	r2, [r3, #12]
 8003600:	69bb      	ldr	r3, [r7, #24]
 8003602:	43db      	mvns	r3, r3
 8003604:	4915      	ldr	r1, [pc, #84]	; (800365c <HAL_GPIO_Init+0x2b0>)
 8003606:	4013      	ands	r3, r2
 8003608:	60cb      	str	r3, [r1, #12]
 800360a:	6a7b      	ldr	r3, [r7, #36]	; 0x24
 800360c:	3301      	adds	r3, #1
 800360e:	627b      	str	r3, [r7, #36]	; 0x24
 8003610:	683b      	ldr	r3, [r7, #0]
 8003612:	681a      	ldr	r2, [r3, #0]
 8003614:	6a7b      	ldr	r3, [r7, #36]	; 0x24
 8003616:	fa22 f303 	lsr.w	r3, r2, r3
 800361a:	2b00      	cmp	r3, #0
 800361c:	f47f aed0 	bne.w	80033c0 <HAL_GPIO_Init+0x14>
 8003620:	bf00      	nop
 8003622:	372c      	adds	r7, #44	; 0x2c
 8003624:	46bd      	mov	sp, r7
 8003626:	bc80      	pop	{r7}
 8003628:	4770      	bx	lr
 800362a:	bf00      	nop
 800362c:	10210000 	.word	0x10210000
 8003630:	10110000 	.word	0x10110000
 8003634:	10120000 	.word	0x10120000
 8003638:	10310000 	.word	0x10310000
 800363c:	10320000 	.word	0x10320000
 8003640:	10220000 	.word	0x10220000
 8003644:	40021000 	.word	0x40021000
 8003648:	40010000 	.word	0x40010000
 800364c:	40010800 	.word	0x40010800
 8003650:	40010c00 	.word	0x40010c00
 8003654:	40011000 	.word	0x40011000
 8003658:	40011400 	.word	0x40011400
 800365c:	40010400 	.word	0x40010400

08003660 <HAL_GPIO_ReadPin>:
 8003660:	b480      	push	{r7}
 8003662:	b085      	sub	sp, #20
 8003664:	af00      	add	r7, sp, #0
 8003666:	6078      	str	r0, [r7, #4]
 8003668:	460b      	mov	r3, r1
 800366a:	807b      	strh	r3, [r7, #2]
 800366c:	687b      	ldr	r3, [r7, #4]
 800366e:	689a      	ldr	r2, [r3, #8]
 8003670:	887b      	ldrh	r3, [r7, #2]
 8003672:	4013      	ands	r3, r2
 8003674:	2b00      	cmp	r3, #0
 8003676:	d002      	beq.n	800367e <HAL_GPIO_ReadPin+0x1e>
 8003678:	2301      	movs	r3, #1
 800367a:	73fb      	strb	r3, [r7, #15]
 800367c:	e001      	b.n	8003682 <HAL_GPIO_ReadPin+0x22>
 800367e:	2300      	movs	r3, #0
 8003680:	73fb      	strb	r3, [r7, #15]
 8003682:	7bfb      	ldrb	r3, [r7, #15]
 8003684:	4618      	mov	r0, r3
 8003686:	3714      	adds	r7, #20
 8003688:	46bd      	mov	sp, r7
 800368a:	bc80      	pop	{r7}
 800368c:	4770      	bx	lr

0800368e <HAL_GPIO_WritePin>:
 800368e:	b480      	push	{r7}
 8003690:	b083      	sub	sp, #12
 8003692:	af00      	add	r7, sp, #0
 8003694:	6078      	str	r0, [r7, #4]
 8003696:	460b      	mov	r3, r1
 8003698:	807b      	strh	r3, [r7, #2]
 800369a:	4613      	mov	r3, r2
 800369c:	707b      	strb	r3, [r7, #1]
 800369e:	787b      	ldrb	r3, [r7, #1]
 80036a0:	2b00      	cmp	r3, #0
 80036a2:	d003      	beq.n	80036ac <HAL_GPIO_WritePin+0x1e>
 80036a4:	887a      	ldrh	r2, [r7, #2]
 80036a6:	687b      	ldr	r3, [r7, #4]
 80036a8:	611a      	str	r2, [r3, #16]
 80036aa:	e003      	b.n	80036b4 <HAL_GPIO_WritePin+0x26>
 80036ac:	887b      	ldrh	r3, [r7, #2]
 80036ae:	041a      	lsls	r2, r3, #16
 80036b0:	687b      	ldr	r3, [r7, #4]
 80036b2:	611a      	str	r2, [r3, #16]
 80036b4:	bf00      	nop
 80036b6:	370c      	adds	r7, #12
 80036b8:	46bd      	mov	sp, r7
 80036ba:	bc80      	pop	{r7}
 80036bc:	4770      	bx	lr
	...

080036c0 <HAL_PWR_EnableBkUpAccess>:
 80036c0:	b480      	push	{r7}
 80036c2:	af00      	add	r7, sp, #0
 80036c4:	4b03      	ldr	r3, [pc, #12]	; (80036d4 <HAL_PWR_EnableBkUpAccess+0x14>)
 80036c6:	2201      	movs	r2, #1
 80036c8:	601a      	str	r2, [r3, #0]
 80036ca:	bf00      	nop
 80036cc:	46bd      	mov	sp, r7
 80036ce:	bc80      	pop	{r7}
 80036d0:	4770      	bx	lr
 80036d2:	bf00      	nop
 80036d4:	420e0020 	.word	0x420e0020

080036d8 <HAL_RCC_OscConfig>:
 80036d8:	b580      	push	{r7, lr}
 80036da:	b086      	sub	sp, #24
 80036dc:	af00      	add	r7, sp, #0
 80036de:	6078      	str	r0, [r7, #4]
 80036e0:	687b      	ldr	r3, [r7, #4]
 80036e2:	2b00      	cmp	r3, #0
 80036e4:	d101      	bne.n	80036ea <HAL_RCC_OscConfig+0x12>
 80036e6:	2301      	movs	r3, #1
 80036e8:	e26c      	b.n	8003bc4 <HAL_RCC_OscConfig+0x4ec>
 80036ea:	687b      	ldr	r3, [r7, #4]
 80036ec:	681b      	ldr	r3, [r3, #0]
 80036ee:	f003 0301 	and.w	r3, r3, #1
 80036f2:	2b00      	cmp	r3, #0
 80036f4:	f000 8087 	beq.w	8003806 <HAL_RCC_OscConfig+0x12e>
 80036f8:	4b92      	ldr	r3, [pc, #584]	; (8003944 <HAL_RCC_OscConfig+0x26c>)
 80036fa:	685b      	ldr	r3, [r3, #4]
 80036fc:	f003 030c 	and.w	r3, r3, #12
 8003700:	2b04      	cmp	r3, #4
 8003702:	d00c      	beq.n	800371e <HAL_RCC_OscConfig+0x46>
 8003704:	4b8f      	ldr	r3, [pc, #572]	; (8003944 <HAL_RCC_OscConfig+0x26c>)
 8003706:	685b      	ldr	r3, [r3, #4]
 8003708:	f003 030c 	and.w	r3, r3, #12
 800370c:	2b08      	cmp	r3, #8
 800370e:	d112      	bne.n	8003736 <HAL_RCC_OscConfig+0x5e>
 8003710:	4b8c      	ldr	r3, [pc, #560]	; (8003944 <HAL_RCC_OscConfig+0x26c>)
 8003712:	685b      	ldr	r3, [r3, #4]
 8003714:	f403 3380 	and.w	r3, r3, #65536	; 0x10000
 8003718:	f5b3 3f80 	cmp.w	r3, #65536	; 0x10000
 800371c:	d10b      	bne.n	8003736 <HAL_RCC_OscConfig+0x5e>
 800371e:	4b89      	ldr	r3, [pc, #548]	; (8003944 <HAL_RCC_OscConfig+0x26c>)
 8003720:	681b      	ldr	r3, [r3, #0]
 8003722:	f403 3300 	and.w	r3, r3, #131072	; 0x20000
 8003726:	2b00      	cmp	r3, #0
 8003728:	d06c      	beq.n	8003804 <HAL_RCC_OscConfig+0x12c>
 800372a:	687b      	ldr	r3, [r7, #4]
 800372c:	685b      	ldr	r3, [r3, #4]
 800372e:	2b00      	cmp	r3, #0
 8003730:	d168      	bne.n	8003804 <HAL_RCC_OscConfig+0x12c>
 8003732:	2301      	movs	r3, #1
 8003734:	e246      	b.n	8003bc4 <HAL_RCC_OscConfig+0x4ec>
 8003736:	687b      	ldr	r3, [r7, #4]
 8003738:	685b      	ldr	r3, [r3, #4]
 800373a:	f5b3 3f80 	cmp.w	r3, #65536	; 0x10000
 800373e:	d106      	bne.n	800374e <HAL_RCC_OscConfig+0x76>
 8003740:	4b80      	ldr	r3, [pc, #512]	; (8003944 <HAL_RCC_OscConfig+0x26c>)
 8003742:	681b      	ldr	r3, [r3, #0]
 8003744:	4a7f      	ldr	r2, [pc, #508]	; (8003944 <HAL_RCC_OscConfig+0x26c>)
 8003746:	f443 3380 	orr.w	r3, r3, #65536	; 0x10000
 800374a:	6013      	str	r3, [r2, #0]
 800374c:	e02e      	b.n	80037ac <HAL_RCC_OscConfig+0xd4>
 800374e:	687b      	ldr	r3, [r7, #4]
 8003750:	685b      	ldr	r3, [r3, #4]
 8003752:	2b00      	cmp	r3, #0
 8003754:	d10c      	bne.n	8003770 <HAL_RCC_OscConfig+0x98>
 8003756:	4b7b      	ldr	r3, [pc, #492]	; (8003944 <HAL_RCC_OscConfig+0x26c>)
 8003758:	681b      	ldr	r3, [r3, #0]
 800375a:	4a7a      	ldr	r2, [pc, #488]	; (8003944 <HAL_RCC_OscConfig+0x26c>)
 800375c:	f423 3380 	bic.w	r3, r3, #65536	; 0x10000
 8003760:	6013      	str	r3, [r2, #0]
 8003762:	4b78      	ldr	r3, [pc, #480]	; (8003944 <HAL_RCC_OscConfig+0x26c>)
 8003764:	681b      	ldr	r3, [r3, #0]
 8003766:	4a77      	ldr	r2, [pc, #476]	; (8003944 <HAL_RCC_OscConfig+0x26c>)
 8003768:	f423 2380 	bic.w	r3, r3, #262144	; 0x40000
 800376c:	6013      	str	r3, [r2, #0]
 800376e:	e01d      	b.n	80037ac <HAL_RCC_OscConfig+0xd4>
 8003770:	687b      	ldr	r3, [r7, #4]
 8003772:	685b      	ldr	r3, [r3, #4]
 8003774:	f5b3 2fa0 	cmp.w	r3, #327680	; 0x50000
 8003778:	d10c      	bne.n	8003794 <HAL_RCC_OscConfig+0xbc>
 800377a:	4b72      	ldr	r3, [pc, #456]	; (8003944 <HAL_RCC_OscConfig+0x26c>)
 800377c:	681b      	ldr	r3, [r3, #0]
 800377e:	4a71      	ldr	r2, [pc, #452]	; (8003944 <HAL_RCC_OscConfig+0x26c>)
 8003780:	f443 2380 	orr.w	r3, r3, #262144	; 0x40000
 8003784:	6013      	str	r3, [r2, #0]
 8003786:	4b6f      	ldr	r3, [pc, #444]	; (8003944 <HAL_RCC_OscConfig+0x26c>)
 8003788:	681b      	ldr	r3, [r3, #0]
 800378a:	4a6e      	ldr	r2, [pc, #440]	; (8003944 <HAL_RCC_OscConfig+0x26c>)
 800378c:	f443 3380 	orr.w	r3, r3, #65536	; 0x10000
 8003790:	6013      	str	r3, [r2, #0]
 8003792:	e00b      	b.n	80037ac <HAL_RCC_OscConfig+0xd4>
 8003794:	4b6b      	ldr	r3, [pc, #428]	; (8003944 <HAL_RCC_OscConfig+0x26c>)
 8003796:	681b      	ldr	r3, [r3, #0]
 8003798:	4a6a      	ldr	r2, [pc, #424]	; (8003944 <HAL_RCC_OscConfig+0x26c>)
 800379a:	f423 3380 	bic.w	r3, r3, #65536	; 0x10000
 800379e:	6013      	str	r3, [r2, #0]
 80037a0:	4b68      	ldr	r3, [pc, #416]	; (8003944 <HAL_RCC_OscConfig+0x26c>)
 80037a2:	681b      	ldr	r3, [r3, #0]
 80037a4:	4a67      	ldr	r2, [pc, #412]	; (8003944 <HAL_RCC_OscConfig+0x26c>)
 80037a6:	f423 2380 	bic.w	r3, r3, #262144	; 0x40000
 80037aa:	6013      	str	r3, [r2, #0]
 80037ac:	687b      	ldr	r3, [r7, #4]
 80037ae:	685b      	ldr	r3, [r3, #4]
 80037b0:	2b00      	cmp	r3, #0
 80037b2:	d013      	beq.n	80037dc <HAL_RCC_OscConfig+0x104>
 80037b4:	f7ff fab6 	bl	8002d24 <HAL_GetTick>
 80037b8:	6138      	str	r0, [r7, #16]
 80037ba:	e008      	b.n	80037ce <HAL_RCC_OscConfig+0xf6>
 80037bc:	f7ff fab2 	bl	8002d24 <HAL_GetTick>
 80037c0:	4602      	mov	r2, r0
 80037c2:	693b      	ldr	r3, [r7, #16]
 80037c4:	1ad3      	subs	r3, r2, r3
 80037c6:	2b64      	cmp	r3, #100	; 0x64
 80037c8:	d901      	bls.n	80037ce <HAL_RCC_OscConfig+0xf6>
 80037ca:	2303      	movs	r3, #3
 80037cc:	e1fa      	b.n	8003bc4 <HAL_RCC_OscConfig+0x4ec>
 80037ce:	4b5d      	ldr	r3, [pc, #372]	; (8003944 <HAL_RCC_OscConfig+0x26c>)
 80037d0:	681b      	ldr	r3, [r3, #0]
 80037d2:	f403 3300 	and.w	r3, r3, #131072	; 0x20000
 80037d6:	2b00      	cmp	r3, #0
 80037d8:	d0f0      	beq.n	80037bc <HAL_RCC_OscConfig+0xe4>
 80037da:	e014      	b.n	8003806 <HAL_RCC_OscConfig+0x12e>
 80037dc:	f7ff faa2 	bl	8002d24 <HAL_GetTick>
 80037e0:	6138      	str	r0, [r7, #16]
 80037e2:	e008      	b.n	80037f6 <HAL_RCC_OscConfig+0x11e>
 80037e4:	f7ff fa9e 	bl	8002d24 <HAL_GetTick>
 80037e8:	4602      	mov	r2, r0
 80037ea:	693b      	ldr	r3, [r7, #16]
 80037ec:	1ad3      	subs	r3, r2, r3
 80037ee:	2b64      	cmp	r3, #100	; 0x64
 80037f0:	d901      	bls.n	80037f6 <HAL_RCC_OscConfig+0x11e>
 80037f2:	2303      	movs	r3, #3
 80037f4:	e1e6      	b.n	8003bc4 <HAL_RCC_OscConfig+0x4ec>
 80037f6:	4b53      	ldr	r3, [pc, #332]	; (8003944 <HAL_RCC_OscConfig+0x26c>)
 80037f8:	681b      	ldr	r3, [r3, #0]
 80037fa:	f403 3300 	and.w	r3, r3, #131072	; 0x20000
 80037fe:	2b00      	cmp	r3, #0
 8003800:	d1f0      	bne.n	80037e4 <HAL_RCC_OscConfig+0x10c>
 8003802:	e000      	b.n	8003806 <HAL_RCC_OscConfig+0x12e>
 8003804:	bf00      	nop
 8003806:	687b      	ldr	r3, [r7, #4]
 8003808:	681b      	ldr	r3, [r3, #0]
 800380a:	f003 0302 	and.w	r3, r3, #2
 800380e:	2b00      	cmp	r3, #0
 8003810:	d063      	beq.n	80038da <HAL_RCC_OscConfig+0x202>
 8003812:	4b4c      	ldr	r3, [pc, #304]	; (8003944 <HAL_RCC_OscConfig+0x26c>)
 8003814:	685b      	ldr	r3, [r3, #4]
 8003816:	f003 030c 	and.w	r3, r3, #12
 800381a:	2b00      	cmp	r3, #0
 800381c:	d00b      	beq.n	8003836 <HAL_RCC_OscConfig+0x15e>
 800381e:	4b49      	ldr	r3, [pc, #292]	; (8003944 <HAL_RCC_OscConfig+0x26c>)
 8003820:	685b      	ldr	r3, [r3, #4]
 8003822:	f003 030c 	and.w	r3, r3, #12
 8003826:	2b08      	cmp	r3, #8
 8003828:	d11c      	bne.n	8003864 <HAL_RCC_OscConfig+0x18c>
 800382a:	4b46      	ldr	r3, [pc, #280]	; (8003944 <HAL_RCC_OscConfig+0x26c>)
 800382c:	685b      	ldr	r3, [r3, #4]
 800382e:	f403 3380 	and.w	r3, r3, #65536	; 0x10000
 8003832:	2b00      	cmp	r3, #0
 8003834:	d116      	bne.n	8003864 <HAL_RCC_OscConfig+0x18c>
 8003836:	4b43      	ldr	r3, [pc, #268]	; (8003944 <HAL_RCC_OscConfig+0x26c>)
 8003838:	681b      	ldr	r3, [r3, #0]
 800383a:	f003 0302 	and.w	r3, r3, #2
 800383e:	2b00      	cmp	r3, #0
 8003840:	d005      	beq.n	800384e <HAL_RCC_OscConfig+0x176>
 8003842:	687b      	ldr	r3, [r7, #4]
 8003844:	691b      	ldr	r3, [r3, #16]
 8003846:	2b01      	cmp	r3, #1
 8003848:	d001      	beq.n	800384e <HAL_RCC_OscConfig+0x176>
 800384a:	2301      	movs	r3, #1
 800384c:	e1ba      	b.n	8003bc4 <HAL_RCC_OscConfig+0x4ec>
 800384e:	4b3d      	ldr	r3, [pc, #244]	; (8003944 <HAL_RCC_OscConfig+0x26c>)
 8003850:	681b      	ldr	r3, [r3, #0]
 8003852:	f023 02f8 	bic.w	r2, r3, #248	; 0xf8
 8003856:	687b      	ldr	r3, [r7, #4]
 8003858:	695b      	ldr	r3, [r3, #20]
 800385a:	00db      	lsls	r3, r3, #3
 800385c:	4939      	ldr	r1, [pc, #228]	; (8003944 <HAL_RCC_OscConfig+0x26c>)
 800385e:	4313      	orrs	r3, r2
 8003860:	600b      	str	r3, [r1, #0]
 8003862:	e03a      	b.n	80038da <HAL_RCC_OscConfig+0x202>
 8003864:	687b      	ldr	r3, [r7, #4]
 8003866:	691b      	ldr	r3, [r3, #16]
 8003868:	2b00      	cmp	r3, #0
 800386a:	d020      	beq.n	80038ae <HAL_RCC_OscConfig+0x1d6>
 800386c:	4b36      	ldr	r3, [pc, #216]	; (8003948 <HAL_RCC_OscConfig+0x270>)
 800386e:	2201      	movs	r2, #1
 8003870:	601a      	str	r2, [r3, #0]
 8003872:	f7ff fa57 	bl	8002d24 <HAL_GetTick>
 8003876:	6138      	str	r0, [r7, #16]
 8003878:	e008      	b.n	800388c <HAL_RCC_OscConfig+0x1b4>
 800387a:	f7ff fa53 	bl	8002d24 <HAL_GetTick>
 800387e:	4602      	mov	r2, r0
 8003880:	693b      	ldr	r3, [r7, #16]
 8003882:	1ad3      	subs	r3, r2, r3
 8003884:	2b02      	cmp	r3, #2
 8003886:	d901      	bls.n	800388c <HAL_RCC_OscConfig+0x1b4>
 8003888:	2303      	movs	r3, #3
 800388a:	e19b      	b.n	8003bc4 <HAL_RCC_OscConfig+0x4ec>
 800388c:	4b2d      	ldr	r3, [pc, #180]	; (8003944 <HAL_RCC_OscConfig+0x26c>)
 800388e:	681b      	ldr	r3, [r3, #0]
 8003890:	f003 0302 	and.w	r3, r3, #2
 8003894:	2b00      	cmp	r3, #0
 8003896:	d0f0      	beq.n	800387a <HAL_RCC_OscConfig+0x1a2>
 8003898:	4b2a      	ldr	r3, [pc, #168]	; (8003944 <HAL_RCC_OscConfig+0x26c>)
 800389a:	681b      	ldr	r3, [r3, #0]
 800389c:	f023 02f8 	bic.w	r2, r3, #248	; 0xf8
 80038a0:	687b      	ldr	r3, [r7, #4]
 80038a2:	695b      	ldr	r3, [r3, #20]
 80038a4:	00db      	lsls	r3, r3, #3
 80038a6:	4927      	ldr	r1, [pc, #156]	; (8003944 <HAL_RCC_OscConfig+0x26c>)
 80038a8:	4313      	orrs	r3, r2
 80038aa:	600b      	str	r3, [r1, #0]
 80038ac:	e015      	b.n	80038da <HAL_RCC_OscConfig+0x202>
 80038ae:	4b26      	ldr	r3, [pc, #152]	; (8003948 <HAL_RCC_OscConfig+0x270>)
 80038b0:	2200      	movs	r2, #0
 80038b2:	601a      	str	r2, [r3, #0]
 80038b4:	f7ff fa36 	bl	8002d24 <HAL_GetTick>
 80038b8:	6138      	str	r0, [r7, #16]
 80038ba:	e008      	b.n	80038ce <HAL_RCC_OscConfig+0x1f6>
 80038bc:	f7ff fa32 	bl	8002d24 <HAL_GetTick>
 80038c0:	4602      	mov	r2, r0
 80038c2:	693b      	ldr	r3, [r7, #16]
 80038c4:	1ad3      	subs	r3, r2, r3
 80038c6:	2b02      	cmp	r3, #2
 80038c8:	d901      	bls.n	80038ce <HAL_RCC_OscConfig+0x1f6>
 80038ca:	2303      	movs	r3, #3
 80038cc:	e17a      	b.n	8003bc4 <HAL_RCC_OscConfig+0x4ec>
 80038ce:	4b1d      	ldr	r3, [pc, #116]	; (8003944 <HAL_RCC_OscConfig+0x26c>)
 80038d0:	681b      	ldr	r3, [r3, #0]
 80038d2:	f003 0302 	and.w	r3, r3, #2
 80038d6:	2b00      	cmp	r3, #0
 80038d8:	d1f0      	bne.n	80038bc <HAL_RCC_OscConfig+0x1e4>
 80038da:	687b      	ldr	r3, [r7, #4]
 80038dc:	681b      	ldr	r3, [r3, #0]
 80038de:	f003 0308 	and.w	r3, r3, #8
 80038e2:	2b00      	cmp	r3, #0
 80038e4:	d03a      	beq.n	800395c <HAL_RCC_OscConfig+0x284>
 80038e6:	687b      	ldr	r3, [r7, #4]
 80038e8:	699b      	ldr	r3, [r3, #24]
 80038ea:	2b00      	cmp	r3, #0
 80038ec:	d019      	beq.n	8003922 <HAL_RCC_OscConfig+0x24a>
 80038ee:	4b17      	ldr	r3, [pc, #92]	; (800394c <HAL_RCC_OscConfig+0x274>)
 80038f0:	2201      	movs	r2, #1
 80038f2:	601a      	str	r2, [r3, #0]
 80038f4:	f7ff fa16 	bl	8002d24 <HAL_GetTick>
 80038f8:	6138      	str	r0, [r7, #16]
 80038fa:	e008      	b.n	800390e <HAL_RCC_OscConfig+0x236>
 80038fc:	f7ff fa12 	bl	8002d24 <HAL_GetTick>
 8003900:	4602      	mov	r2, r0
 8003902:	693b      	ldr	r3, [r7, #16]
 8003904:	1ad3      	subs	r3, r2, r3
 8003906:	2b02      	cmp	r3, #2
 8003908:	d901      	bls.n	800390e <HAL_RCC_OscConfig+0x236>
 800390a:	2303      	movs	r3, #3
 800390c:	e15a      	b.n	8003bc4 <HAL_RCC_OscConfig+0x4ec>
 800390e:	4b0d      	ldr	r3, [pc, #52]	; (8003944 <HAL_RCC_OscConfig+0x26c>)
 8003910:	6a5b      	ldr	r3, [r3, #36]	; 0x24
 8003912:	f003 0302 	and.w	r3, r3, #2
 8003916:	2b00      	cmp	r3, #0
 8003918:	d0f0      	beq.n	80038fc <HAL_RCC_OscConfig+0x224>
 800391a:	2001      	movs	r0, #1
 800391c:	f000 fada 	bl	8003ed4 <RCC_Delay>
 8003920:	e01c      	b.n	800395c <HAL_RCC_OscConfig+0x284>
 8003922:	4b0a      	ldr	r3, [pc, #40]	; (800394c <HAL_RCC_OscConfig+0x274>)
 8003924:	2200      	movs	r2, #0
 8003926:	601a      	str	r2, [r3, #0]
 8003928:	f7ff f9fc 	bl	8002d24 <HAL_GetTick>
 800392c:	6138      	str	r0, [r7, #16]
 800392e:	e00f      	b.n	8003950 <HAL_RCC_OscConfig+0x278>
 8003930:	f7ff f9f8 	bl	8002d24 <HAL_GetTick>
 8003934:	4602      	mov	r2, r0
 8003936:	693b      	ldr	r3, [r7, #16]
 8003938:	1ad3      	subs	r3, r2, r3
 800393a:	2b02      	cmp	r3, #2
 800393c:	d908      	bls.n	8003950 <HAL_RCC_OscConfig+0x278>
 800393e:	2303      	movs	r3, #3
 8003940:	e140      	b.n	8003bc4 <HAL_RCC_OscConfig+0x4ec>
 8003942:	bf00      	nop
 8003944:	40021000 	.word	0x40021000
 8003948:	42420000 	.word	0x42420000
 800394c:	42420480 	.word	0x42420480
 8003950:	4b9e      	ldr	r3, [pc, #632]	; (8003bcc <HAL_RCC_OscConfig+0x4f4>)
 8003952:	6a5b      	ldr	r3, [r3, #36]	; 0x24
 8003954:	f003 0302 	and.w	r3, r3, #2
 8003958:	2b00      	cmp	r3, #0
 800395a:	d1e9      	bne.n	8003930 <HAL_RCC_OscConfig+0x258>
 800395c:	687b      	ldr	r3, [r7, #4]
 800395e:	681b      	ldr	r3, [r3, #0]
 8003960:	f003 0304 	and.w	r3, r3, #4
 8003964:	2b00      	cmp	r3, #0
 8003966:	f000 80a6 	beq.w	8003ab6 <HAL_RCC_OscConfig+0x3de>
 800396a:	2300      	movs	r3, #0
 800396c:	75fb      	strb	r3, [r7, #23]
 800396e:	4b97      	ldr	r3, [pc, #604]	; (8003bcc <HAL_RCC_OscConfig+0x4f4>)
 8003970:	69db      	ldr	r3, [r3, #28]
 8003972:	f003 5380 	and.w	r3, r3, #268435456	; 0x10000000
 8003976:	2b00      	cmp	r3, #0
 8003978:	d10d      	bne.n	8003996 <HAL_RCC_OscConfig+0x2be>
 800397a:	4b94      	ldr	r3, [pc, #592]	; (8003bcc <HAL_RCC_OscConfig+0x4f4>)
 800397c:	69db      	ldr	r3, [r3, #28]
 800397e:	4a93      	ldr	r2, [pc, #588]	; (8003bcc <HAL_RCC_OscConfig+0x4f4>)
 8003980:	f043 5380 	orr.w	r3, r3, #268435456	; 0x10000000
 8003984:	61d3      	str	r3, [r2, #28]
 8003986:	4b91      	ldr	r3, [pc, #580]	; (8003bcc <HAL_RCC_OscConfig+0x4f4>)
 8003988:	69db      	ldr	r3, [r3, #28]
 800398a:	f003 5380 	and.w	r3, r3, #268435456	; 0x10000000
 800398e:	60bb      	str	r3, [r7, #8]
 8003990:	68bb      	ldr	r3, [r7, #8]
 8003992:	2301      	movs	r3, #1
 8003994:	75fb      	strb	r3, [r7, #23]
 8003996:	4b8e      	ldr	r3, [pc, #568]	; (8003bd0 <HAL_RCC_OscConfig+0x4f8>)
 8003998:	681b      	ldr	r3, [r3, #0]
 800399a:	f403 7380 	and.w	r3, r3, #256	; 0x100
 800399e:	2b00      	cmp	r3, #0
 80039a0:	d118      	bne.n	80039d4 <HAL_RCC_OscConfig+0x2fc>
 80039a2:	4b8b      	ldr	r3, [pc, #556]	; (8003bd0 <HAL_RCC_OscConfig+0x4f8>)
 80039a4:	681b      	ldr	r3, [r3, #0]
 80039a6:	4a8a      	ldr	r2, [pc, #552]	; (8003bd0 <HAL_RCC_OscConfig+0x4f8>)
 80039a8:	f443 7380 	orr.w	r3, r3, #256	; 0x100
 80039ac:	6013      	str	r3, [r2, #0]
 80039ae:	f7ff f9b9 	bl	8002d24 <HAL_GetTick>
 80039b2:	6138      	str	r0, [r7, #16]
 80039b4:	e008      	b.n	80039c8 <HAL_RCC_OscConfig+0x2f0>
 80039b6:	f7ff f9b5 	bl	8002d24 <HAL_GetTick>
 80039ba:	4602      	mov	r2, r0
 80039bc:	693b      	ldr	r3, [r7, #16]
 80039be:	1ad3      	subs	r3, r2, r3
 80039c0:	2b64      	cmp	r3, #100	; 0x64
 80039c2:	d901      	bls.n	80039c8 <HAL_RCC_OscConfig+0x2f0>
 80039c4:	2303      	movs	r3, #3
 80039c6:	e0fd      	b.n	8003bc4 <HAL_RCC_OscConfig+0x4ec>
 80039c8:	4b81      	ldr	r3, [pc, #516]	; (8003bd0 <HAL_RCC_OscConfig+0x4f8>)
 80039ca:	681b      	ldr	r3, [r3, #0]
 80039cc:	f403 7380 	and.w	r3, r3, #256	; 0x100
 80039d0:	2b00      	cmp	r3, #0
 80039d2:	d0f0      	beq.n	80039b6 <HAL_RCC_OscConfig+0x2de>
 80039d4:	687b      	ldr	r3, [r7, #4]
 80039d6:	68db      	ldr	r3, [r3, #12]
 80039d8:	2b01      	cmp	r3, #1
 80039da:	d106      	bne.n	80039ea <HAL_RCC_OscConfig+0x312>
 80039dc:	4b7b      	ldr	r3, [pc, #492]	; (8003bcc <HAL_RCC_OscConfig+0x4f4>)
 80039de:	6a1b      	ldr	r3, [r3, #32]
 80039e0:	4a7a      	ldr	r2, [pc, #488]	; (8003bcc <HAL_RCC_OscConfig+0x4f4>)
 80039e2:	f043 0301 	orr.w	r3, r3, #1
 80039e6:	6213      	str	r3, [r2, #32]
 80039e8:	e02d      	b.n	8003a46 <HAL_RCC_OscConfig+0x36e>
 80039ea:	687b      	ldr	r3, [r7, #4]
 80039ec:	68db      	ldr	r3, [r3, #12]
 80039ee:	2b00      	cmp	r3, #0
 80039f0:	d10c      	bne.n	8003a0c <HAL_RCC_OscConfig+0x334>
 80039f2:	4b76      	ldr	r3, [pc, #472]	; (8003bcc <HAL_RCC_OscConfig+0x4f4>)
 80039f4:	6a1b      	ldr	r3, [r3, #32]
 80039f6:	4a75      	ldr	r2, [pc, #468]	; (8003bcc <HAL_RCC_OscConfig+0x4f4>)
 80039f8:	f023 0301 	bic.w	r3, r3, #1
 80039fc:	6213      	str	r3, [r2, #32]
 80039fe:	4b73      	ldr	r3, [pc, #460]	; (8003bcc <HAL_RCC_OscConfig+0x4f4>)
 8003a00:	6a1b      	ldr	r3, [r3, #32]
 8003a02:	4a72      	ldr	r2, [pc, #456]	; (8003bcc <HAL_RCC_OscConfig+0x4f4>)
 8003a04:	f023 0304 	bic.w	r3, r3, #4
 8003a08:	6213      	str	r3, [r2, #32]
 8003a0a:	e01c      	b.n	8003a46 <HAL_RCC_OscConfig+0x36e>
 8003a0c:	687b      	ldr	r3, [r7, #4]
 8003a0e:	68db      	ldr	r3, [r3, #12]
 8003a10:	2b05      	cmp	r3, #5
 8003a12:	d10c      	bne.n	8003a2e <HAL_RCC_OscConfig+0x356>
 8003a14:	4b6d      	ldr	r3, [pc, #436]	; (8003bcc <HAL_RCC_OscConfig+0x4f4>)
 8003a16:	6a1b      	ldr	r3, [r3, #32]
 8003a18:	4a6c      	ldr	r2, [pc, #432]	; (8003bcc <HAL_RCC_OscConfig+0x4f4>)
 8003a1a:	f043 0304 	orr.w	r3, r3, #4
 8003a1e:	6213      	str	r3, [r2, #32]
 8003a20:	4b6a      	ldr	r3, [pc, #424]	; (8003bcc <HAL_RCC_OscConfig+0x4f4>)
 8003a22:	6a1b      	ldr	r3, [r3, #32]
 8003a24:	4a69      	ldr	r2, [pc, #420]	; (8003bcc <HAL_RCC_OscConfig+0x4f4>)
 8003a26:	f043 0301 	orr.w	r3, r3, #1
 8003a2a:	6213      	str	r3, [r2, #32]
 8003a2c:	e00b      	b.n	8003a46 <HAL_RCC_OscConfig+0x36e>
 8003a2e:	4b67      	ldr	r3, [pc, #412]	; (8003bcc <HAL_RCC_OscConfig+0x4f4>)
 8003a30:	6a1b      	ldr	r3, [r3, #32]
 8003a32:	4a66      	ldr	r2, [pc, #408]	; (8003bcc <HAL_RCC_OscConfig+0x4f4>)
 8003a34:	f023 0301 	bic.w	r3, r3, #1
 8003a38:	6213      	str	r3, [r2, #32]
 8003a3a:	4b64      	ldr	r3, [pc, #400]	; (8003bcc <HAL_RCC_OscConfig+0x4f4>)
 8003a3c:	6a1b      	ldr	r3, [r3, #32]
 8003a3e:	4a63      	ldr	r2, [pc, #396]	; (8003bcc <HAL_RCC_OscConfig+0x4f4>)
 8003a40:	f023 0304 	bic.w	r3, r3, #4
 8003a44:	6213      	str	r3, [r2, #32]
 8003a46:	687b      	ldr	r3, [r7, #4]
 8003a48:	68db      	ldr	r3, [r3, #12]
 8003a4a:	2b00      	cmp	r3, #0
 8003a4c:	d015      	beq.n	8003a7a <HAL_RCC_OscConfig+0x3a2>
 8003a4e:	f7ff f969 	bl	8002d24 <HAL_GetTick>
 8003a52:	6138      	str	r0, [r7, #16]
 8003a54:	e00a      	b.n	8003a6c <HAL_RCC_OscConfig+0x394>
 8003a56:	f7ff f965 	bl	8002d24 <HAL_GetTick>
 8003a5a:	4602      	mov	r2, r0
 8003a5c:	693b      	ldr	r3, [r7, #16]
 8003a5e:	1ad3      	subs	r3, r2, r3
 8003a60:	f241 3288 	movw	r2, #5000	; 0x1388
 8003a64:	4293      	cmp	r3, r2
 8003a66:	d901      	bls.n	8003a6c <HAL_RCC_OscConfig+0x394>
 8003a68:	2303      	movs	r3, #3
 8003a6a:	e0ab      	b.n	8003bc4 <HAL_RCC_OscConfig+0x4ec>
 8003a6c:	4b57      	ldr	r3, [pc, #348]	; (8003bcc <HAL_RCC_OscConfig+0x4f4>)
 8003a6e:	6a1b      	ldr	r3, [r3, #32]
 8003a70:	f003 0302 	and.w	r3, r3, #2
 8003a74:	2b00      	cmp	r3, #0
 8003a76:	d0ee      	beq.n	8003a56 <HAL_RCC_OscConfig+0x37e>
 8003a78:	e014      	b.n	8003aa4 <HAL_RCC_OscConfig+0x3cc>
 8003a7a:	f7ff f953 	bl	8002d24 <HAL_GetTick>
 8003a7e:	6138      	str	r0, [r7, #16]
 8003a80:	e00a      	b.n	8003a98 <HAL_RCC_OscConfig+0x3c0>
 8003a82:	f7ff f94f 	bl	8002d24 <HAL_GetTick>
 8003a86:	4602      	mov	r2, r0
 8003a88:	693b      	ldr	r3, [r7, #16]
 8003a8a:	1ad3      	subs	r3, r2, r3
 8003a8c:	f241 3288 	movw	r2, #5000	; 0x1388
 8003a90:	4293      	cmp	r3, r2
 8003a92:	d901      	bls.n	8003a98 <HAL_RCC_OscConfig+0x3c0>
 8003a94:	2303      	movs	r3, #3
 8003a96:	e095      	b.n	8003bc4 <HAL_RCC_OscConfig+0x4ec>
 8003a98:	4b4c      	ldr	r3, [pc, #304]	; (8003bcc <HAL_RCC_OscConfig+0x4f4>)
 8003a9a:	6a1b      	ldr	r3, [r3, #32]
 8003a9c:	f003 0302 	and.w	r3, r3, #2
 8003aa0:	2b00      	cmp	r3, #0
 8003aa2:	d1ee      	bne.n	8003a82 <HAL_RCC_OscConfig+0x3aa>
 8003aa4:	7dfb      	ldrb	r3, [r7, #23]
 8003aa6:	2b01      	cmp	r3, #1
 8003aa8:	d105      	bne.n	8003ab6 <HAL_RCC_OscConfig+0x3de>
 8003aaa:	4b48      	ldr	r3, [pc, #288]	; (8003bcc <HAL_RCC_OscConfig+0x4f4>)
 8003aac:	69db      	ldr	r3, [r3, #28]
 8003aae:	4a47      	ldr	r2, [pc, #284]	; (8003bcc <HAL_RCC_OscConfig+0x4f4>)
 8003ab0:	f023 5380 	bic.w	r3, r3, #268435456	; 0x10000000
 8003ab4:	61d3      	str	r3, [r2, #28]
 8003ab6:	687b      	ldr	r3, [r7, #4]
 8003ab8:	69db      	ldr	r3, [r3, #28]
 8003aba:	2b00      	cmp	r3, #0
 8003abc:	f000 8081 	beq.w	8003bc2 <HAL_RCC_OscConfig+0x4ea>
 8003ac0:	4b42      	ldr	r3, [pc, #264]	; (8003bcc <HAL_RCC_OscConfig+0x4f4>)
 8003ac2:	685b      	ldr	r3, [r3, #4]
 8003ac4:	f003 030c 	and.w	r3, r3, #12
 8003ac8:	2b08      	cmp	r3, #8
 8003aca:	d061      	beq.n	8003b90 <HAL_RCC_OscConfig+0x4b8>
 8003acc:	687b      	ldr	r3, [r7, #4]
 8003ace:	69db      	ldr	r3, [r3, #28]
 8003ad0:	2b02      	cmp	r3, #2
 8003ad2:	d146      	bne.n	8003b62 <HAL_RCC_OscConfig+0x48a>
 8003ad4:	4b3f      	ldr	r3, [pc, #252]	; (8003bd4 <HAL_RCC_OscConfig+0x4fc>)
 8003ad6:	2200      	movs	r2, #0
 8003ad8:	601a      	str	r2, [r3, #0]
 8003ada:	f7ff f923 	bl	8002d24 <HAL_GetTick>
 8003ade:	6138      	str	r0, [r7, #16]
 8003ae0:	e008      	b.n	8003af4 <HAL_RCC_OscConfig+0x41c>
 8003ae2:	f7ff f91f 	bl	8002d24 <HAL_GetTick>
 8003ae6:	4602      	mov	r2, r0
 8003ae8:	693b      	ldr	r3, [r7, #16]
 8003aea:	1ad3      	subs	r3, r2, r3
 8003aec:	2b02      	cmp	r3, #2
 8003aee:	d901      	bls.n	8003af4 <HAL_RCC_OscConfig+0x41c>
 8003af0:	2303      	movs	r3, #3
 8003af2:	e067      	b.n	8003bc4 <HAL_RCC_OscConfig+0x4ec>
 8003af4:	4b35      	ldr	r3, [pc, #212]	; (8003bcc <HAL_RCC_OscConfig+0x4f4>)
 8003af6:	681b      	ldr	r3, [r3, #0]
 8003af8:	f003 7300 	and.w	r3, r3, #33554432	; 0x2000000
 8003afc:	2b00      	cmp	r3, #0
 8003afe:	d1f0      	bne.n	8003ae2 <HAL_RCC_OscConfig+0x40a>
 8003b00:	687b      	ldr	r3, [r7, #4]
 8003b02:	6a1b      	ldr	r3, [r3, #32]
 8003b04:	f5b3 3f80 	cmp.w	r3, #65536	; 0x10000
 8003b08:	d108      	bne.n	8003b1c <HAL_RCC_OscConfig+0x444>
 8003b0a:	4b30      	ldr	r3, [pc, #192]	; (8003bcc <HAL_RCC_OscConfig+0x4f4>)
 8003b0c:	685b      	ldr	r3, [r3, #4]
 8003b0e:	f423 3200 	bic.w	r2, r3, #131072	; 0x20000
 8003b12:	687b      	ldr	r3, [r7, #4]
 8003b14:	689b      	ldr	r3, [r3, #8]
 8003b16:	492d      	ldr	r1, [pc, #180]	; (8003bcc <HAL_RCC_OscConfig+0x4f4>)
 8003b18:	4313      	orrs	r3, r2
 8003b1a:	604b      	str	r3, [r1, #4]
 8003b1c:	4b2b      	ldr	r3, [pc, #172]	; (8003bcc <HAL_RCC_OscConfig+0x4f4>)
 8003b1e:	685b      	ldr	r3, [r3, #4]
 8003b20:	f423 1274 	bic.w	r2, r3, #3997696	; 0x3d0000
 8003b24:	687b      	ldr	r3, [r7, #4]
 8003b26:	6a19      	ldr	r1, [r3, #32]
 8003b28:	687b      	ldr	r3, [r7, #4]
 8003b2a:	6a5b      	ldr	r3, [r3, #36]	; 0x24
 8003b2c:	430b      	orrs	r3, r1
 8003b2e:	4927      	ldr	r1, [pc, #156]	; (8003bcc <HAL_RCC_OscConfig+0x4f4>)
 8003b30:	4313      	orrs	r3, r2
 8003b32:	604b      	str	r3, [r1, #4]
 8003b34:	4b27      	ldr	r3, [pc, #156]	; (8003bd4 <HAL_RCC_OscConfig+0x4fc>)
 8003b36:	2201      	movs	r2, #1
 8003b38:	601a      	str	r2, [r3, #0]
 8003b3a:	f7ff f8f3 	bl	8002d24 <HAL_GetTick>
 8003b3e:	6138      	str	r0, [r7, #16]
 8003b40:	e008      	b.n	8003b54 <HAL_RCC_OscConfig+0x47c>
 8003b42:	f7ff f8ef 	bl	8002d24 <HAL_GetTick>
 8003b46:	4602      	mov	r2, r0
 8003b48:	693b      	ldr	r3, [r7, #16]
 8003b4a:	1ad3      	subs	r3, r2, r3
 8003b4c:	2b02      	cmp	r3, #2
 8003b4e:	d901      	bls.n	8003b54 <HAL_RCC_OscConfig+0x47c>
 8003b50:	2303      	movs	r3, #3
 8003b52:	e037      	b.n	8003bc4 <HAL_RCC_OscConfig+0x4ec>
 8003b54:	4b1d      	ldr	r3, [pc, #116]	; (8003bcc <HAL_RCC_OscConfig+0x4f4>)
 8003b56:	681b      	ldr	r3, [r3, #0]
 8003b58:	f003 7300 	and.w	r3, r3, #33554432	; 0x2000000
 8003b5c:	2b00      	cmp	r3, #0
 8003b5e:	d0f0      	beq.n	8003b42 <HAL_RCC_OscConfig+0x46a>
 8003b60:	e02f      	b.n	8003bc2 <HAL_RCC_OscConfig+0x4ea>
 8003b62:	4b1c      	ldr	r3, [pc, #112]	; (8003bd4 <HAL_RCC_OscConfig+0x4fc>)
 8003b64:	2200      	movs	r2, #0
 8003b66:	601a      	str	r2, [r3, #0]
 8003b68:	f7ff f8dc 	bl	8002d24 <HAL_GetTick>
 8003b6c:	6138      	str	r0, [r7, #16]
 8003b6e:	e008      	b.n	8003b82 <HAL_RCC_OscConfig+0x4aa>
 8003b70:	f7ff f8d8 	bl	8002d24 <HAL_GetTick>
 8003b74:	4602      	mov	r2, r0
 8003b76:	693b      	ldr	r3, [r7, #16]
 8003b78:	1ad3      	subs	r3, r2, r3
 8003b7a:	2b02      	cmp	r3, #2
 8003b7c:	d901      	bls.n	8003b82 <HAL_RCC_OscConfig+0x4aa>
 8003b7e:	2303      	movs	r3, #3
 8003b80:	e020      	b.n	8003bc4 <HAL_RCC_OscConfig+0x4ec>
 8003b82:	4b12      	ldr	r3, [pc, #72]	; (8003bcc <HAL_RCC_OscConfig+0x4f4>)
 8003b84:	681b      	ldr	r3, [r3, #0]
 8003b86:	f003 7300 	and.w	r3, r3, #33554432	; 0x2000000
 8003b8a:	2b00      	cmp	r3, #0
 8003b8c:	d1f0      	bne.n	8003b70 <HAL_RCC_OscConfig+0x498>
 8003b8e:	e018      	b.n	8003bc2 <HAL_RCC_OscConfig+0x4ea>
 8003b90:	687b      	ldr	r3, [r7, #4]
 8003b92:	69db      	ldr	r3, [r3, #28]
 8003b94:	2b01      	cmp	r3, #1
 8003b96:	d101      	bne.n	8003b9c <HAL_RCC_OscConfig+0x4c4>
 8003b98:	2301      	movs	r3, #1
 8003b9a:	e013      	b.n	8003bc4 <HAL_RCC_OscConfig+0x4ec>
 8003b9c:	4b0b      	ldr	r3, [pc, #44]	; (8003bcc <HAL_RCC_OscConfig+0x4f4>)
 8003b9e:	685b      	ldr	r3, [r3, #4]
 8003ba0:	60fb      	str	r3, [r7, #12]
 8003ba2:	68fb      	ldr	r3, [r7, #12]
 8003ba4:	f403 3280 	and.w	r2, r3, #65536	; 0x10000
 8003ba8:	687b      	ldr	r3, [r7, #4]
 8003baa:	6a1b      	ldr	r3, [r3, #32]
 8003bac:	429a      	cmp	r2, r3
 8003bae:	d106      	bne.n	8003bbe <HAL_RCC_OscConfig+0x4e6>
 8003bb0:	68fb      	ldr	r3, [r7, #12]
 8003bb2:	f403 1270 	and.w	r2, r3, #3932160	; 0x3c0000
 8003bb6:	687b      	ldr	r3, [r7, #4]
 8003bb8:	6a5b      	ldr	r3, [r3, #36]	; 0x24
 8003bba:	429a      	cmp	r2, r3
 8003bbc:	d001      	beq.n	8003bc2 <HAL_RCC_OscConfig+0x4ea>
 8003bbe:	2301      	movs	r3, #1
 8003bc0:	e000      	b.n	8003bc4 <HAL_RCC_OscConfig+0x4ec>
 8003bc2:	2300      	movs	r3, #0
 8003bc4:	4618      	mov	r0, r3
 8003bc6:	3718      	adds	r7, #24
 8003bc8:	46bd      	mov	sp, r7
 8003bca:	bd80      	pop	{r7, pc}
 8003bcc:	40021000 	.word	0x40021000
 8003bd0:	40007000 	.word	0x40007000
 8003bd4:	42420060 	.word	0x42420060

08003bd8 <HAL_RCC_ClockConfig>:
 8003bd8:	b580      	push	{r7, lr}
 8003bda:	b084      	sub	sp, #16
 8003bdc:	af00      	add	r7, sp, #0
 8003bde:	6078      	str	r0, [r7, #4]
 8003be0:	6039      	str	r1, [r7, #0]
 8003be2:	687b      	ldr	r3, [r7, #4]
 8003be4:	2b00      	cmp	r3, #0
 8003be6:	d101      	bne.n	8003bec <HAL_RCC_ClockConfig+0x14>
 8003be8:	2301      	movs	r3, #1
 8003bea:	e0d0      	b.n	8003d8e <HAL_RCC_ClockConfig+0x1b6>
 8003bec:	4b6a      	ldr	r3, [pc, #424]	; (8003d98 <HAL_RCC_ClockConfig+0x1c0>)
 8003bee:	681b      	ldr	r3, [r3, #0]
 8003bf0:	f003 0307 	and.w	r3, r3, #7
 8003bf4:	683a      	ldr	r2, [r7, #0]
 8003bf6:	429a      	cmp	r2, r3
 8003bf8:	d910      	bls.n	8003c1c <HAL_RCC_ClockConfig+0x44>
 8003bfa:	4b67      	ldr	r3, [pc, #412]	; (8003d98 <HAL_RCC_ClockConfig+0x1c0>)
 8003bfc:	681b      	ldr	r3, [r3, #0]
 8003bfe:	f023 0207 	bic.w	r2, r3, #7
 8003c02:	4965      	ldr	r1, [pc, #404]	; (8003d98 <HAL_RCC_ClockConfig+0x1c0>)
 8003c04:	683b      	ldr	r3, [r7, #0]
 8003c06:	4313      	orrs	r3, r2
 8003c08:	600b      	str	r3, [r1, #0]
 8003c0a:	4b63      	ldr	r3, [pc, #396]	; (8003d98 <HAL_RCC_ClockConfig+0x1c0>)
 8003c0c:	681b      	ldr	r3, [r3, #0]
 8003c0e:	f003 0307 	and.w	r3, r3, #7
 8003c12:	683a      	ldr	r2, [r7, #0]
 8003c14:	429a      	cmp	r2, r3
 8003c16:	d001      	beq.n	8003c1c <HAL_RCC_ClockConfig+0x44>
 8003c18:	2301      	movs	r3, #1
 8003c1a:	e0b8      	b.n	8003d8e <HAL_RCC_ClockConfig+0x1b6>
 8003c1c:	687b      	ldr	r3, [r7, #4]
 8003c1e:	681b      	ldr	r3, [r3, #0]
 8003c20:	f003 0302 	and.w	r3, r3, #2
 8003c24:	2b00      	cmp	r3, #0
 8003c26:	d020      	beq.n	8003c6a <HAL_RCC_ClockConfig+0x92>
 8003c28:	687b      	ldr	r3, [r7, #4]
 8003c2a:	681b      	ldr	r3, [r3, #0]
 8003c2c:	f003 0304 	and.w	r3, r3, #4
 8003c30:	2b00      	cmp	r3, #0
 8003c32:	d005      	beq.n	8003c40 <HAL_RCC_ClockConfig+0x68>
 8003c34:	4b59      	ldr	r3, [pc, #356]	; (8003d9c <HAL_RCC_ClockConfig+0x1c4>)
 8003c36:	685b      	ldr	r3, [r3, #4]
 8003c38:	4a58      	ldr	r2, [pc, #352]	; (8003d9c <HAL_RCC_ClockConfig+0x1c4>)
 8003c3a:	f443 63e0 	orr.w	r3, r3, #1792	; 0x700
 8003c3e:	6053      	str	r3, [r2, #4]
 8003c40:	687b      	ldr	r3, [r7, #4]
 8003c42:	681b      	ldr	r3, [r3, #0]
 8003c44:	f003 0308 	and.w	r3, r3, #8
 8003c48:	2b00      	cmp	r3, #0
 8003c4a:	d005      	beq.n	8003c58 <HAL_RCC_ClockConfig+0x80>
 8003c4c:	4b53      	ldr	r3, [pc, #332]	; (8003d9c <HAL_RCC_ClockConfig+0x1c4>)
 8003c4e:	685b      	ldr	r3, [r3, #4]
 8003c50:	4a52      	ldr	r2, [pc, #328]	; (8003d9c <HAL_RCC_ClockConfig+0x1c4>)
 8003c52:	f443 5360 	orr.w	r3, r3, #14336	; 0x3800
 8003c56:	6053      	str	r3, [r2, #4]
 8003c58:	4b50      	ldr	r3, [pc, #320]	; (8003d9c <HAL_RCC_ClockConfig+0x1c4>)
 8003c5a:	685b      	ldr	r3, [r3, #4]
 8003c5c:	f023 02f0 	bic.w	r2, r3, #240	; 0xf0
 8003c60:	687b      	ldr	r3, [r7, #4]
 8003c62:	689b      	ldr	r3, [r3, #8]
 8003c64:	494d      	ldr	r1, [pc, #308]	; (8003d9c <HAL_RCC_ClockConfig+0x1c4>)
 8003c66:	4313      	orrs	r3, r2
 8003c68:	604b      	str	r3, [r1, #4]
 8003c6a:	687b      	ldr	r3, [r7, #4]
 8003c6c:	681b      	ldr	r3, [r3, #0]
 8003c6e:	f003 0301 	and.w	r3, r3, #1
 8003c72:	2b00      	cmp	r3, #0
 8003c74:	d040      	beq.n	8003cf8 <HAL_RCC_ClockConfig+0x120>
 8003c76:	687b      	ldr	r3, [r7, #4]
 8003c78:	685b      	ldr	r3, [r3, #4]
 8003c7a:	2b01      	cmp	r3, #1
 8003c7c:	d107      	bne.n	8003c8e <HAL_RCC_ClockConfig+0xb6>
 8003c7e:	4b47      	ldr	r3, [pc, #284]	; (8003d9c <HAL_RCC_ClockConfig+0x1c4>)
 8003c80:	681b      	ldr	r3, [r3, #0]
 8003c82:	f403 3300 	and.w	r3, r3, #131072	; 0x20000
 8003c86:	2b00      	cmp	r3, #0
 8003c88:	d115      	bne.n	8003cb6 <HAL_RCC_ClockConfig+0xde>
 8003c8a:	2301      	movs	r3, #1
 8003c8c:	e07f      	b.n	8003d8e <HAL_RCC_ClockConfig+0x1b6>
 8003c8e:	687b      	ldr	r3, [r7, #4]
 8003c90:	685b      	ldr	r3, [r3, #4]
 8003c92:	2b02      	cmp	r3, #2
 8003c94:	d107      	bne.n	8003ca6 <HAL_RCC_ClockConfig+0xce>
 8003c96:	4b41      	ldr	r3, [pc, #260]	; (8003d9c <HAL_RCC_ClockConfig+0x1c4>)
 8003c98:	681b      	ldr	r3, [r3, #0]
 8003c9a:	f003 7300 	and.w	r3, r3, #33554432	; 0x2000000
 8003c9e:	2b00      	cmp	r3, #0
 8003ca0:	d109      	bne.n	8003cb6 <HAL_RCC_ClockConfig+0xde>
 8003ca2:	2301      	movs	r3, #1
 8003ca4:	e073      	b.n	8003d8e <HAL_RCC_ClockConfig+0x1b6>
 8003ca6:	4b3d      	ldr	r3, [pc, #244]	; (8003d9c <HAL_RCC_ClockConfig+0x1c4>)
 8003ca8:	681b      	ldr	r3, [r3, #0]
 8003caa:	f003 0302 	and.w	r3, r3, #2
 8003cae:	2b00      	cmp	r3, #0
 8003cb0:	d101      	bne.n	8003cb6 <HAL_RCC_ClockConfig+0xde>
 8003cb2:	2301      	movs	r3, #1
 8003cb4:	e06b      	b.n	8003d8e <HAL_RCC_ClockConfig+0x1b6>
 8003cb6:	4b39      	ldr	r3, [pc, #228]	; (8003d9c <HAL_RCC_ClockConfig+0x1c4>)
 8003cb8:	685b      	ldr	r3, [r3, #4]
 8003cba:	f023 0203 	bic.w	r2, r3, #3
 8003cbe:	687b      	ldr	r3, [r7, #4]
 8003cc0:	685b      	ldr	r3, [r3, #4]
 8003cc2:	4936      	ldr	r1, [pc, #216]	; (8003d9c <HAL_RCC_ClockConfig+0x1c4>)
 8003cc4:	4313      	orrs	r3, r2
 8003cc6:	604b      	str	r3, [r1, #4]
 8003cc8:	f7ff f82c 	bl	8002d24 <HAL_GetTick>
 8003ccc:	60f8      	str	r0, [r7, #12]
 8003cce:	e00a      	b.n	8003ce6 <HAL_RCC_ClockConfig+0x10e>
 8003cd0:	f7ff f828 	bl	8002d24 <HAL_GetTick>
 8003cd4:	4602      	mov	r2, r0
 8003cd6:	68fb      	ldr	r3, [r7, #12]
 8003cd8:	1ad3      	subs	r3, r2, r3
 8003cda:	f241 3288 	movw	r2, #5000	; 0x1388
 8003cde:	4293      	cmp	r3, r2
 8003ce0:	d901      	bls.n	8003ce6 <HAL_RCC_ClockConfig+0x10e>
 8003ce2:	2303      	movs	r3, #3
 8003ce4:	e053      	b.n	8003d8e <HAL_RCC_ClockConfig+0x1b6>
 8003ce6:	4b2d      	ldr	r3, [pc, #180]	; (8003d9c <HAL_RCC_ClockConfig+0x1c4>)
 8003ce8:	685b      	ldr	r3, [r3, #4]
 8003cea:	f003 020c 	and.w	r2, r3, #12
 8003cee:	687b      	ldr	r3, [r7, #4]
 8003cf0:	685b      	ldr	r3, [r3, #4]
 8003cf2:	009b      	lsls	r3, r3, #2
 8003cf4:	429a      	cmp	r2, r3
 8003cf6:	d1eb      	bne.n	8003cd0 <HAL_RCC_ClockConfig+0xf8>
 8003cf8:	4b27      	ldr	r3, [pc, #156]	; (8003d98 <HAL_RCC_ClockConfig+0x1c0>)
 8003cfa:	681b      	ldr	r3, [r3, #0]
 8003cfc:	f003 0307 	and.w	r3, r3, #7
 8003d00:	683a      	ldr	r2, [r7, #0]
 8003d02:	429a      	cmp	r2, r3
 8003d04:	d210      	bcs.n	8003d28 <HAL_RCC_ClockConfig+0x150>
 8003d06:	4b24      	ldr	r3, [pc, #144]	; (8003d98 <HAL_RCC_ClockConfig+0x1c0>)
 8003d08:	681b      	ldr	r3, [r3, #0]
 8003d0a:	f023 0207 	bic.w	r2, r3, #7
 8003d0e:	4922      	ldr	r1, [pc, #136]	; (8003d98 <HAL_RCC_ClockConfig+0x1c0>)
 8003d10:	683b      	ldr	r3, [r7, #0]
 8003d12:	4313      	orrs	r3, r2
 8003d14:	600b      	str	r3, [r1, #0]
 8003d16:	4b20      	ldr	r3, [pc, #128]	; (8003d98 <HAL_RCC_ClockConfig+0x1c0>)
 8003d18:	681b      	ldr	r3, [r3, #0]
 8003d1a:	f003 0307 	and.w	r3, r3, #7
 8003d1e:	683a      	ldr	r2, [r7, #0]
 8003d20:	429a      	cmp	r2, r3
 8003d22:	d001      	beq.n	8003d28 <HAL_RCC_ClockConfig+0x150>
 8003d24:	2301      	movs	r3, #1
 8003d26:	e032      	b.n	8003d8e <HAL_RCC_ClockConfig+0x1b6>
 8003d28:	687b      	ldr	r3, [r7, #4]
 8003d2a:	681b      	ldr	r3, [r3, #0]
 8003d2c:	f003 0304 	and.w	r3, r3, #4
 8003d30:	2b00      	cmp	r3, #0
 8003d32:	d008      	beq.n	8003d46 <HAL_RCC_ClockConfig+0x16e>
 8003d34:	4b19      	ldr	r3, [pc, #100]	; (8003d9c <HAL_RCC_ClockConfig+0x1c4>)
 8003d36:	685b      	ldr	r3, [r3, #4]
 8003d38:	f423 62e0 	bic.w	r2, r3, #1792	; 0x700
 8003d3c:	687b      	ldr	r3, [r7, #4]
 8003d3e:	68db      	ldr	r3, [r3, #12]
 8003d40:	4916      	ldr	r1, [pc, #88]	; (8003d9c <HAL_RCC_ClockConfig+0x1c4>)
 8003d42:	4313      	orrs	r3, r2
 8003d44:	604b      	str	r3, [r1, #4]
 8003d46:	687b      	ldr	r3, [r7, #4]
 8003d48:	681b      	ldr	r3, [r3, #0]
 8003d4a:	f003 0308 	and.w	r3, r3, #8
 8003d4e:	2b00      	cmp	r3, #0
 8003d50:	d009      	beq.n	8003d66 <HAL_RCC_ClockConfig+0x18e>
 8003d52:	4b12      	ldr	r3, [pc, #72]	; (8003d9c <HAL_RCC_ClockConfig+0x1c4>)
 8003d54:	685b      	ldr	r3, [r3, #4]
 8003d56:	f423 5260 	bic.w	r2, r3, #14336	; 0x3800
 8003d5a:	687b      	ldr	r3, [r7, #4]
 8003d5c:	691b      	ldr	r3, [r3, #16]
 8003d5e:	00db      	lsls	r3, r3, #3
 8003d60:	490e      	ldr	r1, [pc, #56]	; (8003d9c <HAL_RCC_ClockConfig+0x1c4>)
 8003d62:	4313      	orrs	r3, r2
 8003d64:	604b      	str	r3, [r1, #4]
 8003d66:	f000 f821 	bl	8003dac <HAL_RCC_GetSysClockFreq>
 8003d6a:	4601      	mov	r1, r0
 8003d6c:	4b0b      	ldr	r3, [pc, #44]	; (8003d9c <HAL_RCC_ClockConfig+0x1c4>)
 8003d6e:	685b      	ldr	r3, [r3, #4]
 8003d70:	091b      	lsrs	r3, r3, #4
 8003d72:	f003 030f 	and.w	r3, r3, #15
 8003d76:	4a0a      	ldr	r2, [pc, #40]	; (8003da0 <HAL_RCC_ClockConfig+0x1c8>)
 8003d78:	5cd3      	ldrb	r3, [r2, r3]
 8003d7a:	fa21 f303 	lsr.w	r3, r1, r3
 8003d7e:	4a09      	ldr	r2, [pc, #36]	; (8003da4 <HAL_RCC_ClockConfig+0x1cc>)
 8003d80:	6013      	str	r3, [r2, #0]
 8003d82:	4b09      	ldr	r3, [pc, #36]	; (8003da8 <HAL_RCC_ClockConfig+0x1d0>)
 8003d84:	681b      	ldr	r3, [r3, #0]
 8003d86:	4618      	mov	r0, r3
 8003d88:	f7fe ff8a 	bl	8002ca0 <HAL_InitTick>
 8003d8c:	2300      	movs	r3, #0
 8003d8e:	4618      	mov	r0, r3
 8003d90:	3710      	adds	r7, #16
 8003d92:	46bd      	mov	sp, r7
 8003d94:	bd80      	pop	{r7, pc}
 8003d96:	bf00      	nop
 8003d98:	40022000 	.word	0x40022000
 8003d9c:	40021000 	.word	0x40021000
 8003da0:	08006e1c 	.word	0x08006e1c
 8003da4:	20000088 	.word	0x20000088
 8003da8:	2000008c 	.word	0x2000008c

08003dac <HAL_RCC_GetSysClockFreq>:
 8003dac:	b490      	push	{r4, r7}
 8003dae:	b08a      	sub	sp, #40	; 0x28
 8003db0:	af00      	add	r7, sp, #0
 8003db2:	4b2a      	ldr	r3, [pc, #168]	; (8003e5c <HAL_RCC_GetSysClockFreq+0xb0>)
 8003db4:	1d3c      	adds	r4, r7, #4
 8003db6:	cb0f      	ldmia	r3, {r0, r1, r2, r3}
 8003db8:	e884 000f 	stmia.w	r4, {r0, r1, r2, r3}
 8003dbc:	4b28      	ldr	r3, [pc, #160]	; (8003e60 <HAL_RCC_GetSysClockFreq+0xb4>)
 8003dbe:	881b      	ldrh	r3, [r3, #0]
 8003dc0:	803b      	strh	r3, [r7, #0]
 8003dc2:	2300      	movs	r3, #0
 8003dc4:	61fb      	str	r3, [r7, #28]
 8003dc6:	2300      	movs	r3, #0
 8003dc8:	61bb      	str	r3, [r7, #24]
 8003dca:	2300      	movs	r3, #0
 8003dcc:	627b      	str	r3, [r7, #36]	; 0x24
 8003dce:	2300      	movs	r3, #0
 8003dd0:	617b      	str	r3, [r7, #20]
 8003dd2:	2300      	movs	r3, #0
 8003dd4:	623b      	str	r3, [r7, #32]
 8003dd6:	4b23      	ldr	r3, [pc, #140]	; (8003e64 <HAL_RCC_GetSysClockFreq+0xb8>)
 8003dd8:	685b      	ldr	r3, [r3, #4]
 8003dda:	61fb      	str	r3, [r7, #28]
 8003ddc:	69fb      	ldr	r3, [r7, #28]
 8003dde:	f003 030c 	and.w	r3, r3, #12
 8003de2:	2b04      	cmp	r3, #4
 8003de4:	d002      	beq.n	8003dec <HAL_RCC_GetSysClockFreq+0x40>
 8003de6:	2b08      	cmp	r3, #8
 8003de8:	d003      	beq.n	8003df2 <HAL_RCC_GetSysClockFreq+0x46>
 8003dea:	e02d      	b.n	8003e48 <HAL_RCC_GetSysClockFreq+0x9c>
 8003dec:	4b1e      	ldr	r3, [pc, #120]	; (8003e68 <HAL_RCC_GetSysClockFreq+0xbc>)
 8003dee:	623b      	str	r3, [r7, #32]
 8003df0:	e02d      	b.n	8003e4e <HAL_RCC_GetSysClockFreq+0xa2>
 8003df2:	69fb      	ldr	r3, [r7, #28]
 8003df4:	0c9b      	lsrs	r3, r3, #18
 8003df6:	f003 030f 	and.w	r3, r3, #15
 8003dfa:	f107 0228 	add.w	r2, r7, #40	; 0x28
 8003dfe:	4413      	add	r3, r2
 8003e00:	f813 3c24 	ldrb.w	r3, [r3, #-36]
 8003e04:	617b      	str	r3, [r7, #20]
 8003e06:	69fb      	ldr	r3, [r7, #28]
 8003e08:	f403 3380 	and.w	r3, r3, #65536	; 0x10000
 8003e0c:	2b00      	cmp	r3, #0
 8003e0e:	d013      	beq.n	8003e38 <HAL_RCC_GetSysClockFreq+0x8c>
 8003e10:	4b14      	ldr	r3, [pc, #80]	; (8003e64 <HAL_RCC_GetSysClockFreq+0xb8>)
 8003e12:	685b      	ldr	r3, [r3, #4]
 8003e14:	0c5b      	lsrs	r3, r3, #17
 8003e16:	f003 0301 	and.w	r3, r3, #1
 8003e1a:	f107 0228 	add.w	r2, r7, #40	; 0x28
 8003e1e:	4413      	add	r3, r2
 8003e20:	f813 3c28 	ldrb.w	r3, [r3, #-40]
 8003e24:	61bb      	str	r3, [r7, #24]
 8003e26:	697b      	ldr	r3, [r7, #20]
 8003e28:	4a0f      	ldr	r2, [pc, #60]	; (8003e68 <HAL_RCC_GetSysClockFreq+0xbc>)
 8003e2a:	fb02 f203 	mul.w	r2, r2, r3
 8003e2e:	69bb      	ldr	r3, [r7, #24]
 8003e30:	fbb2 f3f3 	udiv	r3, r2, r3
 8003e34:	627b      	str	r3, [r7, #36]	; 0x24
 8003e36:	e004      	b.n	8003e42 <HAL_RCC_GetSysClockFreq+0x96>
 8003e38:	697b      	ldr	r3, [r7, #20]
 8003e3a:	4a0c      	ldr	r2, [pc, #48]	; (8003e6c <HAL_RCC_GetSysClockFreq+0xc0>)
 8003e3c:	fb02 f303 	mul.w	r3, r2, r3
 8003e40:	627b      	str	r3, [r7, #36]	; 0x24
 8003e42:	6a7b      	ldr	r3, [r7, #36]	; 0x24
 8003e44:	623b      	str	r3, [r7, #32]
 8003e46:	e002      	b.n	8003e4e <HAL_RCC_GetSysClockFreq+0xa2>
 8003e48:	4b07      	ldr	r3, [pc, #28]	; (8003e68 <HAL_RCC_GetSysClockFreq+0xbc>)
 8003e4a:	623b      	str	r3, [r7, #32]
 8003e4c:	bf00      	nop
 8003e4e:	6a3b      	ldr	r3, [r7, #32]
 8003e50:	4618      	mov	r0, r3
 8003e52:	3728      	adds	r7, #40	; 0x28
 8003e54:	46bd      	mov	sp, r7
 8003e56:	bc90      	pop	{r4, r7}
 8003e58:	4770      	bx	lr
 8003e5a:	bf00      	nop
 8003e5c:	08006df4 	.word	0x08006df4
 8003e60:	08006e04 	.word	0x08006e04
 8003e64:	40021000 	.word	0x40021000
 8003e68:	007a1200 	.word	0x007a1200
 8003e6c:	003d0900 	.word	0x003d0900

08003e70 <HAL_RCC_GetHCLKFreq>:
 8003e70:	b480      	push	{r7}
 8003e72:	af00      	add	r7, sp, #0
 8003e74:	4b02      	ldr	r3, [pc, #8]	; (8003e80 <HAL_RCC_GetHCLKFreq+0x10>)
 8003e76:	681b      	ldr	r3, [r3, #0]
 8003e78:	4618      	mov	r0, r3
 8003e7a:	46bd      	mov	sp, r7
 8003e7c:	bc80      	pop	{r7}
 8003e7e:	4770      	bx	lr
 8003e80:	20000088 	.word	0x20000088

08003e84 <HAL_RCC_GetPCLK1Freq>:
 8003e84:	b580      	push	{r7, lr}
 8003e86:	af00      	add	r7, sp, #0
 8003e88:	f7ff fff2 	bl	8003e70 <HAL_RCC_GetHCLKFreq>
 8003e8c:	4601      	mov	r1, r0
 8003e8e:	4b05      	ldr	r3, [pc, #20]	; (8003ea4 <HAL_RCC_GetPCLK1Freq+0x20>)
 8003e90:	685b      	ldr	r3, [r3, #4]
 8003e92:	0a1b      	lsrs	r3, r3, #8
 8003e94:	f003 0307 	and.w	r3, r3, #7
 8003e98:	4a03      	ldr	r2, [pc, #12]	; (8003ea8 <HAL_RCC_GetPCLK1Freq+0x24>)
 8003e9a:	5cd3      	ldrb	r3, [r2, r3]
 8003e9c:	fa21 f303 	lsr.w	r3, r1, r3
 8003ea0:	4618      	mov	r0, r3
 8003ea2:	bd80      	pop	{r7, pc}
 8003ea4:	40021000 	.word	0x40021000
 8003ea8:	08006e2c 	.word	0x08006e2c

08003eac <HAL_RCC_GetPCLK2Freq>:
 8003eac:	b580      	push	{r7, lr}
 8003eae:	af00      	add	r7, sp, #0
 8003eb0:	f7ff ffde 	bl	8003e70 <HAL_RCC_GetHCLKFreq>
 8003eb4:	4601      	mov	r1, r0
 8003eb6:	4b05      	ldr	r3, [pc, #20]	; (8003ecc <HAL_RCC_GetPCLK2Freq+0x20>)
 8003eb8:	685b      	ldr	r3, [r3, #4]
 8003eba:	0adb      	lsrs	r3, r3, #11
 8003ebc:	f003 0307 	and.w	r3, r3, #7
 8003ec0:	4a03      	ldr	r2, [pc, #12]	; (8003ed0 <HAL_RCC_GetPCLK2Freq+0x24>)
 8003ec2:	5cd3      	ldrb	r3, [r2, r3]
 8003ec4:	fa21 f303 	lsr.w	r3, r1, r3
 8003ec8:	4618      	mov	r0, r3
 8003eca:	bd80      	pop	{r7, pc}
 8003ecc:	40021000 	.word	0x40021000
 8003ed0:	08006e2c 	.word	0x08006e2c

08003ed4 <RCC_Delay>:
 8003ed4:	b480      	push	{r7}
 8003ed6:	b085      	sub	sp, #20
 8003ed8:	af00      	add	r7, sp, #0
 8003eda:	6078      	str	r0, [r7, #4]
 8003edc:	4b0a      	ldr	r3, [pc, #40]	; (8003f08 <RCC_Delay+0x34>)
 8003ede:	681b      	ldr	r3, [r3, #0]
 8003ee0:	4a0a      	ldr	r2, [pc, #40]	; (8003f0c <RCC_Delay+0x38>)
 8003ee2:	fba2 2303 	umull	r2, r3, r2, r3
 8003ee6:	0a5b      	lsrs	r3, r3, #9
 8003ee8:	687a      	ldr	r2, [r7, #4]
 8003eea:	fb02 f303 	mul.w	r3, r2, r3
 8003eee:	60fb      	str	r3, [r7, #12]
 8003ef0:	bf00      	nop
 8003ef2:	68fb      	ldr	r3, [r7, #12]
 8003ef4:	1e5a      	subs	r2, r3, #1
 8003ef6:	60fa      	str	r2, [r7, #12]
 8003ef8:	2b00      	cmp	r3, #0
 8003efa:	d1f9      	bne.n	8003ef0 <RCC_Delay+0x1c>
 8003efc:	bf00      	nop
 8003efe:	3714      	adds	r7, #20
 8003f00:	46bd      	mov	sp, r7
 8003f02:	bc80      	pop	{r7}
 8003f04:	4770      	bx	lr
 8003f06:	bf00      	nop
 8003f08:	20000088 	.word	0x20000088
 8003f0c:	10624dd3 	.word	0x10624dd3

08003f10 <HAL_RCCEx_PeriphCLKConfig>:
 8003f10:	b580      	push	{r7, lr}
 8003f12:	b086      	sub	sp, #24
 8003f14:	af00      	add	r7, sp, #0
 8003f16:	6078      	str	r0, [r7, #4]
 8003f18:	2300      	movs	r3, #0
 8003f1a:	613b      	str	r3, [r7, #16]
 8003f1c:	2300      	movs	r3, #0
 8003f1e:	60fb      	str	r3, [r7, #12]
 8003f20:	687b      	ldr	r3, [r7, #4]
 8003f22:	681b      	ldr	r3, [r3, #0]
 8003f24:	f003 0301 	and.w	r3, r3, #1
 8003f28:	2b00      	cmp	r3, #0
 8003f2a:	d07d      	beq.n	8004028 <HAL_RCCEx_PeriphCLKConfig+0x118>
 8003f2c:	2300      	movs	r3, #0
 8003f2e:	75fb      	strb	r3, [r7, #23]
 8003f30:	4b4f      	ldr	r3, [pc, #316]	; (8004070 <HAL_RCCEx_PeriphCLKConfig+0x160>)
 8003f32:	69db      	ldr	r3, [r3, #28]
 8003f34:	f003 5380 	and.w	r3, r3, #268435456	; 0x10000000
 8003f38:	2b00      	cmp	r3, #0
 8003f3a:	d10d      	bne.n	8003f58 <HAL_RCCEx_PeriphCLKConfig+0x48>
 8003f3c:	4b4c      	ldr	r3, [pc, #304]	; (8004070 <HAL_RCCEx_PeriphCLKConfig+0x160>)
 8003f3e:	69db      	ldr	r3, [r3, #28]
 8003f40:	4a4b      	ldr	r2, [pc, #300]	; (8004070 <HAL_RCCEx_PeriphCLKConfig+0x160>)
 8003f42:	f043 5380 	orr.w	r3, r3, #268435456	; 0x10000000
 8003f46:	61d3      	str	r3, [r2, #28]
 8003f48:	4b49      	ldr	r3, [pc, #292]	; (8004070 <HAL_RCCEx_PeriphCLKConfig+0x160>)
 8003f4a:	69db      	ldr	r3, [r3, #28]
 8003f4c:	f003 5380 	and.w	r3, r3, #268435456	; 0x10000000
 8003f50:	60bb      	str	r3, [r7, #8]
 8003f52:	68bb      	ldr	r3, [r7, #8]
 8003f54:	2301      	movs	r3, #1
 8003f56:	75fb      	strb	r3, [r7, #23]
 8003f58:	4b46      	ldr	r3, [pc, #280]	; (8004074 <HAL_RCCEx_PeriphCLKConfig+0x164>)
 8003f5a:	681b      	ldr	r3, [r3, #0]
 8003f5c:	f403 7380 	and.w	r3, r3, #256	; 0x100
 8003f60:	2b00      	cmp	r3, #0
 8003f62:	d118      	bne.n	8003f96 <HAL_RCCEx_PeriphCLKConfig+0x86>
 8003f64:	4b43      	ldr	r3, [pc, #268]	; (8004074 <HAL_RCCEx_PeriphCLKConfig+0x164>)
 8003f66:	681b      	ldr	r3, [r3, #0]
 8003f68:	4a42      	ldr	r2, [pc, #264]	; (8004074 <HAL_RCCEx_PeriphCLKConfig+0x164>)
 8003f6a:	f443 7380 	orr.w	r3, r3, #256	; 0x100
 8003f6e:	6013      	str	r3, [r2, #0]
 8003f70:	f7fe fed8 	bl	8002d24 <HAL_GetTick>
 8003f74:	6138      	str	r0, [r7, #16]
 8003f76:	e008      	b.n	8003f8a <HAL_RCCEx_PeriphCLKConfig+0x7a>
 8003f78:	f7fe fed4 	bl	8002d24 <HAL_GetTick>
 8003f7c:	4602      	mov	r2, r0
 8003f7e:	693b      	ldr	r3, [r7, #16]
 8003f80:	1ad3      	subs	r3, r2, r3
 8003f82:	2b64      	cmp	r3, #100	; 0x64
 8003f84:	d901      	bls.n	8003f8a <HAL_RCCEx_PeriphCLKConfig+0x7a>
 8003f86:	2303      	movs	r3, #3
 8003f88:	e06d      	b.n	8004066 <HAL_RCCEx_PeriphCLKConfig+0x156>
 8003f8a:	4b3a      	ldr	r3, [pc, #232]	; (8004074 <HAL_RCCEx_PeriphCLKConfig+0x164>)
 8003f8c:	681b      	ldr	r3, [r3, #0]
 8003f8e:	f403 7380 	and.w	r3, r3, #256	; 0x100
 8003f92:	2b00      	cmp	r3, #0
 8003f94:	d0f0      	beq.n	8003f78 <HAL_RCCEx_PeriphCLKConfig+0x68>
 8003f96:	4b36      	ldr	r3, [pc, #216]	; (8004070 <HAL_RCCEx_PeriphCLKConfig+0x160>)
 8003f98:	6a1b      	ldr	r3, [r3, #32]
 8003f9a:	f403 7340 	and.w	r3, r3, #768	; 0x300
 8003f9e:	60fb      	str	r3, [r7, #12]
 8003fa0:	68fb      	ldr	r3, [r7, #12]
 8003fa2:	2b00      	cmp	r3, #0
 8003fa4:	d02e      	beq.n	8004004 <HAL_RCCEx_PeriphCLKConfig+0xf4>
 8003fa6:	687b      	ldr	r3, [r7, #4]
 8003fa8:	685b      	ldr	r3, [r3, #4]
 8003faa:	f403 7340 	and.w	r3, r3, #768	; 0x300
 8003fae:	68fa      	ldr	r2, [r7, #12]
 8003fb0:	429a      	cmp	r2, r3
 8003fb2:	d027      	beq.n	8004004 <HAL_RCCEx_PeriphCLKConfig+0xf4>
 8003fb4:	4b2e      	ldr	r3, [pc, #184]	; (8004070 <HAL_RCCEx_PeriphCLKConfig+0x160>)
 8003fb6:	6a1b      	ldr	r3, [r3, #32]
 8003fb8:	f423 7340 	bic.w	r3, r3, #768	; 0x300
 8003fbc:	60fb      	str	r3, [r7, #12]
 8003fbe:	4b2e      	ldr	r3, [pc, #184]	; (8004078 <HAL_RCCEx_PeriphCLKConfig+0x168>)
 8003fc0:	2201      	movs	r2, #1
 8003fc2:	601a      	str	r2, [r3, #0]
 8003fc4:	4b2c      	ldr	r3, [pc, #176]	; (8004078 <HAL_RCCEx_PeriphCLKConfig+0x168>)
 8003fc6:	2200      	movs	r2, #0
 8003fc8:	601a      	str	r2, [r3, #0]
 8003fca:	4a29      	ldr	r2, [pc, #164]	; (8004070 <HAL_RCCEx_PeriphCLKConfig+0x160>)
 8003fcc:	68fb      	ldr	r3, [r7, #12]
 8003fce:	6213      	str	r3, [r2, #32]
 8003fd0:	68fb      	ldr	r3, [r7, #12]
 8003fd2:	f003 0301 	and.w	r3, r3, #1
 8003fd6:	2b00      	cmp	r3, #0
 8003fd8:	d014      	beq.n	8004004 <HAL_RCCEx_PeriphCLKConfig+0xf4>
 8003fda:	f7fe fea3 	bl	8002d24 <HAL_GetTick>
 8003fde:	6138      	str	r0, [r7, #16]
 8003fe0:	e00a      	b.n	8003ff8 <HAL_RCCEx_PeriphCLKConfig+0xe8>
 8003fe2:	f7fe fe9f 	bl	8002d24 <HAL_GetTick>
 8003fe6:	4602      	mov	r2, r0
 8003fe8:	693b      	ldr	r3, [r7, #16]
 8003fea:	1ad3      	subs	r3, r2, r3
 8003fec:	f241 3288 	movw	r2, #5000	; 0x1388
 8003ff0:	4293      	cmp	r3, r2
 8003ff2:	d901      	bls.n	8003ff8 <HAL_RCCEx_PeriphCLKConfig+0xe8>
 8003ff4:	2303      	movs	r3, #3
 8003ff6:	e036      	b.n	8004066 <HAL_RCCEx_PeriphCLKConfig+0x156>
 8003ff8:	4b1d      	ldr	r3, [pc, #116]	; (8004070 <HAL_RCCEx_PeriphCLKConfig+0x160>)
 8003ffa:	6a1b      	ldr	r3, [r3, #32]
 8003ffc:	f003 0302 	and.w	r3, r3, #2
 8004000:	2b00      	cmp	r3, #0
 8004002:	d0ee      	beq.n	8003fe2 <HAL_RCCEx_PeriphCLKConfig+0xd2>
 8004004:	4b1a      	ldr	r3, [pc, #104]	; (8004070 <HAL_RCCEx_PeriphCLKConfig+0x160>)
 8004006:	6a1b      	ldr	r3, [r3, #32]
 8004008:	f423 7240 	bic.w	r2, r3, #768	; 0x300
 800400c:	687b      	ldr	r3, [r7, #4]
 800400e:	685b      	ldr	r3, [r3, #4]
 8004010:	4917      	ldr	r1, [pc, #92]	; (8004070 <HAL_RCCEx_PeriphCLKConfig+0x160>)
 8004012:	4313      	orrs	r3, r2
 8004014:	620b      	str	r3, [r1, #32]
 8004016:	7dfb      	ldrb	r3, [r7, #23]
 8004018:	2b01      	cmp	r3, #1
 800401a:	d105      	bne.n	8004028 <HAL_RCCEx_PeriphCLKConfig+0x118>
 800401c:	4b14      	ldr	r3, [pc, #80]	; (8004070 <HAL_RCCEx_PeriphCLKConfig+0x160>)
 800401e:	69db      	ldr	r3, [r3, #28]
 8004020:	4a13      	ldr	r2, [pc, #76]	; (8004070 <HAL_RCCEx_PeriphCLKConfig+0x160>)
 8004022:	f023 5380 	bic.w	r3, r3, #268435456	; 0x10000000
 8004026:	61d3      	str	r3, [r2, #28]
 8004028:	687b      	ldr	r3, [r7, #4]
 800402a:	681b      	ldr	r3, [r3, #0]
 800402c:	f003 0302 	and.w	r3, r3, #2
 8004030:	2b00      	cmp	r3, #0
 8004032:	d008      	beq.n	8004046 <HAL_RCCEx_PeriphCLKConfig+0x136>
 8004034:	4b0e      	ldr	r3, [pc, #56]	; (8004070 <HAL_RCCEx_PeriphCLKConfig+0x160>)
 8004036:	685b      	ldr	r3, [r3, #4]
 8004038:	f423 4240 	bic.w	r2, r3, #49152	; 0xc000
 800403c:	687b      	ldr	r3, [r7, #4]
 800403e:	689b      	ldr	r3, [r3, #8]
 8004040:	490b      	ldr	r1, [pc, #44]	; (8004070 <HAL_RCCEx_PeriphCLKConfig+0x160>)
 8004042:	4313      	orrs	r3, r2
 8004044:	604b      	str	r3, [r1, #4]
 8004046:	687b      	ldr	r3, [r7, #4]
 8004048:	681b      	ldr	r3, [r3, #0]
 800404a:	f003 0310 	and.w	r3, r3, #16
 800404e:	2b00      	cmp	r3, #0
 8004050:	d008      	beq.n	8004064 <HAL_RCCEx_PeriphCLKConfig+0x154>
 8004052:	4b07      	ldr	r3, [pc, #28]	; (8004070 <HAL_RCCEx_PeriphCLKConfig+0x160>)
 8004054:	685b      	ldr	r3, [r3, #4]
 8004056:	f423 0280 	bic.w	r2, r3, #4194304	; 0x400000
 800405a:	687b      	ldr	r3, [r7, #4]
 800405c:	68db      	ldr	r3, [r3, #12]
 800405e:	4904      	ldr	r1, [pc, #16]	; (8004070 <HAL_RCCEx_PeriphCLKConfig+0x160>)
 8004060:	4313      	orrs	r3, r2
 8004062:	604b      	str	r3, [r1, #4]
 8004064:	2300      	movs	r3, #0
 8004066:	4618      	mov	r0, r3
 8004068:	3718      	adds	r7, #24
 800406a:	46bd      	mov	sp, r7
 800406c:	bd80      	pop	{r7, pc}
 800406e:	bf00      	nop
 8004070:	40021000 	.word	0x40021000
 8004074:	40007000 	.word	0x40007000
 8004078:	42420440 	.word	0x42420440

0800407c <HAL_RCCEx_GetPeriphCLKFreq>:
 800407c:	b590      	push	{r4, r7, lr}
 800407e:	b08d      	sub	sp, #52	; 0x34
 8004080:	af00      	add	r7, sp, #0
 8004082:	6078      	str	r0, [r7, #4]
 8004084:	4b55      	ldr	r3, [pc, #340]	; (80041dc <HAL_RCCEx_GetPeriphCLKFreq+0x160>)
 8004086:	f107 040c 	add.w	r4, r7, #12
 800408a:	cb0f      	ldmia	r3, {r0, r1, r2, r3}
 800408c:	e884 000f 	stmia.w	r4, {r0, r1, r2, r3}
 8004090:	4b53      	ldr	r3, [pc, #332]	; (80041e0 <HAL_RCCEx_GetPeriphCLKFreq+0x164>)
 8004092:	881b      	ldrh	r3, [r3, #0]
 8004094:	813b      	strh	r3, [r7, #8]
 8004096:	2300      	movs	r3, #0
 8004098:	627b      	str	r3, [r7, #36]	; 0x24
 800409a:	2300      	movs	r3, #0
 800409c:	62fb      	str	r3, [r7, #44]	; 0x2c
 800409e:	2300      	movs	r3, #0
 80040a0:	623b      	str	r3, [r7, #32]
 80040a2:	2300      	movs	r3, #0
 80040a4:	61fb      	str	r3, [r7, #28]
 80040a6:	2300      	movs	r3, #0
 80040a8:	62bb      	str	r3, [r7, #40]	; 0x28
 80040aa:	687b      	ldr	r3, [r7, #4]
 80040ac:	2b02      	cmp	r3, #2
 80040ae:	d07f      	beq.n	80041b0 <HAL_RCCEx_GetPeriphCLKFreq+0x134>
 80040b0:	2b10      	cmp	r3, #16
 80040b2:	d002      	beq.n	80040ba <HAL_RCCEx_GetPeriphCLKFreq+0x3e>
 80040b4:	2b01      	cmp	r3, #1
 80040b6:	d048      	beq.n	800414a <HAL_RCCEx_GetPeriphCLKFreq+0xce>
 80040b8:	e08b      	b.n	80041d2 <HAL_RCCEx_GetPeriphCLKFreq+0x156>
 80040ba:	4b4a      	ldr	r3, [pc, #296]	; (80041e4 <HAL_RCCEx_GetPeriphCLKFreq+0x168>)
 80040bc:	685b      	ldr	r3, [r3, #4]
 80040be:	61fb      	str	r3, [r7, #28]
 80040c0:	4b48      	ldr	r3, [pc, #288]	; (80041e4 <HAL_RCCEx_GetPeriphCLKFreq+0x168>)
 80040c2:	681b      	ldr	r3, [r3, #0]
 80040c4:	f003 7380 	and.w	r3, r3, #16777216	; 0x1000000
 80040c8:	2b00      	cmp	r3, #0
 80040ca:	d07f      	beq.n	80041cc <HAL_RCCEx_GetPeriphCLKFreq+0x150>
 80040cc:	69fb      	ldr	r3, [r7, #28]
 80040ce:	0c9b      	lsrs	r3, r3, #18
 80040d0:	f003 030f 	and.w	r3, r3, #15
 80040d4:	f107 0230 	add.w	r2, r7, #48	; 0x30
 80040d8:	4413      	add	r3, r2
 80040da:	f813 3c24 	ldrb.w	r3, [r3, #-36]
 80040de:	623b      	str	r3, [r7, #32]
 80040e0:	69fb      	ldr	r3, [r7, #28]
 80040e2:	f403 3380 	and.w	r3, r3, #65536	; 0x10000
 80040e6:	2b00      	cmp	r3, #0
 80040e8:	d018      	beq.n	800411c <HAL_RCCEx_GetPeriphCLKFreq+0xa0>
 80040ea:	4b3e      	ldr	r3, [pc, #248]	; (80041e4 <HAL_RCCEx_GetPeriphCLKFreq+0x168>)
 80040ec:	685b      	ldr	r3, [r3, #4]
 80040ee:	0c5b      	lsrs	r3, r3, #17
 80040f0:	f003 0301 	and.w	r3, r3, #1
 80040f4:	f107 0230 	add.w	r2, r7, #48	; 0x30
 80040f8:	4413      	add	r3, r2
 80040fa:	f813 3c28 	ldrb.w	r3, [r3, #-40]
 80040fe:	627b      	str	r3, [r7, #36]	; 0x24
 8004100:	69fb      	ldr	r3, [r7, #28]
 8004102:	f403 3380 	and.w	r3, r3, #65536	; 0x10000
 8004106:	2b00      	cmp	r3, #0
 8004108:	d00d      	beq.n	8004126 <HAL_RCCEx_GetPeriphCLKFreq+0xaa>
 800410a:	4a37      	ldr	r2, [pc, #220]	; (80041e8 <HAL_RCCEx_GetPeriphCLKFreq+0x16c>)
 800410c:	6a7b      	ldr	r3, [r7, #36]	; 0x24
 800410e:	fbb2 f2f3 	udiv	r2, r2, r3
 8004112:	6a3b      	ldr	r3, [r7, #32]
 8004114:	fb02 f303 	mul.w	r3, r2, r3
 8004118:	62fb      	str	r3, [r7, #44]	; 0x2c
 800411a:	e004      	b.n	8004126 <HAL_RCCEx_GetPeriphCLKFreq+0xaa>
 800411c:	6a3b      	ldr	r3, [r7, #32]
 800411e:	4a33      	ldr	r2, [pc, #204]	; (80041ec <HAL_RCCEx_GetPeriphCLKFreq+0x170>)
 8004120:	fb02 f303 	mul.w	r3, r2, r3
 8004124:	62fb      	str	r3, [r7, #44]	; 0x2c
 8004126:	4b2f      	ldr	r3, [pc, #188]	; (80041e4 <HAL_RCCEx_GetPeriphCLKFreq+0x168>)
 8004128:	685b      	ldr	r3, [r3, #4]
 800412a:	f403 0380 	and.w	r3, r3, #4194304	; 0x400000
 800412e:	f5b3 0f80 	cmp.w	r3, #4194304	; 0x400000
 8004132:	d102      	bne.n	800413a <HAL_RCCEx_GetPeriphCLKFreq+0xbe>
 8004134:	6afb      	ldr	r3, [r7, #44]	; 0x2c
 8004136:	62bb      	str	r3, [r7, #40]	; 0x28
 8004138:	e048      	b.n	80041cc <HAL_RCCEx_GetPeriphCLKFreq+0x150>
 800413a:	6afb      	ldr	r3, [r7, #44]	; 0x2c
 800413c:	005b      	lsls	r3, r3, #1
 800413e:	4a2c      	ldr	r2, [pc, #176]	; (80041f0 <HAL_RCCEx_GetPeriphCLKFreq+0x174>)
 8004140:	fba2 2303 	umull	r2, r3, r2, r3
 8004144:	085b      	lsrs	r3, r3, #1
 8004146:	62bb      	str	r3, [r7, #40]	; 0x28
 8004148:	e040      	b.n	80041cc <HAL_RCCEx_GetPeriphCLKFreq+0x150>
 800414a:	4b26      	ldr	r3, [pc, #152]	; (80041e4 <HAL_RCCEx_GetPeriphCLKFreq+0x168>)
 800414c:	6a1b      	ldr	r3, [r3, #32]
 800414e:	61fb      	str	r3, [r7, #28]
 8004150:	69fb      	ldr	r3, [r7, #28]
 8004152:	f403 7340 	and.w	r3, r3, #768	; 0x300
 8004156:	f5b3 7f80 	cmp.w	r3, #256	; 0x100
 800415a:	d108      	bne.n	800416e <HAL_RCCEx_GetPeriphCLKFreq+0xf2>
 800415c:	69fb      	ldr	r3, [r7, #28]
 800415e:	f003 0302 	and.w	r3, r3, #2
 8004162:	2b00      	cmp	r3, #0
 8004164:	d003      	beq.n	800416e <HAL_RCCEx_GetPeriphCLKFreq+0xf2>
 8004166:	f44f 4300 	mov.w	r3, #32768	; 0x8000
 800416a:	62bb      	str	r3, [r7, #40]	; 0x28
 800416c:	e01f      	b.n	80041ae <HAL_RCCEx_GetPeriphCLKFreq+0x132>
 800416e:	69fb      	ldr	r3, [r7, #28]
 8004170:	f403 7340 	and.w	r3, r3, #768	; 0x300
 8004174:	f5b3 7f00 	cmp.w	r3, #512	; 0x200
 8004178:	d109      	bne.n	800418e <HAL_RCCEx_GetPeriphCLKFreq+0x112>
 800417a:	4b1a      	ldr	r3, [pc, #104]	; (80041e4 <HAL_RCCEx_GetPeriphCLKFreq+0x168>)
 800417c:	6a5b      	ldr	r3, [r3, #36]	; 0x24
 800417e:	f003 0302 	and.w	r3, r3, #2
 8004182:	2b00      	cmp	r3, #0
 8004184:	d003      	beq.n	800418e <HAL_RCCEx_GetPeriphCLKFreq+0x112>
 8004186:	f649 4340 	movw	r3, #40000	; 0x9c40
 800418a:	62bb      	str	r3, [r7, #40]	; 0x28
 800418c:	e00f      	b.n	80041ae <HAL_RCCEx_GetPeriphCLKFreq+0x132>
 800418e:	69fb      	ldr	r3, [r7, #28]
 8004190:	f403 7340 	and.w	r3, r3, #768	; 0x300
 8004194:	f5b3 7f40 	cmp.w	r3, #768	; 0x300
 8004198:	d11a      	bne.n	80041d0 <HAL_RCCEx_GetPeriphCLKFreq+0x154>
 800419a:	4b12      	ldr	r3, [pc, #72]	; (80041e4 <HAL_RCCEx_GetPeriphCLKFreq+0x168>)
 800419c:	681b      	ldr	r3, [r3, #0]
 800419e:	f403 3300 	and.w	r3, r3, #131072	; 0x20000
 80041a2:	2b00      	cmp	r3, #0
 80041a4:	d014      	beq.n	80041d0 <HAL_RCCEx_GetPeriphCLKFreq+0x154>
 80041a6:	f24f 4324 	movw	r3, #62500	; 0xf424
 80041aa:	62bb      	str	r3, [r7, #40]	; 0x28
 80041ac:	e010      	b.n	80041d0 <HAL_RCCEx_GetPeriphCLKFreq+0x154>
 80041ae:	e00f      	b.n	80041d0 <HAL_RCCEx_GetPeriphCLKFreq+0x154>
 80041b0:	f7ff fe7c 	bl	8003eac <HAL_RCC_GetPCLK2Freq>
 80041b4:	4602      	mov	r2, r0
 80041b6:	4b0b      	ldr	r3, [pc, #44]	; (80041e4 <HAL_RCCEx_GetPeriphCLKFreq+0x168>)
 80041b8:	685b      	ldr	r3, [r3, #4]
 80041ba:	0b9b      	lsrs	r3, r3, #14
 80041bc:	f003 0303 	and.w	r3, r3, #3
 80041c0:	3301      	adds	r3, #1
 80041c2:	005b      	lsls	r3, r3, #1
 80041c4:	fbb2 f3f3 	udiv	r3, r2, r3
 80041c8:	62bb      	str	r3, [r7, #40]	; 0x28
 80041ca:	e002      	b.n	80041d2 <HAL_RCCEx_GetPeriphCLKFreq+0x156>
 80041cc:	bf00      	nop
 80041ce:	e000      	b.n	80041d2 <HAL_RCCEx_GetPeriphCLKFreq+0x156>
 80041d0:	bf00      	nop
 80041d2:	6abb      	ldr	r3, [r7, #40]	; 0x28
 80041d4:	4618      	mov	r0, r3
 80041d6:	3734      	adds	r7, #52	; 0x34
 80041d8:	46bd      	mov	sp, r7
 80041da:	bd90      	pop	{r4, r7, pc}
 80041dc:	08006e08 	.word	0x08006e08
 80041e0:	08006e18 	.word	0x08006e18
 80041e4:	40021000 	.word	0x40021000
 80041e8:	007a1200 	.word	0x007a1200
 80041ec:	003d0900 	.word	0x003d0900
 80041f0:	aaaaaaab 	.word	0xaaaaaaab

080041f4 <HAL_RTC_Init>:
 80041f4:	b580      	push	{r7, lr}
 80041f6:	b084      	sub	sp, #16
 80041f8:	af00      	add	r7, sp, #0
 80041fa:	6078      	str	r0, [r7, #4]
 80041fc:	2300      	movs	r3, #0
 80041fe:	60fb      	str	r3, [r7, #12]
 8004200:	687b      	ldr	r3, [r7, #4]
 8004202:	2b00      	cmp	r3, #0
 8004204:	d101      	bne.n	800420a <HAL_RTC_Init+0x16>
 8004206:	2301      	movs	r3, #1
 8004208:	e084      	b.n	8004314 <HAL_RTC_Init+0x120>
 800420a:	687b      	ldr	r3, [r7, #4]
 800420c:	7c5b      	ldrb	r3, [r3, #17]
 800420e:	b2db      	uxtb	r3, r3
 8004210:	2b00      	cmp	r3, #0
 8004212:	d105      	bne.n	8004220 <HAL_RTC_Init+0x2c>
 8004214:	687b      	ldr	r3, [r7, #4]
 8004216:	2200      	movs	r2, #0
 8004218:	741a      	strb	r2, [r3, #16]
 800421a:	6878      	ldr	r0, [r7, #4]
 800421c:	f7fe fa14 	bl	8002648 <HAL_RTC_MspInit>
 8004220:	687b      	ldr	r3, [r7, #4]
 8004222:	2202      	movs	r2, #2
 8004224:	745a      	strb	r2, [r3, #17]
 8004226:	6878      	ldr	r0, [r7, #4]
 8004228:	f000 fbd0 	bl	80049cc <HAL_RTC_WaitForSynchro>
 800422c:	4603      	mov	r3, r0
 800422e:	2b00      	cmp	r3, #0
 8004230:	d004      	beq.n	800423c <HAL_RTC_Init+0x48>
 8004232:	687b      	ldr	r3, [r7, #4]
 8004234:	2204      	movs	r2, #4
 8004236:	745a      	strb	r2, [r3, #17]
 8004238:	2301      	movs	r3, #1
 800423a:	e06b      	b.n	8004314 <HAL_RTC_Init+0x120>
 800423c:	6878      	ldr	r0, [r7, #4]
 800423e:	f000 fc89 	bl	8004b54 <RTC_EnterInitMode>
 8004242:	4603      	mov	r3, r0
 8004244:	2b00      	cmp	r3, #0
 8004246:	d004      	beq.n	8004252 <HAL_RTC_Init+0x5e>
 8004248:	687b      	ldr	r3, [r7, #4]
 800424a:	2204      	movs	r2, #4
 800424c:	745a      	strb	r2, [r3, #17]
 800424e:	2301      	movs	r3, #1
 8004250:	e060      	b.n	8004314 <HAL_RTC_Init+0x120>
 8004252:	687b      	ldr	r3, [r7, #4]
 8004254:	681b      	ldr	r3, [r3, #0]
 8004256:	685a      	ldr	r2, [r3, #4]
 8004258:	687b      	ldr	r3, [r7, #4]
 800425a:	681b      	ldr	r3, [r3, #0]
 800425c:	f022 0207 	bic.w	r2, r2, #7
 8004260:	605a      	str	r2, [r3, #4]
 8004262:	687b      	ldr	r3, [r7, #4]
 8004264:	689b      	ldr	r3, [r3, #8]
 8004266:	2b00      	cmp	r3, #0
 8004268:	d005      	beq.n	8004276 <HAL_RTC_Init+0x82>
 800426a:	4b2c      	ldr	r3, [pc, #176]	; (800431c <HAL_RTC_Init+0x128>)
 800426c:	6b1b      	ldr	r3, [r3, #48]	; 0x30
 800426e:	4a2b      	ldr	r2, [pc, #172]	; (800431c <HAL_RTC_Init+0x128>)
 8004270:	f023 0301 	bic.w	r3, r3, #1
 8004274:	6313      	str	r3, [r2, #48]	; 0x30
 8004276:	4b29      	ldr	r3, [pc, #164]	; (800431c <HAL_RTC_Init+0x128>)
 8004278:	6adb      	ldr	r3, [r3, #44]	; 0x2c
 800427a:	f423 7260 	bic.w	r2, r3, #896	; 0x380
 800427e:	687b      	ldr	r3, [r7, #4]
 8004280:	689b      	ldr	r3, [r3, #8]
 8004282:	4926      	ldr	r1, [pc, #152]	; (800431c <HAL_RTC_Init+0x128>)
 8004284:	4313      	orrs	r3, r2
 8004286:	62cb      	str	r3, [r1, #44]	; 0x2c
 8004288:	687b      	ldr	r3, [r7, #4]
 800428a:	685b      	ldr	r3, [r3, #4]
 800428c:	f1b3 3fff 	cmp.w	r3, #4294967295
 8004290:	d003      	beq.n	800429a <HAL_RTC_Init+0xa6>
 8004292:	687b      	ldr	r3, [r7, #4]
 8004294:	685b      	ldr	r3, [r3, #4]
 8004296:	60fb      	str	r3, [r7, #12]
 8004298:	e00e      	b.n	80042b8 <HAL_RTC_Init+0xc4>
 800429a:	2001      	movs	r0, #1
 800429c:	f7ff feee 	bl	800407c <HAL_RCCEx_GetPeriphCLKFreq>
 80042a0:	60f8      	str	r0, [r7, #12]
 80042a2:	68fb      	ldr	r3, [r7, #12]
 80042a4:	2b00      	cmp	r3, #0
 80042a6:	d104      	bne.n	80042b2 <HAL_RTC_Init+0xbe>
 80042a8:	687b      	ldr	r3, [r7, #4]
 80042aa:	2204      	movs	r2, #4
 80042ac:	745a      	strb	r2, [r3, #17]
 80042ae:	2301      	movs	r3, #1
 80042b0:	e030      	b.n	8004314 <HAL_RTC_Init+0x120>
 80042b2:	68fb      	ldr	r3, [r7, #12]
 80042b4:	3b01      	subs	r3, #1
 80042b6:	60fb      	str	r3, [r7, #12]
 80042b8:	687b      	ldr	r3, [r7, #4]
 80042ba:	681b      	ldr	r3, [r3, #0]
 80042bc:	689b      	ldr	r3, [r3, #8]
 80042be:	f023 010f 	bic.w	r1, r3, #15
 80042c2:	68fb      	ldr	r3, [r7, #12]
 80042c4:	0c1a      	lsrs	r2, r3, #16
 80042c6:	687b      	ldr	r3, [r7, #4]
 80042c8:	681b      	ldr	r3, [r3, #0]
 80042ca:	430a      	orrs	r2, r1
 80042cc:	609a      	str	r2, [r3, #8]
 80042ce:	687b      	ldr	r3, [r7, #4]
 80042d0:	681b      	ldr	r3, [r3, #0]
 80042d2:	68db      	ldr	r3, [r3, #12]
 80042d4:	0c1b      	lsrs	r3, r3, #16
 80042d6:	041b      	lsls	r3, r3, #16
 80042d8:	68fa      	ldr	r2, [r7, #12]
 80042da:	b291      	uxth	r1, r2
 80042dc:	687a      	ldr	r2, [r7, #4]
 80042de:	6812      	ldr	r2, [r2, #0]
 80042e0:	430b      	orrs	r3, r1
 80042e2:	60d3      	str	r3, [r2, #12]
 80042e4:	6878      	ldr	r0, [r7, #4]
 80042e6:	f000 fc5d 	bl	8004ba4 <RTC_ExitInitMode>
 80042ea:	4603      	mov	r3, r0
 80042ec:	2b00      	cmp	r3, #0
 80042ee:	d004      	beq.n	80042fa <HAL_RTC_Init+0x106>
 80042f0:	687b      	ldr	r3, [r7, #4]
 80042f2:	2204      	movs	r2, #4
 80042f4:	745a      	strb	r2, [r3, #17]
 80042f6:	2301      	movs	r3, #1
 80042f8:	e00c      	b.n	8004314 <HAL_RTC_Init+0x120>
 80042fa:	687b      	ldr	r3, [r7, #4]
 80042fc:	2200      	movs	r2, #0
 80042fe:	73da      	strb	r2, [r3, #15]
 8004300:	687b      	ldr	r3, [r7, #4]
 8004302:	2201      	movs	r2, #1
 8004304:	735a      	strb	r2, [r3, #13]
 8004306:	687b      	ldr	r3, [r7, #4]
 8004308:	2201      	movs	r2, #1
 800430a:	739a      	strb	r2, [r3, #14]
 800430c:	687b      	ldr	r3, [r7, #4]
 800430e:	2201      	movs	r2, #1
 8004310:	745a      	strb	r2, [r3, #17]
 8004312:	2300      	movs	r3, #0
 8004314:	4618      	mov	r0, r3
 8004316:	3710      	adds	r7, #16
 8004318:	46bd      	mov	sp, r7
 800431a:	bd80      	pop	{r7, pc}
 800431c:	40006c00 	.word	0x40006c00

08004320 <HAL_RTC_SetTime>:
 8004320:	b590      	push	{r4, r7, lr}
 8004322:	b087      	sub	sp, #28
 8004324:	af00      	add	r7, sp, #0
 8004326:	60f8      	str	r0, [r7, #12]
 8004328:	60b9      	str	r1, [r7, #8]
 800432a:	607a      	str	r2, [r7, #4]
 800432c:	2300      	movs	r3, #0
 800432e:	617b      	str	r3, [r7, #20]
 8004330:	2300      	movs	r3, #0
 8004332:	613b      	str	r3, [r7, #16]
 8004334:	68fb      	ldr	r3, [r7, #12]
 8004336:	2b00      	cmp	r3, #0
 8004338:	d002      	beq.n	8004340 <HAL_RTC_SetTime+0x20>
 800433a:	68bb      	ldr	r3, [r7, #8]
 800433c:	2b00      	cmp	r3, #0
 800433e:	d101      	bne.n	8004344 <HAL_RTC_SetTime+0x24>
 8004340:	2301      	movs	r3, #1
 8004342:	e080      	b.n	8004446 <HAL_RTC_SetTime+0x126>
 8004344:	68fb      	ldr	r3, [r7, #12]
 8004346:	7c1b      	ldrb	r3, [r3, #16]
 8004348:	2b01      	cmp	r3, #1
 800434a:	d101      	bne.n	8004350 <HAL_RTC_SetTime+0x30>
 800434c:	2302      	movs	r3, #2
 800434e:	e07a      	b.n	8004446 <HAL_RTC_SetTime+0x126>
 8004350:	68fb      	ldr	r3, [r7, #12]
 8004352:	2201      	movs	r2, #1
 8004354:	741a      	strb	r2, [r3, #16]
 8004356:	68fb      	ldr	r3, [r7, #12]
 8004358:	2202      	movs	r2, #2
 800435a:	745a      	strb	r2, [r3, #17]
 800435c:	687b      	ldr	r3, [r7, #4]
 800435e:	2b00      	cmp	r3, #0
 8004360:	d113      	bne.n	800438a <HAL_RTC_SetTime+0x6a>
 8004362:	68bb      	ldr	r3, [r7, #8]
 8004364:	781b      	ldrb	r3, [r3, #0]
 8004366:	461a      	mov	r2, r3
 8004368:	f44f 6361 	mov.w	r3, #3600	; 0xe10
 800436c:	fb03 f202 	mul.w	r2, r3, r2
 8004370:	68bb      	ldr	r3, [r7, #8]
 8004372:	785b      	ldrb	r3, [r3, #1]
 8004374:	4619      	mov	r1, r3
 8004376:	460b      	mov	r3, r1
 8004378:	011b      	lsls	r3, r3, #4
 800437a:	1a5b      	subs	r3, r3, r1
 800437c:	009b      	lsls	r3, r3, #2
 800437e:	4413      	add	r3, r2
 8004380:	68ba      	ldr	r2, [r7, #8]
 8004382:	7892      	ldrb	r2, [r2, #2]
 8004384:	4413      	add	r3, r2
 8004386:	617b      	str	r3, [r7, #20]
 8004388:	e01e      	b.n	80043c8 <HAL_RTC_SetTime+0xa8>
 800438a:	68bb      	ldr	r3, [r7, #8]
 800438c:	781b      	ldrb	r3, [r3, #0]
 800438e:	4618      	mov	r0, r3
 8004390:	f000 fc4d 	bl	8004c2e <RTC_Bcd2ToByte>
 8004394:	4603      	mov	r3, r0
 8004396:	461a      	mov	r2, r3
 8004398:	f44f 6361 	mov.w	r3, #3600	; 0xe10
 800439c:	fb03 f402 	mul.w	r4, r3, r2
 80043a0:	68bb      	ldr	r3, [r7, #8]
 80043a2:	785b      	ldrb	r3, [r3, #1]
 80043a4:	4618      	mov	r0, r3
 80043a6:	f000 fc42 	bl	8004c2e <RTC_Bcd2ToByte>
 80043aa:	4603      	mov	r3, r0
 80043ac:	461a      	mov	r2, r3
 80043ae:	4613      	mov	r3, r2
 80043b0:	011b      	lsls	r3, r3, #4
 80043b2:	1a9b      	subs	r3, r3, r2
 80043b4:	009b      	lsls	r3, r3, #2
 80043b6:	441c      	add	r4, r3
 80043b8:	68bb      	ldr	r3, [r7, #8]
 80043ba:	789b      	ldrb	r3, [r3, #2]
 80043bc:	4618      	mov	r0, r3
 80043be:	f000 fc36 	bl	8004c2e <RTC_Bcd2ToByte>
 80043c2:	4603      	mov	r3, r0
 80043c4:	4423      	add	r3, r4
 80043c6:	617b      	str	r3, [r7, #20]
 80043c8:	6979      	ldr	r1, [r7, #20]
 80043ca:	68f8      	ldr	r0, [r7, #12]
 80043cc:	f000 fb5b 	bl	8004a86 <RTC_WriteTimeCounter>
 80043d0:	4603      	mov	r3, r0
 80043d2:	2b00      	cmp	r3, #0
 80043d4:	d007      	beq.n	80043e6 <HAL_RTC_SetTime+0xc6>
 80043d6:	68fb      	ldr	r3, [r7, #12]
 80043d8:	2204      	movs	r2, #4
 80043da:	745a      	strb	r2, [r3, #17]
 80043dc:	68fb      	ldr	r3, [r7, #12]
 80043de:	2200      	movs	r2, #0
 80043e0:	741a      	strb	r2, [r3, #16]
 80043e2:	2301      	movs	r3, #1
 80043e4:	e02f      	b.n	8004446 <HAL_RTC_SetTime+0x126>
 80043e6:	68fb      	ldr	r3, [r7, #12]
 80043e8:	681b      	ldr	r3, [r3, #0]
 80043ea:	685a      	ldr	r2, [r3, #4]
 80043ec:	68fb      	ldr	r3, [r7, #12]
 80043ee:	681b      	ldr	r3, [r3, #0]
 80043f0:	f022 0205 	bic.w	r2, r2, #5
 80043f4:	605a      	str	r2, [r3, #4]
 80043f6:	68f8      	ldr	r0, [r7, #12]
 80043f8:	f000 fb6c 	bl	8004ad4 <RTC_ReadAlarmCounter>
 80043fc:	6138      	str	r0, [r7, #16]
 80043fe:	693b      	ldr	r3, [r7, #16]
 8004400:	f1b3 3fff 	cmp.w	r3, #4294967295
 8004404:	d018      	beq.n	8004438 <HAL_RTC_SetTime+0x118>
 8004406:	693a      	ldr	r2, [r7, #16]
 8004408:	697b      	ldr	r3, [r7, #20]
 800440a:	429a      	cmp	r2, r3
 800440c:	d214      	bcs.n	8004438 <HAL_RTC_SetTime+0x118>
 800440e:	693b      	ldr	r3, [r7, #16]
 8004410:	f503 33a8 	add.w	r3, r3, #86016	; 0x15000
 8004414:	f503 73c0 	add.w	r3, r3, #384	; 0x180
 8004418:	613b      	str	r3, [r7, #16]
 800441a:	6939      	ldr	r1, [r7, #16]
 800441c:	68f8      	ldr	r0, [r7, #12]
 800441e:	f000 fb72 	bl	8004b06 <RTC_WriteAlarmCounter>
 8004422:	4603      	mov	r3, r0
 8004424:	2b00      	cmp	r3, #0
 8004426:	d007      	beq.n	8004438 <HAL_RTC_SetTime+0x118>
 8004428:	68fb      	ldr	r3, [r7, #12]
 800442a:	2204      	movs	r2, #4
 800442c:	745a      	strb	r2, [r3, #17]
 800442e:	68fb      	ldr	r3, [r7, #12]
 8004430:	2200      	movs	r2, #0
 8004432:	741a      	strb	r2, [r3, #16]
 8004434:	2301      	movs	r3, #1
 8004436:	e006      	b.n	8004446 <HAL_RTC_SetTime+0x126>
 8004438:	68fb      	ldr	r3, [r7, #12]
 800443a:	2201      	movs	r2, #1
 800443c:	745a      	strb	r2, [r3, #17]
 800443e:	68fb      	ldr	r3, [r7, #12]
 8004440:	2200      	movs	r2, #0
 8004442:	741a      	strb	r2, [r3, #16]
 8004444:	2300      	movs	r3, #0
 8004446:	4618      	mov	r0, r3
 8004448:	371c      	adds	r7, #28
 800444a:	46bd      	mov	sp, r7
 800444c:	bd90      	pop	{r4, r7, pc}
	...

08004450 <HAL_RTC_GetTime>:
 8004450:	b580      	push	{r7, lr}
 8004452:	b088      	sub	sp, #32
 8004454:	af00      	add	r7, sp, #0
 8004456:	60f8      	str	r0, [r7, #12]
 8004458:	60b9      	str	r1, [r7, #8]
 800445a:	607a      	str	r2, [r7, #4]
 800445c:	2300      	movs	r3, #0
 800445e:	61bb      	str	r3, [r7, #24]
 8004460:	2300      	movs	r3, #0
 8004462:	61fb      	str	r3, [r7, #28]
 8004464:	2300      	movs	r3, #0
 8004466:	617b      	str	r3, [r7, #20]
 8004468:	2300      	movs	r3, #0
 800446a:	613b      	str	r3, [r7, #16]
 800446c:	68fb      	ldr	r3, [r7, #12]
 800446e:	2b00      	cmp	r3, #0
 8004470:	d002      	beq.n	8004478 <HAL_RTC_GetTime+0x28>
 8004472:	68bb      	ldr	r3, [r7, #8]
 8004474:	2b00      	cmp	r3, #0
 8004476:	d101      	bne.n	800447c <HAL_RTC_GetTime+0x2c>
 8004478:	2301      	movs	r3, #1
 800447a:	e0b5      	b.n	80045e8 <HAL_RTC_GetTime+0x198>
 800447c:	68fb      	ldr	r3, [r7, #12]
 800447e:	681b      	ldr	r3, [r3, #0]
 8004480:	685b      	ldr	r3, [r3, #4]
 8004482:	f003 0304 	and.w	r3, r3, #4
 8004486:	2b00      	cmp	r3, #0
 8004488:	d001      	beq.n	800448e <HAL_RTC_GetTime+0x3e>
 800448a:	2301      	movs	r3, #1
 800448c:	e0ac      	b.n	80045e8 <HAL_RTC_GetTime+0x198>
 800448e:	68f8      	ldr	r0, [r7, #12]
 8004490:	f000 fac9 	bl	8004a26 <RTC_ReadTimeCounter>
 8004494:	61b8      	str	r0, [r7, #24]
 8004496:	69bb      	ldr	r3, [r7, #24]
 8004498:	4a55      	ldr	r2, [pc, #340]	; (80045f0 <HAL_RTC_GetTime+0x1a0>)
 800449a:	fba2 2303 	umull	r2, r3, r2, r3
 800449e:	0adb      	lsrs	r3, r3, #11
 80044a0:	613b      	str	r3, [r7, #16]
 80044a2:	69ba      	ldr	r2, [r7, #24]
 80044a4:	4b52      	ldr	r3, [pc, #328]	; (80045f0 <HAL_RTC_GetTime+0x1a0>)
 80044a6:	fba3 1302 	umull	r1, r3, r3, r2
 80044aa:	0adb      	lsrs	r3, r3, #11
 80044ac:	f44f 6161 	mov.w	r1, #3600	; 0xe10
 80044b0:	fb01 f303 	mul.w	r3, r1, r3
 80044b4:	1ad3      	subs	r3, r2, r3
 80044b6:	4a4f      	ldr	r2, [pc, #316]	; (80045f4 <HAL_RTC_GetTime+0x1a4>)
 80044b8:	fba2 2303 	umull	r2, r3, r2, r3
 80044bc:	095b      	lsrs	r3, r3, #5
 80044be:	b2da      	uxtb	r2, r3
 80044c0:	68bb      	ldr	r3, [r7, #8]
 80044c2:	705a      	strb	r2, [r3, #1]
 80044c4:	69bb      	ldr	r3, [r7, #24]
 80044c6:	4a4a      	ldr	r2, [pc, #296]	; (80045f0 <HAL_RTC_GetTime+0x1a0>)
 80044c8:	fba2 1203 	umull	r1, r2, r2, r3
 80044cc:	0ad2      	lsrs	r2, r2, #11
 80044ce:	f44f 6161 	mov.w	r1, #3600	; 0xe10
 80044d2:	fb01 f202 	mul.w	r2, r1, r2
 80044d6:	1a9a      	subs	r2, r3, r2
 80044d8:	4b46      	ldr	r3, [pc, #280]	; (80045f4 <HAL_RTC_GetTime+0x1a4>)
 80044da:	fba3 1302 	umull	r1, r3, r3, r2
 80044de:	0959      	lsrs	r1, r3, #5
 80044e0:	460b      	mov	r3, r1
 80044e2:	011b      	lsls	r3, r3, #4
 80044e4:	1a5b      	subs	r3, r3, r1
 80044e6:	009b      	lsls	r3, r3, #2
 80044e8:	1ad1      	subs	r1, r2, r3
 80044ea:	b2ca      	uxtb	r2, r1
 80044ec:	68bb      	ldr	r3, [r7, #8]
 80044ee:	709a      	strb	r2, [r3, #2]
 80044f0:	693b      	ldr	r3, [r7, #16]
 80044f2:	2b17      	cmp	r3, #23
 80044f4:	d955      	bls.n	80045a2 <HAL_RTC_GetTime+0x152>
 80044f6:	693b      	ldr	r3, [r7, #16]
 80044f8:	4a3f      	ldr	r2, [pc, #252]	; (80045f8 <HAL_RTC_GetTime+0x1a8>)
 80044fa:	fba2 2303 	umull	r2, r3, r2, r3
 80044fe:	091b      	lsrs	r3, r3, #4
 8004500:	617b      	str	r3, [r7, #20]
 8004502:	6939      	ldr	r1, [r7, #16]
 8004504:	4b3c      	ldr	r3, [pc, #240]	; (80045f8 <HAL_RTC_GetTime+0x1a8>)
 8004506:	fba3 2301 	umull	r2, r3, r3, r1
 800450a:	091a      	lsrs	r2, r3, #4
 800450c:	4613      	mov	r3, r2
 800450e:	005b      	lsls	r3, r3, #1
 8004510:	4413      	add	r3, r2
 8004512:	00db      	lsls	r3, r3, #3
 8004514:	1aca      	subs	r2, r1, r3
 8004516:	b2d2      	uxtb	r2, r2
 8004518:	68bb      	ldr	r3, [r7, #8]
 800451a:	701a      	strb	r2, [r3, #0]
 800451c:	68f8      	ldr	r0, [r7, #12]
 800451e:	f000 fad9 	bl	8004ad4 <RTC_ReadAlarmCounter>
 8004522:	61f8      	str	r0, [r7, #28]
 8004524:	69fb      	ldr	r3, [r7, #28]
 8004526:	f1b3 3fff 	cmp.w	r3, #4294967295
 800452a:	d008      	beq.n	800453e <HAL_RTC_GetTime+0xee>
 800452c:	69fa      	ldr	r2, [r7, #28]
 800452e:	69bb      	ldr	r3, [r7, #24]
 8004530:	429a      	cmp	r2, r3
 8004532:	d904      	bls.n	800453e <HAL_RTC_GetTime+0xee>
 8004534:	69fa      	ldr	r2, [r7, #28]
 8004536:	69bb      	ldr	r3, [r7, #24]
 8004538:	1ad3      	subs	r3, r2, r3
 800453a:	61fb      	str	r3, [r7, #28]
 800453c:	e002      	b.n	8004544 <HAL_RTC_GetTime+0xf4>
 800453e:	f04f 33ff 	mov.w	r3, #4294967295
 8004542:	61fb      	str	r3, [r7, #28]
 8004544:	697b      	ldr	r3, [r7, #20]
 8004546:	4a2d      	ldr	r2, [pc, #180]	; (80045fc <HAL_RTC_GetTime+0x1ac>)
 8004548:	fb02 f303 	mul.w	r3, r2, r3
 800454c:	69ba      	ldr	r2, [r7, #24]
 800454e:	1ad3      	subs	r3, r2, r3
 8004550:	61bb      	str	r3, [r7, #24]
 8004552:	69b9      	ldr	r1, [r7, #24]
 8004554:	68f8      	ldr	r0, [r7, #12]
 8004556:	f000 fa96 	bl	8004a86 <RTC_WriteTimeCounter>
 800455a:	4603      	mov	r3, r0
 800455c:	2b00      	cmp	r3, #0
 800455e:	d001      	beq.n	8004564 <HAL_RTC_GetTime+0x114>
 8004560:	2301      	movs	r3, #1
 8004562:	e041      	b.n	80045e8 <HAL_RTC_GetTime+0x198>
 8004564:	69fb      	ldr	r3, [r7, #28]
 8004566:	f1b3 3fff 	cmp.w	r3, #4294967295
 800456a:	d00c      	beq.n	8004586 <HAL_RTC_GetTime+0x136>
 800456c:	69fa      	ldr	r2, [r7, #28]
 800456e:	69bb      	ldr	r3, [r7, #24]
 8004570:	4413      	add	r3, r2
 8004572:	61fb      	str	r3, [r7, #28]
 8004574:	69f9      	ldr	r1, [r7, #28]
 8004576:	68f8      	ldr	r0, [r7, #12]
 8004578:	f000 fac5 	bl	8004b06 <RTC_WriteAlarmCounter>
 800457c:	4603      	mov	r3, r0
 800457e:	2b00      	cmp	r3, #0
 8004580:	d00a      	beq.n	8004598 <HAL_RTC_GetTime+0x148>
 8004582:	2301      	movs	r3, #1
 8004584:	e030      	b.n	80045e8 <HAL_RTC_GetTime+0x198>
 8004586:	69f9      	ldr	r1, [r7, #28]
 8004588:	68f8      	ldr	r0, [r7, #12]
 800458a:	f000 fabc 	bl	8004b06 <RTC_WriteAlarmCounter>
 800458e:	4603      	mov	r3, r0
 8004590:	2b00      	cmp	r3, #0
 8004592:	d001      	beq.n	8004598 <HAL_RTC_GetTime+0x148>
 8004594:	2301      	movs	r3, #1
 8004596:	e027      	b.n	80045e8 <HAL_RTC_GetTime+0x198>
 8004598:	6979      	ldr	r1, [r7, #20]
 800459a:	68f8      	ldr	r0, [r7, #12]
 800459c:	f000 fb64 	bl	8004c68 <RTC_DateUpdate>
 80045a0:	e003      	b.n	80045aa <HAL_RTC_GetTime+0x15a>
 80045a2:	693b      	ldr	r3, [r7, #16]
 80045a4:	b2da      	uxtb	r2, r3
 80045a6:	68bb      	ldr	r3, [r7, #8]
 80045a8:	701a      	strb	r2, [r3, #0]
 80045aa:	687b      	ldr	r3, [r7, #4]
 80045ac:	2b00      	cmp	r3, #0
 80045ae:	d01a      	beq.n	80045e6 <HAL_RTC_GetTime+0x196>
 80045b0:	68bb      	ldr	r3, [r7, #8]
 80045b2:	781b      	ldrb	r3, [r3, #0]
 80045b4:	4618      	mov	r0, r3
 80045b6:	f000 fb1d 	bl	8004bf4 <RTC_ByteToBcd2>
 80045ba:	4603      	mov	r3, r0
 80045bc:	461a      	mov	r2, r3
 80045be:	68bb      	ldr	r3, [r7, #8]
 80045c0:	701a      	strb	r2, [r3, #0]
 80045c2:	68bb      	ldr	r3, [r7, #8]
 80045c4:	785b      	ldrb	r3, [r3, #1]
 80045c6:	4618      	mov	r0, r3
 80045c8:	f000 fb14 	bl	8004bf4 <RTC_ByteToBcd2>
 80045cc:	4603      	mov	r3, r0
 80045ce:	461a      	mov	r2, r3
 80045d0:	68bb      	ldr	r3, [r7, #8]
 80045d2:	705a      	strb	r2, [r3, #1]
 80045d4:	68bb      	ldr	r3, [r7, #8]
 80045d6:	789b      	ldrb	r3, [r3, #2]
 80045d8:	4618      	mov	r0, r3
 80045da:	f000 fb0b 	bl	8004bf4 <RTC_ByteToBcd2>
 80045de:	4603      	mov	r3, r0
 80045e0:	461a      	mov	r2, r3
 80045e2:	68bb      	ldr	r3, [r7, #8]
 80045e4:	709a      	strb	r2, [r3, #2]
 80045e6:	2300      	movs	r3, #0
 80045e8:	4618      	mov	r0, r3
 80045ea:	3720      	adds	r7, #32
 80045ec:	46bd      	mov	sp, r7
 80045ee:	bd80      	pop	{r7, pc}
 80045f0:	91a2b3c5 	.word	0x91a2b3c5
 80045f4:	88888889 	.word	0x88888889
 80045f8:	aaaaaaab 	.word	0xaaaaaaab
 80045fc:	00015180 	.word	0x00015180

08004600 <HAL_RTC_SetDate>:
 8004600:	b580      	push	{r7, lr}
 8004602:	b088      	sub	sp, #32
 8004604:	af00      	add	r7, sp, #0
 8004606:	60f8      	str	r0, [r7, #12]
 8004608:	60b9      	str	r1, [r7, #8]
 800460a:	607a      	str	r2, [r7, #4]
 800460c:	2300      	movs	r3, #0
 800460e:	61fb      	str	r3, [r7, #28]
 8004610:	2300      	movs	r3, #0
 8004612:	61bb      	str	r3, [r7, #24]
 8004614:	2300      	movs	r3, #0
 8004616:	617b      	str	r3, [r7, #20]
 8004618:	68fb      	ldr	r3, [r7, #12]
 800461a:	2b00      	cmp	r3, #0
 800461c:	d002      	beq.n	8004624 <HAL_RTC_SetDate+0x24>
 800461e:	68bb      	ldr	r3, [r7, #8]
 8004620:	2b00      	cmp	r3, #0
 8004622:	d101      	bne.n	8004628 <HAL_RTC_SetDate+0x28>
 8004624:	2301      	movs	r3, #1
 8004626:	e097      	b.n	8004758 <HAL_RTC_SetDate+0x158>
 8004628:	68fb      	ldr	r3, [r7, #12]
 800462a:	7c1b      	ldrb	r3, [r3, #16]
 800462c:	2b01      	cmp	r3, #1
 800462e:	d101      	bne.n	8004634 <HAL_RTC_SetDate+0x34>
 8004630:	2302      	movs	r3, #2
 8004632:	e091      	b.n	8004758 <HAL_RTC_SetDate+0x158>
 8004634:	68fb      	ldr	r3, [r7, #12]
 8004636:	2201      	movs	r2, #1
 8004638:	741a      	strb	r2, [r3, #16]
 800463a:	68fb      	ldr	r3, [r7, #12]
 800463c:	2202      	movs	r2, #2
 800463e:	745a      	strb	r2, [r3, #17]
 8004640:	687b      	ldr	r3, [r7, #4]
 8004642:	2b00      	cmp	r3, #0
 8004644:	d10c      	bne.n	8004660 <HAL_RTC_SetDate+0x60>
 8004646:	68bb      	ldr	r3, [r7, #8]
 8004648:	78da      	ldrb	r2, [r3, #3]
 800464a:	68fb      	ldr	r3, [r7, #12]
 800464c:	73da      	strb	r2, [r3, #15]
 800464e:	68bb      	ldr	r3, [r7, #8]
 8004650:	785a      	ldrb	r2, [r3, #1]
 8004652:	68fb      	ldr	r3, [r7, #12]
 8004654:	735a      	strb	r2, [r3, #13]
 8004656:	68bb      	ldr	r3, [r7, #8]
 8004658:	789a      	ldrb	r2, [r3, #2]
 800465a:	68fb      	ldr	r3, [r7, #12]
 800465c:	739a      	strb	r2, [r3, #14]
 800465e:	e01a      	b.n	8004696 <HAL_RTC_SetDate+0x96>
 8004660:	68bb      	ldr	r3, [r7, #8]
 8004662:	78db      	ldrb	r3, [r3, #3]
 8004664:	4618      	mov	r0, r3
 8004666:	f000 fae2 	bl	8004c2e <RTC_Bcd2ToByte>
 800466a:	4603      	mov	r3, r0
 800466c:	461a      	mov	r2, r3
 800466e:	68fb      	ldr	r3, [r7, #12]
 8004670:	73da      	strb	r2, [r3, #15]
 8004672:	68bb      	ldr	r3, [r7, #8]
 8004674:	785b      	ldrb	r3, [r3, #1]
 8004676:	4618      	mov	r0, r3
 8004678:	f000 fad9 	bl	8004c2e <RTC_Bcd2ToByte>
 800467c:	4603      	mov	r3, r0
 800467e:	461a      	mov	r2, r3
 8004680:	68fb      	ldr	r3, [r7, #12]
 8004682:	735a      	strb	r2, [r3, #13]
 8004684:	68bb      	ldr	r3, [r7, #8]
 8004686:	789b      	ldrb	r3, [r3, #2]
 8004688:	4618      	mov	r0, r3
 800468a:	f000 fad0 	bl	8004c2e <RTC_Bcd2ToByte>
 800468e:	4603      	mov	r3, r0
 8004690:	461a      	mov	r2, r3
 8004692:	68fb      	ldr	r3, [r7, #12]
 8004694:	739a      	strb	r2, [r3, #14]
 8004696:	68fb      	ldr	r3, [r7, #12]
 8004698:	7bdb      	ldrb	r3, [r3, #15]
 800469a:	4618      	mov	r0, r3
 800469c:	68fb      	ldr	r3, [r7, #12]
 800469e:	7b59      	ldrb	r1, [r3, #13]
 80046a0:	68fb      	ldr	r3, [r7, #12]
 80046a2:	7b9b      	ldrb	r3, [r3, #14]
 80046a4:	461a      	mov	r2, r3
 80046a6:	f000 fbbb 	bl	8004e20 <RTC_WeekDayNum>
 80046aa:	4603      	mov	r3, r0
 80046ac:	461a      	mov	r2, r3
 80046ae:	68fb      	ldr	r3, [r7, #12]
 80046b0:	731a      	strb	r2, [r3, #12]
 80046b2:	68fb      	ldr	r3, [r7, #12]
 80046b4:	7b1a      	ldrb	r2, [r3, #12]
 80046b6:	68bb      	ldr	r3, [r7, #8]
 80046b8:	701a      	strb	r2, [r3, #0]
 80046ba:	68f8      	ldr	r0, [r7, #12]
 80046bc:	f000 f9b3 	bl	8004a26 <RTC_ReadTimeCounter>
 80046c0:	61f8      	str	r0, [r7, #28]
 80046c2:	69fb      	ldr	r3, [r7, #28]
 80046c4:	4a26      	ldr	r2, [pc, #152]	; (8004760 <HAL_RTC_SetDate+0x160>)
 80046c6:	fba2 2303 	umull	r2, r3, r2, r3
 80046ca:	0adb      	lsrs	r3, r3, #11
 80046cc:	617b      	str	r3, [r7, #20]
 80046ce:	697b      	ldr	r3, [r7, #20]
 80046d0:	2b18      	cmp	r3, #24
 80046d2:	d93a      	bls.n	800474a <HAL_RTC_SetDate+0x14a>
 80046d4:	697b      	ldr	r3, [r7, #20]
 80046d6:	4a23      	ldr	r2, [pc, #140]	; (8004764 <HAL_RTC_SetDate+0x164>)
 80046d8:	fba2 2303 	umull	r2, r3, r2, r3
 80046dc:	091b      	lsrs	r3, r3, #4
 80046de:	4a22      	ldr	r2, [pc, #136]	; (8004768 <HAL_RTC_SetDate+0x168>)
 80046e0:	fb02 f303 	mul.w	r3, r2, r3
 80046e4:	69fa      	ldr	r2, [r7, #28]
 80046e6:	1ad3      	subs	r3, r2, r3
 80046e8:	61fb      	str	r3, [r7, #28]
 80046ea:	69f9      	ldr	r1, [r7, #28]
 80046ec:	68f8      	ldr	r0, [r7, #12]
 80046ee:	f000 f9ca 	bl	8004a86 <RTC_WriteTimeCounter>
 80046f2:	4603      	mov	r3, r0
 80046f4:	2b00      	cmp	r3, #0
 80046f6:	d007      	beq.n	8004708 <HAL_RTC_SetDate+0x108>
 80046f8:	68fb      	ldr	r3, [r7, #12]
 80046fa:	2204      	movs	r2, #4
 80046fc:	745a      	strb	r2, [r3, #17]
 80046fe:	68fb      	ldr	r3, [r7, #12]
 8004700:	2200      	movs	r2, #0
 8004702:	741a      	strb	r2, [r3, #16]
 8004704:	2301      	movs	r3, #1
 8004706:	e027      	b.n	8004758 <HAL_RTC_SetDate+0x158>
 8004708:	68f8      	ldr	r0, [r7, #12]
 800470a:	f000 f9e3 	bl	8004ad4 <RTC_ReadAlarmCounter>
 800470e:	61b8      	str	r0, [r7, #24]
 8004710:	69bb      	ldr	r3, [r7, #24]
 8004712:	f1b3 3fff 	cmp.w	r3, #4294967295
 8004716:	d018      	beq.n	800474a <HAL_RTC_SetDate+0x14a>
 8004718:	69ba      	ldr	r2, [r7, #24]
 800471a:	69fb      	ldr	r3, [r7, #28]
 800471c:	429a      	cmp	r2, r3
 800471e:	d214      	bcs.n	800474a <HAL_RTC_SetDate+0x14a>
 8004720:	69bb      	ldr	r3, [r7, #24]
 8004722:	f503 33a8 	add.w	r3, r3, #86016	; 0x15000
 8004726:	f503 73c0 	add.w	r3, r3, #384	; 0x180
 800472a:	61bb      	str	r3, [r7, #24]
 800472c:	69b9      	ldr	r1, [r7, #24]
 800472e:	68f8      	ldr	r0, [r7, #12]
 8004730:	f000 f9e9 	bl	8004b06 <RTC_WriteAlarmCounter>
 8004734:	4603      	mov	r3, r0
 8004736:	2b00      	cmp	r3, #0
 8004738:	d007      	beq.n	800474a <HAL_RTC_SetDate+0x14a>
 800473a:	68fb      	ldr	r3, [r7, #12]
 800473c:	2204      	movs	r2, #4
 800473e:	745a      	strb	r2, [r3, #17]
 8004740:	68fb      	ldr	r3, [r7, #12]
 8004742:	2200      	movs	r2, #0
 8004744:	741a      	strb	r2, [r3, #16]
 8004746:	2301      	movs	r3, #1
 8004748:	e006      	b.n	8004758 <HAL_RTC_SetDate+0x158>
 800474a:	68fb      	ldr	r3, [r7, #12]
 800474c:	2201      	movs	r2, #1
 800474e:	745a      	strb	r2, [r3, #17]
 8004750:	68fb      	ldr	r3, [r7, #12]
 8004752:	2200      	movs	r2, #0
 8004754:	741a      	strb	r2, [r3, #16]
 8004756:	2300      	movs	r3, #0
 8004758:	4618      	mov	r0, r3
 800475a:	3720      	adds	r7, #32
 800475c:	46bd      	mov	sp, r7
 800475e:	bd80      	pop	{r7, pc}
 8004760:	91a2b3c5 	.word	0x91a2b3c5
 8004764:	aaaaaaab 	.word	0xaaaaaaab
 8004768:	00015180 	.word	0x00015180

0800476c <HAL_RTC_GetDate>:
 800476c:	b580      	push	{r7, lr}
 800476e:	b086      	sub	sp, #24
 8004770:	af00      	add	r7, sp, #0
 8004772:	60f8      	str	r0, [r7, #12]
 8004774:	60b9      	str	r1, [r7, #8]
 8004776:	607a      	str	r2, [r7, #4]
 8004778:	f107 0314 	add.w	r3, r7, #20
 800477c:	2100      	movs	r1, #0
 800477e:	460a      	mov	r2, r1
 8004780:	801a      	strh	r2, [r3, #0]
 8004782:	460a      	mov	r2, r1
 8004784:	709a      	strb	r2, [r3, #2]
 8004786:	68fb      	ldr	r3, [r7, #12]
 8004788:	2b00      	cmp	r3, #0
 800478a:	d002      	beq.n	8004792 <HAL_RTC_GetDate+0x26>
 800478c:	68bb      	ldr	r3, [r7, #8]
 800478e:	2b00      	cmp	r3, #0
 8004790:	d101      	bne.n	8004796 <HAL_RTC_GetDate+0x2a>
 8004792:	2301      	movs	r3, #1
 8004794:	e03a      	b.n	800480c <HAL_RTC_GetDate+0xa0>
 8004796:	f107 0314 	add.w	r3, r7, #20
 800479a:	2200      	movs	r2, #0
 800479c:	4619      	mov	r1, r3
 800479e:	68f8      	ldr	r0, [r7, #12]
 80047a0:	f7ff fe56 	bl	8004450 <HAL_RTC_GetTime>
 80047a4:	4603      	mov	r3, r0
 80047a6:	2b00      	cmp	r3, #0
 80047a8:	d001      	beq.n	80047ae <HAL_RTC_GetDate+0x42>
 80047aa:	2301      	movs	r3, #1
 80047ac:	e02e      	b.n	800480c <HAL_RTC_GetDate+0xa0>
 80047ae:	68fb      	ldr	r3, [r7, #12]
 80047b0:	7b1a      	ldrb	r2, [r3, #12]
 80047b2:	68bb      	ldr	r3, [r7, #8]
 80047b4:	701a      	strb	r2, [r3, #0]
 80047b6:	68fb      	ldr	r3, [r7, #12]
 80047b8:	7bda      	ldrb	r2, [r3, #15]
 80047ba:	68bb      	ldr	r3, [r7, #8]
 80047bc:	70da      	strb	r2, [r3, #3]
 80047be:	68fb      	ldr	r3, [r7, #12]
 80047c0:	7b5a      	ldrb	r2, [r3, #13]
 80047c2:	68bb      	ldr	r3, [r7, #8]
 80047c4:	705a      	strb	r2, [r3, #1]
 80047c6:	68fb      	ldr	r3, [r7, #12]
 80047c8:	7b9a      	ldrb	r2, [r3, #14]
 80047ca:	68bb      	ldr	r3, [r7, #8]
 80047cc:	709a      	strb	r2, [r3, #2]
 80047ce:	687b      	ldr	r3, [r7, #4]
 80047d0:	2b00      	cmp	r3, #0
 80047d2:	d01a      	beq.n	800480a <HAL_RTC_GetDate+0x9e>
 80047d4:	68bb      	ldr	r3, [r7, #8]
 80047d6:	78db      	ldrb	r3, [r3, #3]
 80047d8:	4618      	mov	r0, r3
 80047da:	f000 fa0b 	bl	8004bf4 <RTC_ByteToBcd2>
 80047de:	4603      	mov	r3, r0
 80047e0:	461a      	mov	r2, r3
 80047e2:	68bb      	ldr	r3, [r7, #8]
 80047e4:	70da      	strb	r2, [r3, #3]
 80047e6:	68bb      	ldr	r3, [r7, #8]
 80047e8:	785b      	ldrb	r3, [r3, #1]
 80047ea:	4618      	mov	r0, r3
 80047ec:	f000 fa02 	bl	8004bf4 <RTC_ByteToBcd2>
 80047f0:	4603      	mov	r3, r0
 80047f2:	461a      	mov	r2, r3
 80047f4:	68bb      	ldr	r3, [r7, #8]
 80047f6:	705a      	strb	r2, [r3, #1]
 80047f8:	68bb      	ldr	r3, [r7, #8]
 80047fa:	789b      	ldrb	r3, [r3, #2]
 80047fc:	4618      	mov	r0, r3
 80047fe:	f000 f9f9 	bl	8004bf4 <RTC_ByteToBcd2>
 8004802:	4603      	mov	r3, r0
 8004804:	461a      	mov	r2, r3
 8004806:	68bb      	ldr	r3, [r7, #8]
 8004808:	709a      	strb	r2, [r3, #2]
 800480a:	2300      	movs	r3, #0
 800480c:	4618      	mov	r0, r3
 800480e:	3718      	adds	r7, #24
 8004810:	46bd      	mov	sp, r7
 8004812:	bd80      	pop	{r7, pc}

08004814 <HAL_RTC_SetAlarm_IT>:
 8004814:	b590      	push	{r4, r7, lr}
 8004816:	b089      	sub	sp, #36	; 0x24
 8004818:	af00      	add	r7, sp, #0
 800481a:	60f8      	str	r0, [r7, #12]
 800481c:	60b9      	str	r1, [r7, #8]
 800481e:	607a      	str	r2, [r7, #4]
 8004820:	2300      	movs	r3, #0
 8004822:	61fb      	str	r3, [r7, #28]
 8004824:	f107 0314 	add.w	r3, r7, #20
 8004828:	2100      	movs	r1, #0
 800482a:	460a      	mov	r2, r1
 800482c:	801a      	strh	r2, [r3, #0]
 800482e:	460a      	mov	r2, r1
 8004830:	709a      	strb	r2, [r3, #2]
 8004832:	68fb      	ldr	r3, [r7, #12]
 8004834:	2b00      	cmp	r3, #0
 8004836:	d002      	beq.n	800483e <HAL_RTC_SetAlarm_IT+0x2a>
 8004838:	68bb      	ldr	r3, [r7, #8]
 800483a:	2b00      	cmp	r3, #0
 800483c:	d101      	bne.n	8004842 <HAL_RTC_SetAlarm_IT+0x2e>
 800483e:	2301      	movs	r3, #1
 8004840:	e096      	b.n	8004970 <HAL_RTC_SetAlarm_IT+0x15c>
 8004842:	68fb      	ldr	r3, [r7, #12]
 8004844:	7c1b      	ldrb	r3, [r3, #16]
 8004846:	2b01      	cmp	r3, #1
 8004848:	d101      	bne.n	800484e <HAL_RTC_SetAlarm_IT+0x3a>
 800484a:	2302      	movs	r3, #2
 800484c:	e090      	b.n	8004970 <HAL_RTC_SetAlarm_IT+0x15c>
 800484e:	68fb      	ldr	r3, [r7, #12]
 8004850:	2201      	movs	r2, #1
 8004852:	741a      	strb	r2, [r3, #16]
 8004854:	68fb      	ldr	r3, [r7, #12]
 8004856:	2202      	movs	r2, #2
 8004858:	745a      	strb	r2, [r3, #17]
 800485a:	f107 0314 	add.w	r3, r7, #20
 800485e:	2200      	movs	r2, #0
 8004860:	4619      	mov	r1, r3
 8004862:	68f8      	ldr	r0, [r7, #12]
 8004864:	f7ff fdf4 	bl	8004450 <HAL_RTC_GetTime>
 8004868:	4603      	mov	r3, r0
 800486a:	2b00      	cmp	r3, #0
 800486c:	d001      	beq.n	8004872 <HAL_RTC_SetAlarm_IT+0x5e>
 800486e:	2301      	movs	r3, #1
 8004870:	e07e      	b.n	8004970 <HAL_RTC_SetAlarm_IT+0x15c>
 8004872:	7d3b      	ldrb	r3, [r7, #20]
 8004874:	461a      	mov	r2, r3
 8004876:	f44f 6361 	mov.w	r3, #3600	; 0xe10
 800487a:	fb03 f202 	mul.w	r2, r3, r2
 800487e:	7d7b      	ldrb	r3, [r7, #21]
 8004880:	4619      	mov	r1, r3
 8004882:	460b      	mov	r3, r1
 8004884:	011b      	lsls	r3, r3, #4
 8004886:	1a5b      	subs	r3, r3, r1
 8004888:	009b      	lsls	r3, r3, #2
 800488a:	4413      	add	r3, r2
 800488c:	7dba      	ldrb	r2, [r7, #22]
 800488e:	4413      	add	r3, r2
 8004890:	61bb      	str	r3, [r7, #24]
 8004892:	687b      	ldr	r3, [r7, #4]
 8004894:	2b00      	cmp	r3, #0
 8004896:	d113      	bne.n	80048c0 <HAL_RTC_SetAlarm_IT+0xac>
 8004898:	68bb      	ldr	r3, [r7, #8]
 800489a:	781b      	ldrb	r3, [r3, #0]
 800489c:	461a      	mov	r2, r3
 800489e:	f44f 6361 	mov.w	r3, #3600	; 0xe10
 80048a2:	fb03 f202 	mul.w	r2, r3, r2
 80048a6:	68bb      	ldr	r3, [r7, #8]
 80048a8:	785b      	ldrb	r3, [r3, #1]
 80048aa:	4619      	mov	r1, r3
 80048ac:	460b      	mov	r3, r1
 80048ae:	011b      	lsls	r3, r3, #4
 80048b0:	1a5b      	subs	r3, r3, r1
 80048b2:	009b      	lsls	r3, r3, #2
 80048b4:	4413      	add	r3, r2
 80048b6:	68ba      	ldr	r2, [r7, #8]
 80048b8:	7892      	ldrb	r2, [r2, #2]
 80048ba:	4413      	add	r3, r2
 80048bc:	61fb      	str	r3, [r7, #28]
 80048be:	e01e      	b.n	80048fe <HAL_RTC_SetAlarm_IT+0xea>
 80048c0:	68bb      	ldr	r3, [r7, #8]
 80048c2:	781b      	ldrb	r3, [r3, #0]
 80048c4:	4618      	mov	r0, r3
 80048c6:	f000 f9b2 	bl	8004c2e <RTC_Bcd2ToByte>
 80048ca:	4603      	mov	r3, r0
 80048cc:	461a      	mov	r2, r3
 80048ce:	f44f 6361 	mov.w	r3, #3600	; 0xe10
 80048d2:	fb03 f402 	mul.w	r4, r3, r2
 80048d6:	68bb      	ldr	r3, [r7, #8]
 80048d8:	785b      	ldrb	r3, [r3, #1]
 80048da:	4618      	mov	r0, r3
 80048dc:	f000 f9a7 	bl	8004c2e <RTC_Bcd2ToByte>
 80048e0:	4603      	mov	r3, r0
 80048e2:	461a      	mov	r2, r3
 80048e4:	4613      	mov	r3, r2
 80048e6:	011b      	lsls	r3, r3, #4
 80048e8:	1a9b      	subs	r3, r3, r2
 80048ea:	009b      	lsls	r3, r3, #2
 80048ec:	441c      	add	r4, r3
 80048ee:	68bb      	ldr	r3, [r7, #8]
 80048f0:	789b      	ldrb	r3, [r3, #2]
 80048f2:	4618      	mov	r0, r3
 80048f4:	f000 f99b 	bl	8004c2e <RTC_Bcd2ToByte>
 80048f8:	4603      	mov	r3, r0
 80048fa:	4423      	add	r3, r4
 80048fc:	61fb      	str	r3, [r7, #28]
 80048fe:	69fa      	ldr	r2, [r7, #28]
 8004900:	69bb      	ldr	r3, [r7, #24]
 8004902:	429a      	cmp	r2, r3
 8004904:	d205      	bcs.n	8004912 <HAL_RTC_SetAlarm_IT+0xfe>
 8004906:	69fb      	ldr	r3, [r7, #28]
 8004908:	f503 33a8 	add.w	r3, r3, #86016	; 0x15000
 800490c:	f503 73c0 	add.w	r3, r3, #384	; 0x180
 8004910:	61fb      	str	r3, [r7, #28]
 8004912:	69f9      	ldr	r1, [r7, #28]
 8004914:	68f8      	ldr	r0, [r7, #12]
 8004916:	f000 f8f6 	bl	8004b06 <RTC_WriteAlarmCounter>
 800491a:	4603      	mov	r3, r0
 800491c:	2b00      	cmp	r3, #0
 800491e:	d007      	beq.n	8004930 <HAL_RTC_SetAlarm_IT+0x11c>
 8004920:	68fb      	ldr	r3, [r7, #12]
 8004922:	2204      	movs	r2, #4
 8004924:	745a      	strb	r2, [r3, #17]
 8004926:	68fb      	ldr	r3, [r7, #12]
 8004928:	2200      	movs	r2, #0
 800492a:	741a      	strb	r2, [r3, #16]
 800492c:	2301      	movs	r3, #1
 800492e:	e01f      	b.n	8004970 <HAL_RTC_SetAlarm_IT+0x15c>
 8004930:	68fb      	ldr	r3, [r7, #12]
 8004932:	681b      	ldr	r3, [r3, #0]
 8004934:	f06f 0202 	mvn.w	r2, #2
 8004938:	605a      	str	r2, [r3, #4]
 800493a:	68fb      	ldr	r3, [r7, #12]
 800493c:	681b      	ldr	r3, [r3, #0]
 800493e:	681a      	ldr	r2, [r3, #0]
 8004940:	68fb      	ldr	r3, [r7, #12]
 8004942:	681b      	ldr	r3, [r3, #0]
 8004944:	f042 0202 	orr.w	r2, r2, #2
 8004948:	601a      	str	r2, [r3, #0]
 800494a:	4b0b      	ldr	r3, [pc, #44]	; (8004978 <HAL_RTC_SetAlarm_IT+0x164>)
 800494c:	681b      	ldr	r3, [r3, #0]
 800494e:	4a0a      	ldr	r2, [pc, #40]	; (8004978 <HAL_RTC_SetAlarm_IT+0x164>)
 8004950:	f443 3300 	orr.w	r3, r3, #131072	; 0x20000
 8004954:	6013      	str	r3, [r2, #0]
 8004956:	4b08      	ldr	r3, [pc, #32]	; (8004978 <HAL_RTC_SetAlarm_IT+0x164>)
 8004958:	689b      	ldr	r3, [r3, #8]
 800495a:	4a07      	ldr	r2, [pc, #28]	; (8004978 <HAL_RTC_SetAlarm_IT+0x164>)
 800495c:	f443 3300 	orr.w	r3, r3, #131072	; 0x20000
 8004960:	6093      	str	r3, [r2, #8]
 8004962:	68fb      	ldr	r3, [r7, #12]
 8004964:	2201      	movs	r2, #1
 8004966:	745a      	strb	r2, [r3, #17]
 8004968:	68fb      	ldr	r3, [r7, #12]
 800496a:	2200      	movs	r2, #0
 800496c:	741a      	strb	r2, [r3, #16]
 800496e:	2300      	movs	r3, #0
 8004970:	4618      	mov	r0, r3
 8004972:	3724      	adds	r7, #36	; 0x24
 8004974:	46bd      	mov	sp, r7
 8004976:	bd90      	pop	{r4, r7, pc}
 8004978:	40010400 	.word	0x40010400

0800497c <HAL_RTC_AlarmIRQHandler>:
 800497c:	b580      	push	{r7, lr}
 800497e:	b082      	sub	sp, #8
 8004980:	af00      	add	r7, sp, #0
 8004982:	6078      	str	r0, [r7, #4]
 8004984:	687b      	ldr	r3, [r7, #4]
 8004986:	681b      	ldr	r3, [r3, #0]
 8004988:	681b      	ldr	r3, [r3, #0]
 800498a:	f003 0302 	and.w	r3, r3, #2
 800498e:	2b00      	cmp	r3, #0
 8004990:	d00e      	beq.n	80049b0 <HAL_RTC_AlarmIRQHandler+0x34>
 8004992:	687b      	ldr	r3, [r7, #4]
 8004994:	681b      	ldr	r3, [r3, #0]
 8004996:	685b      	ldr	r3, [r3, #4]
 8004998:	f003 0302 	and.w	r3, r3, #2
 800499c:	2b00      	cmp	r3, #0
 800499e:	d007      	beq.n	80049b0 <HAL_RTC_AlarmIRQHandler+0x34>
 80049a0:	6878      	ldr	r0, [r7, #4]
 80049a2:	f7fd f93d 	bl	8001c20 <HAL_RTC_AlarmAEventCallback>
 80049a6:	687b      	ldr	r3, [r7, #4]
 80049a8:	681b      	ldr	r3, [r3, #0]
 80049aa:	f06f 0202 	mvn.w	r2, #2
 80049ae:	605a      	str	r2, [r3, #4]
 80049b0:	4b05      	ldr	r3, [pc, #20]	; (80049c8 <HAL_RTC_AlarmIRQHandler+0x4c>)
 80049b2:	f44f 3200 	mov.w	r2, #131072	; 0x20000
 80049b6:	615a      	str	r2, [r3, #20]
 80049b8:	687b      	ldr	r3, [r7, #4]
 80049ba:	2201      	movs	r2, #1
 80049bc:	745a      	strb	r2, [r3, #17]
 80049be:	bf00      	nop
 80049c0:	3708      	adds	r7, #8
 80049c2:	46bd      	mov	sp, r7
 80049c4:	bd80      	pop	{r7, pc}
 80049c6:	bf00      	nop
 80049c8:	40010400 	.word	0x40010400

080049cc <HAL_RTC_WaitForSynchro>:
 80049cc:	b580      	push	{r7, lr}
 80049ce:	b084      	sub	sp, #16
 80049d0:	af00      	add	r7, sp, #0
 80049d2:	6078      	str	r0, [r7, #4]
 80049d4:	2300      	movs	r3, #0
 80049d6:	60fb      	str	r3, [r7, #12]
 80049d8:	687b      	ldr	r3, [r7, #4]
 80049da:	2b00      	cmp	r3, #0
 80049dc:	d101      	bne.n	80049e2 <HAL_RTC_WaitForSynchro+0x16>
 80049de:	2301      	movs	r3, #1
 80049e0:	e01d      	b.n	8004a1e <HAL_RTC_WaitForSynchro+0x52>
 80049e2:	687b      	ldr	r3, [r7, #4]
 80049e4:	681b      	ldr	r3, [r3, #0]
 80049e6:	685a      	ldr	r2, [r3, #4]
 80049e8:	687b      	ldr	r3, [r7, #4]
 80049ea:	681b      	ldr	r3, [r3, #0]
 80049ec:	f022 0208 	bic.w	r2, r2, #8
 80049f0:	605a      	str	r2, [r3, #4]
 80049f2:	f7fe f997 	bl	8002d24 <HAL_GetTick>
 80049f6:	60f8      	str	r0, [r7, #12]
 80049f8:	e009      	b.n	8004a0e <HAL_RTC_WaitForSynchro+0x42>
 80049fa:	f7fe f993 	bl	8002d24 <HAL_GetTick>
 80049fe:	4602      	mov	r2, r0
 8004a00:	68fb      	ldr	r3, [r7, #12]
 8004a02:	1ad3      	subs	r3, r2, r3
 8004a04:	f5b3 7f7a 	cmp.w	r3, #1000	; 0x3e8
 8004a08:	d901      	bls.n	8004a0e <HAL_RTC_WaitForSynchro+0x42>
 8004a0a:	2303      	movs	r3, #3
 8004a0c:	e007      	b.n	8004a1e <HAL_RTC_WaitForSynchro+0x52>
 8004a0e:	687b      	ldr	r3, [r7, #4]
 8004a10:	681b      	ldr	r3, [r3, #0]
 8004a12:	685b      	ldr	r3, [r3, #4]
 8004a14:	f003 0308 	and.w	r3, r3, #8
 8004a18:	2b00      	cmp	r3, #0
 8004a1a:	d0ee      	beq.n	80049fa <HAL_RTC_WaitForSynchro+0x2e>
 8004a1c:	2300      	movs	r3, #0
 8004a1e:	4618      	mov	r0, r3
 8004a20:	3710      	adds	r7, #16
 8004a22:	46bd      	mov	sp, r7
 8004a24:	bd80      	pop	{r7, pc}

08004a26 <RTC_ReadTimeCounter>:
 8004a26:	b480      	push	{r7}
 8004a28:	b087      	sub	sp, #28
 8004a2a:	af00      	add	r7, sp, #0
 8004a2c:	6078      	str	r0, [r7, #4]
 8004a2e:	2300      	movs	r3, #0
 8004a30:	827b      	strh	r3, [r7, #18]
 8004a32:	2300      	movs	r3, #0
 8004a34:	823b      	strh	r3, [r7, #16]
 8004a36:	2300      	movs	r3, #0
 8004a38:	81fb      	strh	r3, [r7, #14]
 8004a3a:	2300      	movs	r3, #0
 8004a3c:	617b      	str	r3, [r7, #20]
 8004a3e:	687b      	ldr	r3, [r7, #4]
 8004a40:	681b      	ldr	r3, [r3, #0]
 8004a42:	699b      	ldr	r3, [r3, #24]
 8004a44:	827b      	strh	r3, [r7, #18]
 8004a46:	687b      	ldr	r3, [r7, #4]
 8004a48:	681b      	ldr	r3, [r3, #0]
 8004a4a:	69db      	ldr	r3, [r3, #28]
 8004a4c:	81fb      	strh	r3, [r7, #14]
 8004a4e:	687b      	ldr	r3, [r7, #4]
 8004a50:	681b      	ldr	r3, [r3, #0]
 8004a52:	699b      	ldr	r3, [r3, #24]
 8004a54:	823b      	strh	r3, [r7, #16]
 8004a56:	8a7a      	ldrh	r2, [r7, #18]
 8004a58:	8a3b      	ldrh	r3, [r7, #16]
 8004a5a:	429a      	cmp	r2, r3
 8004a5c:	d008      	beq.n	8004a70 <RTC_ReadTimeCounter+0x4a>
 8004a5e:	8a3b      	ldrh	r3, [r7, #16]
 8004a60:	041a      	lsls	r2, r3, #16
 8004a62:	687b      	ldr	r3, [r7, #4]
 8004a64:	681b      	ldr	r3, [r3, #0]
 8004a66:	69db      	ldr	r3, [r3, #28]
 8004a68:	b29b      	uxth	r3, r3
 8004a6a:	4313      	orrs	r3, r2
 8004a6c:	617b      	str	r3, [r7, #20]
 8004a6e:	e004      	b.n	8004a7a <RTC_ReadTimeCounter+0x54>
 8004a70:	8a7b      	ldrh	r3, [r7, #18]
 8004a72:	041a      	lsls	r2, r3, #16
 8004a74:	89fb      	ldrh	r3, [r7, #14]
 8004a76:	4313      	orrs	r3, r2
 8004a78:	617b      	str	r3, [r7, #20]
 8004a7a:	697b      	ldr	r3, [r7, #20]
 8004a7c:	4618      	mov	r0, r3
 8004a7e:	371c      	adds	r7, #28
 8004a80:	46bd      	mov	sp, r7
 8004a82:	bc80      	pop	{r7}
 8004a84:	4770      	bx	lr

08004a86 <RTC_WriteTimeCounter>:
 8004a86:	b580      	push	{r7, lr}
 8004a88:	b084      	sub	sp, #16
 8004a8a:	af00      	add	r7, sp, #0
 8004a8c:	6078      	str	r0, [r7, #4]
 8004a8e:	6039      	str	r1, [r7, #0]
 8004a90:	2300      	movs	r3, #0
 8004a92:	73fb      	strb	r3, [r7, #15]
 8004a94:	6878      	ldr	r0, [r7, #4]
 8004a96:	f000 f85d 	bl	8004b54 <RTC_EnterInitMode>
 8004a9a:	4603      	mov	r3, r0
 8004a9c:	2b00      	cmp	r3, #0
 8004a9e:	d002      	beq.n	8004aa6 <RTC_WriteTimeCounter+0x20>
 8004aa0:	2301      	movs	r3, #1
 8004aa2:	73fb      	strb	r3, [r7, #15]
 8004aa4:	e011      	b.n	8004aca <RTC_WriteTimeCounter+0x44>
 8004aa6:	687b      	ldr	r3, [r7, #4]
 8004aa8:	681b      	ldr	r3, [r3, #0]
 8004aaa:	683a      	ldr	r2, [r7, #0]
 8004aac:	0c12      	lsrs	r2, r2, #16
 8004aae:	619a      	str	r2, [r3, #24]
 8004ab0:	687b      	ldr	r3, [r7, #4]
 8004ab2:	681b      	ldr	r3, [r3, #0]
 8004ab4:	683a      	ldr	r2, [r7, #0]
 8004ab6:	b292      	uxth	r2, r2
 8004ab8:	61da      	str	r2, [r3, #28]
 8004aba:	6878      	ldr	r0, [r7, #4]
 8004abc:	f000 f872 	bl	8004ba4 <RTC_ExitInitMode>
 8004ac0:	4603      	mov	r3, r0
 8004ac2:	2b00      	cmp	r3, #0
 8004ac4:	d001      	beq.n	8004aca <RTC_WriteTimeCounter+0x44>
 8004ac6:	2301      	movs	r3, #1
 8004ac8:	73fb      	strb	r3, [r7, #15]
 8004aca:	7bfb      	ldrb	r3, [r7, #15]
 8004acc:	4618      	mov	r0, r3
 8004ace:	3710      	adds	r7, #16
 8004ad0:	46bd      	mov	sp, r7
 8004ad2:	bd80      	pop	{r7, pc}

08004ad4 <RTC_ReadAlarmCounter>:
 8004ad4:	b480      	push	{r7}
 8004ad6:	b085      	sub	sp, #20
 8004ad8:	af00      	add	r7, sp, #0
 8004ada:	6078      	str	r0, [r7, #4]
 8004adc:	2300      	movs	r3, #0
 8004ade:	81fb      	strh	r3, [r7, #14]
 8004ae0:	2300      	movs	r3, #0
 8004ae2:	81bb      	strh	r3, [r7, #12]
 8004ae4:	687b      	ldr	r3, [r7, #4]
 8004ae6:	681b      	ldr	r3, [r3, #0]
 8004ae8:	6a1b      	ldr	r3, [r3, #32]
 8004aea:	81fb      	strh	r3, [r7, #14]
 8004aec:	687b      	ldr	r3, [r7, #4]
 8004aee:	681b      	ldr	r3, [r3, #0]
 8004af0:	6a5b      	ldr	r3, [r3, #36]	; 0x24
 8004af2:	81bb      	strh	r3, [r7, #12]
 8004af4:	89fb      	ldrh	r3, [r7, #14]
 8004af6:	041a      	lsls	r2, r3, #16
 8004af8:	89bb      	ldrh	r3, [r7, #12]
 8004afa:	4313      	orrs	r3, r2
 8004afc:	4618      	mov	r0, r3
 8004afe:	3714      	adds	r7, #20
 8004b00:	46bd      	mov	sp, r7
 8004b02:	bc80      	pop	{r7}
 8004b04:	4770      	bx	lr

08004b06 <RTC_WriteAlarmCounter>:
 8004b06:	b580      	push	{r7, lr}
 8004b08:	b084      	sub	sp, #16
 8004b0a:	af00      	add	r7, sp, #0
 8004b0c:	6078      	str	r0, [r7, #4]
 8004b0e:	6039      	str	r1, [r7, #0]
 8004b10:	2300      	movs	r3, #0
 8004b12:	73fb      	strb	r3, [r7, #15]
 8004b14:	6878      	ldr	r0, [r7, #4]
 8004b16:	f000 f81d 	bl	8004b54 <RTC_EnterInitMode>
 8004b1a:	4603      	mov	r3, r0
 8004b1c:	2b00      	cmp	r3, #0
 8004b1e:	d002      	beq.n	8004b26 <RTC_WriteAlarmCounter+0x20>
 8004b20:	2301      	movs	r3, #1
 8004b22:	73fb      	strb	r3, [r7, #15]
 8004b24:	e011      	b.n	8004b4a <RTC_WriteAlarmCounter+0x44>
 8004b26:	687b      	ldr	r3, [r7, #4]
 8004b28:	681b      	ldr	r3, [r3, #0]
 8004b2a:	683a      	ldr	r2, [r7, #0]
 8004b2c:	0c12      	lsrs	r2, r2, #16
 8004b2e:	621a      	str	r2, [r3, #32]
 8004b30:	687b      	ldr	r3, [r7, #4]
 8004b32:	681b      	ldr	r3, [r3, #0]
 8004b34:	683a      	ldr	r2, [r7, #0]
 8004b36:	b292      	uxth	r2, r2
 8004b38:	625a      	str	r2, [r3, #36]	; 0x24
 8004b3a:	6878      	ldr	r0, [r7, #4]
 8004b3c:	f000 f832 	bl	8004ba4 <RTC_ExitInitMode>
 8004b40:	4603      	mov	r3, r0
 8004b42:	2b00      	cmp	r3, #0
 8004b44:	d001      	beq.n	8004b4a <RTC_WriteAlarmCounter+0x44>
 8004b46:	2301      	movs	r3, #1
 8004b48:	73fb      	strb	r3, [r7, #15]
 8004b4a:	7bfb      	ldrb	r3, [r7, #15]
 8004b4c:	4618      	mov	r0, r3
 8004b4e:	3710      	adds	r7, #16
 8004b50:	46bd      	mov	sp, r7
 8004b52:	bd80      	pop	{r7, pc}

08004b54 <RTC_EnterInitMode>:
 8004b54:	b580      	push	{r7, lr}
 8004b56:	b084      	sub	sp, #16
 8004b58:	af00      	add	r7, sp, #0
 8004b5a:	6078      	str	r0, [r7, #4]
 8004b5c:	2300      	movs	r3, #0
 8004b5e:	60fb      	str	r3, [r7, #12]
 8004b60:	f7fe f8e0 	bl	8002d24 <HAL_GetTick>
 8004b64:	60f8      	str	r0, [r7, #12]
 8004b66:	e009      	b.n	8004b7c <RTC_EnterInitMode+0x28>
 8004b68:	f7fe f8dc 	bl	8002d24 <HAL_GetTick>
 8004b6c:	4602      	mov	r2, r0
 8004b6e:	68fb      	ldr	r3, [r7, #12]
 8004b70:	1ad3      	subs	r3, r2, r3
 8004b72:	f5b3 7f7a 	cmp.w	r3, #1000	; 0x3e8
 8004b76:	d901      	bls.n	8004b7c <RTC_EnterInitMode+0x28>
 8004b78:	2303      	movs	r3, #3
 8004b7a:	e00f      	b.n	8004b9c <RTC_EnterInitMode+0x48>
 8004b7c:	687b      	ldr	r3, [r7, #4]
 8004b7e:	681b      	ldr	r3, [r3, #0]
 8004b80:	685b      	ldr	r3, [r3, #4]
 8004b82:	f003 0320 	and.w	r3, r3, #32
 8004b86:	2b00      	cmp	r3, #0
 8004b88:	d0ee      	beq.n	8004b68 <RTC_EnterInitMode+0x14>
 8004b8a:	687b      	ldr	r3, [r7, #4]
 8004b8c:	681b      	ldr	r3, [r3, #0]
 8004b8e:	685a      	ldr	r2, [r3, #4]
 8004b90:	687b      	ldr	r3, [r7, #4]
 8004b92:	681b      	ldr	r3, [r3, #0]
 8004b94:	f042 0210 	orr.w	r2, r2, #16
 8004b98:	605a      	str	r2, [r3, #4]
 8004b9a:	2300      	movs	r3, #0
 8004b9c:	4618      	mov	r0, r3
 8004b9e:	3710      	adds	r7, #16
 8004ba0:	46bd      	mov	sp, r7
 8004ba2:	bd80      	pop	{r7, pc}

08004ba4 <RTC_ExitInitMode>:
 8004ba4:	b580      	push	{r7, lr}
 8004ba6:	b084      	sub	sp, #16
 8004ba8:	af00      	add	r7, sp, #0
 8004baa:	6078      	str	r0, [r7, #4]
 8004bac:	2300      	movs	r3, #0
 8004bae:	60fb      	str	r3, [r7, #12]
 8004bb0:	687b      	ldr	r3, [r7, #4]
 8004bb2:	681b      	ldr	r3, [r3, #0]
 8004bb4:	685a      	ldr	r2, [r3, #4]
 8004bb6:	687b      	ldr	r3, [r7, #4]
 8004bb8:	681b      	ldr	r3, [r3, #0]
 8004bba:	f022 0210 	bic.w	r2, r2, #16
 8004bbe:	605a      	str	r2, [r3, #4]
 8004bc0:	f7fe f8b0 	bl	8002d24 <HAL_GetTick>
 8004bc4:	60f8      	str	r0, [r7, #12]
 8004bc6:	e009      	b.n	8004bdc <RTC_ExitInitMode+0x38>
 8004bc8:	f7fe f8ac 	bl	8002d24 <HAL_GetTick>
 8004bcc:	4602      	mov	r2, r0
 8004bce:	68fb      	ldr	r3, [r7, #12]
 8004bd0:	1ad3      	subs	r3, r2, r3
 8004bd2:	f5b3 7f7a 	cmp.w	r3, #1000	; 0x3e8
 8004bd6:	d901      	bls.n	8004bdc <RTC_ExitInitMode+0x38>
 8004bd8:	2303      	movs	r3, #3
 8004bda:	e007      	b.n	8004bec <RTC_ExitInitMode+0x48>
 8004bdc:	687b      	ldr	r3, [r7, #4]
 8004bde:	681b      	ldr	r3, [r3, #0]
 8004be0:	685b      	ldr	r3, [r3, #4]
 8004be2:	f003 0320 	and.w	r3, r3, #32
 8004be6:	2b00      	cmp	r3, #0
 8004be8:	d0ee      	beq.n	8004bc8 <RTC_ExitInitMode+0x24>
 8004bea:	2300      	movs	r3, #0
 8004bec:	4618      	mov	r0, r3
 8004bee:	3710      	adds	r7, #16
 8004bf0:	46bd      	mov	sp, r7
 8004bf2:	bd80      	pop	{r7, pc}

08004bf4 <RTC_ByteToBcd2>:
 8004bf4:	b480      	push	{r7}
 8004bf6:	b085      	sub	sp, #20
 8004bf8:	af00      	add	r7, sp, #0
 8004bfa:	4603      	mov	r3, r0
 8004bfc:	71fb      	strb	r3, [r7, #7]
 8004bfe:	2300      	movs	r3, #0
 8004c00:	60fb      	str	r3, [r7, #12]
 8004c02:	e005      	b.n	8004c10 <RTC_ByteToBcd2+0x1c>
 8004c04:	68fb      	ldr	r3, [r7, #12]
 8004c06:	3301      	adds	r3, #1
 8004c08:	60fb      	str	r3, [r7, #12]
 8004c0a:	79fb      	ldrb	r3, [r7, #7]
 8004c0c:	3b0a      	subs	r3, #10
 8004c0e:	71fb      	strb	r3, [r7, #7]
 8004c10:	79fb      	ldrb	r3, [r7, #7]
 8004c12:	2b09      	cmp	r3, #9
 8004c14:	d8f6      	bhi.n	8004c04 <RTC_ByteToBcd2+0x10>
 8004c16:	68fb      	ldr	r3, [r7, #12]
 8004c18:	b2db      	uxtb	r3, r3
 8004c1a:	011b      	lsls	r3, r3, #4
 8004c1c:	b2da      	uxtb	r2, r3
 8004c1e:	79fb      	ldrb	r3, [r7, #7]
 8004c20:	4313      	orrs	r3, r2
 8004c22:	b2db      	uxtb	r3, r3
 8004c24:	4618      	mov	r0, r3
 8004c26:	3714      	adds	r7, #20
 8004c28:	46bd      	mov	sp, r7
 8004c2a:	bc80      	pop	{r7}
 8004c2c:	4770      	bx	lr

08004c2e <RTC_Bcd2ToByte>:
 8004c2e:	b480      	push	{r7}
 8004c30:	b085      	sub	sp, #20
 8004c32:	af00      	add	r7, sp, #0
 8004c34:	4603      	mov	r3, r0
 8004c36:	71fb      	strb	r3, [r7, #7]
 8004c38:	2300      	movs	r3, #0
 8004c3a:	60fb      	str	r3, [r7, #12]
 8004c3c:	79fb      	ldrb	r3, [r7, #7]
 8004c3e:	091b      	lsrs	r3, r3, #4
 8004c40:	b2db      	uxtb	r3, r3
 8004c42:	461a      	mov	r2, r3
 8004c44:	4613      	mov	r3, r2
 8004c46:	009b      	lsls	r3, r3, #2
 8004c48:	4413      	add	r3, r2
 8004c4a:	005b      	lsls	r3, r3, #1
 8004c4c:	60fb      	str	r3, [r7, #12]
 8004c4e:	79fb      	ldrb	r3, [r7, #7]
 8004c50:	f003 030f 	and.w	r3, r3, #15
 8004c54:	b2da      	uxtb	r2, r3
 8004c56:	68fb      	ldr	r3, [r7, #12]
 8004c58:	b2db      	uxtb	r3, r3
 8004c5a:	4413      	add	r3, r2
 8004c5c:	b2db      	uxtb	r3, r3
 8004c5e:	4618      	mov	r0, r3
 8004c60:	3714      	adds	r7, #20
 8004c62:	46bd      	mov	sp, r7
 8004c64:	bc80      	pop	{r7}
 8004c66:	4770      	bx	lr

08004c68 <RTC_DateUpdate>:
 8004c68:	b580      	push	{r7, lr}
 8004c6a:	b086      	sub	sp, #24
 8004c6c:	af00      	add	r7, sp, #0
 8004c6e:	6078      	str	r0, [r7, #4]
 8004c70:	6039      	str	r1, [r7, #0]
 8004c72:	2300      	movs	r3, #0
 8004c74:	617b      	str	r3, [r7, #20]
 8004c76:	2300      	movs	r3, #0
 8004c78:	613b      	str	r3, [r7, #16]
 8004c7a:	2300      	movs	r3, #0
 8004c7c:	60fb      	str	r3, [r7, #12]
 8004c7e:	2300      	movs	r3, #0
 8004c80:	60bb      	str	r3, [r7, #8]
 8004c82:	687b      	ldr	r3, [r7, #4]
 8004c84:	7bdb      	ldrb	r3, [r3, #15]
 8004c86:	617b      	str	r3, [r7, #20]
 8004c88:	687b      	ldr	r3, [r7, #4]
 8004c8a:	7b5b      	ldrb	r3, [r3, #13]
 8004c8c:	613b      	str	r3, [r7, #16]
 8004c8e:	687b      	ldr	r3, [r7, #4]
 8004c90:	7b9b      	ldrb	r3, [r3, #14]
 8004c92:	60fb      	str	r3, [r7, #12]
 8004c94:	2300      	movs	r3, #0
 8004c96:	60bb      	str	r3, [r7, #8]
 8004c98:	e06f      	b.n	8004d7a <RTC_DateUpdate+0x112>
 8004c9a:	693b      	ldr	r3, [r7, #16]
 8004c9c:	2b01      	cmp	r3, #1
 8004c9e:	d011      	beq.n	8004cc4 <RTC_DateUpdate+0x5c>
 8004ca0:	693b      	ldr	r3, [r7, #16]
 8004ca2:	2b03      	cmp	r3, #3
 8004ca4:	d00e      	beq.n	8004cc4 <RTC_DateUpdate+0x5c>
 8004ca6:	693b      	ldr	r3, [r7, #16]
 8004ca8:	2b05      	cmp	r3, #5
 8004caa:	d00b      	beq.n	8004cc4 <RTC_DateUpdate+0x5c>
 8004cac:	693b      	ldr	r3, [r7, #16]
 8004cae:	2b07      	cmp	r3, #7
 8004cb0:	d008      	beq.n	8004cc4 <RTC_DateUpdate+0x5c>
 8004cb2:	693b      	ldr	r3, [r7, #16]
 8004cb4:	2b08      	cmp	r3, #8
 8004cb6:	d005      	beq.n	8004cc4 <RTC_DateUpdate+0x5c>
 8004cb8:	693b      	ldr	r3, [r7, #16]
 8004cba:	2b0a      	cmp	r3, #10
 8004cbc:	d002      	beq.n	8004cc4 <RTC_DateUpdate+0x5c>
 8004cbe:	693b      	ldr	r3, [r7, #16]
 8004cc0:	2b0c      	cmp	r3, #12
 8004cc2:	d117      	bne.n	8004cf4 <RTC_DateUpdate+0x8c>
 8004cc4:	68fb      	ldr	r3, [r7, #12]
 8004cc6:	2b1e      	cmp	r3, #30
 8004cc8:	d803      	bhi.n	8004cd2 <RTC_DateUpdate+0x6a>
 8004cca:	68fb      	ldr	r3, [r7, #12]
 8004ccc:	3301      	adds	r3, #1
 8004cce:	60fb      	str	r3, [r7, #12]
 8004cd0:	e050      	b.n	8004d74 <RTC_DateUpdate+0x10c>
 8004cd2:	693b      	ldr	r3, [r7, #16]
 8004cd4:	2b0c      	cmp	r3, #12
 8004cd6:	d005      	beq.n	8004ce4 <RTC_DateUpdate+0x7c>
 8004cd8:	693b      	ldr	r3, [r7, #16]
 8004cda:	3301      	adds	r3, #1
 8004cdc:	613b      	str	r3, [r7, #16]
 8004cde:	2301      	movs	r3, #1
 8004ce0:	60fb      	str	r3, [r7, #12]
 8004ce2:	e047      	b.n	8004d74 <RTC_DateUpdate+0x10c>
 8004ce4:	2301      	movs	r3, #1
 8004ce6:	613b      	str	r3, [r7, #16]
 8004ce8:	2301      	movs	r3, #1
 8004cea:	60fb      	str	r3, [r7, #12]
 8004cec:	697b      	ldr	r3, [r7, #20]
 8004cee:	3301      	adds	r3, #1
 8004cf0:	617b      	str	r3, [r7, #20]
 8004cf2:	e03f      	b.n	8004d74 <RTC_DateUpdate+0x10c>
 8004cf4:	693b      	ldr	r3, [r7, #16]
 8004cf6:	2b04      	cmp	r3, #4
 8004cf8:	d008      	beq.n	8004d0c <RTC_DateUpdate+0xa4>
 8004cfa:	693b      	ldr	r3, [r7, #16]
 8004cfc:	2b06      	cmp	r3, #6
 8004cfe:	d005      	beq.n	8004d0c <RTC_DateUpdate+0xa4>
 8004d00:	693b      	ldr	r3, [r7, #16]
 8004d02:	2b09      	cmp	r3, #9
 8004d04:	d002      	beq.n	8004d0c <RTC_DateUpdate+0xa4>
 8004d06:	693b      	ldr	r3, [r7, #16]
 8004d08:	2b0b      	cmp	r3, #11
 8004d0a:	d10c      	bne.n	8004d26 <RTC_DateUpdate+0xbe>
 8004d0c:	68fb      	ldr	r3, [r7, #12]
 8004d0e:	2b1d      	cmp	r3, #29
 8004d10:	d803      	bhi.n	8004d1a <RTC_DateUpdate+0xb2>
 8004d12:	68fb      	ldr	r3, [r7, #12]
 8004d14:	3301      	adds	r3, #1
 8004d16:	60fb      	str	r3, [r7, #12]
 8004d18:	e02c      	b.n	8004d74 <RTC_DateUpdate+0x10c>
 8004d1a:	693b      	ldr	r3, [r7, #16]
 8004d1c:	3301      	adds	r3, #1
 8004d1e:	613b      	str	r3, [r7, #16]
 8004d20:	2301      	movs	r3, #1
 8004d22:	60fb      	str	r3, [r7, #12]
 8004d24:	e026      	b.n	8004d74 <RTC_DateUpdate+0x10c>
 8004d26:	693b      	ldr	r3, [r7, #16]
 8004d28:	2b02      	cmp	r3, #2
 8004d2a:	d123      	bne.n	8004d74 <RTC_DateUpdate+0x10c>
 8004d2c:	68fb      	ldr	r3, [r7, #12]
 8004d2e:	2b1b      	cmp	r3, #27
 8004d30:	d803      	bhi.n	8004d3a <RTC_DateUpdate+0xd2>
 8004d32:	68fb      	ldr	r3, [r7, #12]
 8004d34:	3301      	adds	r3, #1
 8004d36:	60fb      	str	r3, [r7, #12]
 8004d38:	e01c      	b.n	8004d74 <RTC_DateUpdate+0x10c>
 8004d3a:	68fb      	ldr	r3, [r7, #12]
 8004d3c:	2b1c      	cmp	r3, #28
 8004d3e:	d111      	bne.n	8004d64 <RTC_DateUpdate+0xfc>
 8004d40:	697b      	ldr	r3, [r7, #20]
 8004d42:	b29b      	uxth	r3, r3
 8004d44:	4618      	mov	r0, r3
 8004d46:	f000 f839 	bl	8004dbc <RTC_IsLeapYear>
 8004d4a:	4603      	mov	r3, r0
 8004d4c:	2b00      	cmp	r3, #0
 8004d4e:	d003      	beq.n	8004d58 <RTC_DateUpdate+0xf0>
 8004d50:	68fb      	ldr	r3, [r7, #12]
 8004d52:	3301      	adds	r3, #1
 8004d54:	60fb      	str	r3, [r7, #12]
 8004d56:	e00d      	b.n	8004d74 <RTC_DateUpdate+0x10c>
 8004d58:	693b      	ldr	r3, [r7, #16]
 8004d5a:	3301      	adds	r3, #1
 8004d5c:	613b      	str	r3, [r7, #16]
 8004d5e:	2301      	movs	r3, #1
 8004d60:	60fb      	str	r3, [r7, #12]
 8004d62:	e007      	b.n	8004d74 <RTC_DateUpdate+0x10c>
 8004d64:	68fb      	ldr	r3, [r7, #12]
 8004d66:	2b1d      	cmp	r3, #29
 8004d68:	d104      	bne.n	8004d74 <RTC_DateUpdate+0x10c>
 8004d6a:	693b      	ldr	r3, [r7, #16]
 8004d6c:	3301      	adds	r3, #1
 8004d6e:	613b      	str	r3, [r7, #16]
 8004d70:	2301      	movs	r3, #1
 8004d72:	60fb      	str	r3, [r7, #12]
 8004d74:	68bb      	ldr	r3, [r7, #8]
 8004d76:	3301      	adds	r3, #1
 8004d78:	60bb      	str	r3, [r7, #8]
 8004d7a:	68ba      	ldr	r2, [r7, #8]
 8004d7c:	683b      	ldr	r3, [r7, #0]
 8004d7e:	429a      	cmp	r2, r3
 8004d80:	d38b      	bcc.n	8004c9a <RTC_DateUpdate+0x32>
 8004d82:	697b      	ldr	r3, [r7, #20]
 8004d84:	b2da      	uxtb	r2, r3
 8004d86:	687b      	ldr	r3, [r7, #4]
 8004d88:	73da      	strb	r2, [r3, #15]
 8004d8a:	693b      	ldr	r3, [r7, #16]
 8004d8c:	b2da      	uxtb	r2, r3
 8004d8e:	687b      	ldr	r3, [r7, #4]
 8004d90:	735a      	strb	r2, [r3, #13]
 8004d92:	68fb      	ldr	r3, [r7, #12]
 8004d94:	b2da      	uxtb	r2, r3
 8004d96:	687b      	ldr	r3, [r7, #4]
 8004d98:	739a      	strb	r2, [r3, #14]
 8004d9a:	693b      	ldr	r3, [r7, #16]
 8004d9c:	b2db      	uxtb	r3, r3
 8004d9e:	68fa      	ldr	r2, [r7, #12]
 8004da0:	b2d2      	uxtb	r2, r2
 8004da2:	4619      	mov	r1, r3
 8004da4:	6978      	ldr	r0, [r7, #20]
 8004da6:	f000 f83b 	bl	8004e20 <RTC_WeekDayNum>
 8004daa:	4603      	mov	r3, r0
 8004dac:	461a      	mov	r2, r3
 8004dae:	687b      	ldr	r3, [r7, #4]
 8004db0:	731a      	strb	r2, [r3, #12]
 8004db2:	bf00      	nop
 8004db4:	3718      	adds	r7, #24
 8004db6:	46bd      	mov	sp, r7
 8004db8:	bd80      	pop	{r7, pc}
	...

08004dbc <RTC_IsLeapYear>:
 8004dbc:	b480      	push	{r7}
 8004dbe:	b083      	sub	sp, #12
 8004dc0:	af00      	add	r7, sp, #0
 8004dc2:	4603      	mov	r3, r0
 8004dc4:	80fb      	strh	r3, [r7, #6]
 8004dc6:	88fb      	ldrh	r3, [r7, #6]
 8004dc8:	f003 0303 	and.w	r3, r3, #3
 8004dcc:	b29b      	uxth	r3, r3
 8004dce:	2b00      	cmp	r3, #0
 8004dd0:	d001      	beq.n	8004dd6 <RTC_IsLeapYear+0x1a>
 8004dd2:	2300      	movs	r3, #0
 8004dd4:	e01d      	b.n	8004e12 <RTC_IsLeapYear+0x56>
 8004dd6:	88fb      	ldrh	r3, [r7, #6]
 8004dd8:	4a10      	ldr	r2, [pc, #64]	; (8004e1c <RTC_IsLeapYear+0x60>)
 8004dda:	fba2 1203 	umull	r1, r2, r2, r3
 8004dde:	0952      	lsrs	r2, r2, #5
 8004de0:	2164      	movs	r1, #100	; 0x64
 8004de2:	fb01 f202 	mul.w	r2, r1, r2
 8004de6:	1a9b      	subs	r3, r3, r2
 8004de8:	b29b      	uxth	r3, r3
 8004dea:	2b00      	cmp	r3, #0
 8004dec:	d001      	beq.n	8004df2 <RTC_IsLeapYear+0x36>
 8004dee:	2301      	movs	r3, #1
 8004df0:	e00f      	b.n	8004e12 <RTC_IsLeapYear+0x56>
 8004df2:	88fb      	ldrh	r3, [r7, #6]
 8004df4:	4a09      	ldr	r2, [pc, #36]	; (8004e1c <RTC_IsLeapYear+0x60>)
 8004df6:	fba2 1203 	umull	r1, r2, r2, r3
 8004dfa:	09d2      	lsrs	r2, r2, #7
 8004dfc:	f44f 71c8 	mov.w	r1, #400	; 0x190
 8004e00:	fb01 f202 	mul.w	r2, r1, r2
 8004e04:	1a9b      	subs	r3, r3, r2
 8004e06:	b29b      	uxth	r3, r3
 8004e08:	2b00      	cmp	r3, #0
 8004e0a:	d101      	bne.n	8004e10 <RTC_IsLeapYear+0x54>
 8004e0c:	2301      	movs	r3, #1
 8004e0e:	e000      	b.n	8004e12 <RTC_IsLeapYear+0x56>
 8004e10:	2300      	movs	r3, #0
 8004e12:	4618      	mov	r0, r3
 8004e14:	370c      	adds	r7, #12
 8004e16:	46bd      	mov	sp, r7
 8004e18:	bc80      	pop	{r7}
 8004e1a:	4770      	bx	lr
 8004e1c:	51eb851f 	.word	0x51eb851f

08004e20 <RTC_WeekDayNum>:
 8004e20:	b480      	push	{r7}
 8004e22:	b085      	sub	sp, #20
 8004e24:	af00      	add	r7, sp, #0
 8004e26:	6078      	str	r0, [r7, #4]
 8004e28:	460b      	mov	r3, r1
 8004e2a:	70fb      	strb	r3, [r7, #3]
 8004e2c:	4613      	mov	r3, r2
 8004e2e:	70bb      	strb	r3, [r7, #2]
 8004e30:	2300      	movs	r3, #0
 8004e32:	60bb      	str	r3, [r7, #8]
 8004e34:	2300      	movs	r3, #0
 8004e36:	60fb      	str	r3, [r7, #12]
 8004e38:	687b      	ldr	r3, [r7, #4]
 8004e3a:	f503 63fa 	add.w	r3, r3, #2000	; 0x7d0
 8004e3e:	60bb      	str	r3, [r7, #8]
 8004e40:	78fb      	ldrb	r3, [r7, #3]
 8004e42:	2b02      	cmp	r3, #2
 8004e44:	d82d      	bhi.n	8004ea2 <RTC_WeekDayNum+0x82>
 8004e46:	78fa      	ldrb	r2, [r7, #3]
 8004e48:	4613      	mov	r3, r2
 8004e4a:	005b      	lsls	r3, r3, #1
 8004e4c:	4413      	add	r3, r2
 8004e4e:	00db      	lsls	r3, r3, #3
 8004e50:	1a9b      	subs	r3, r3, r2
 8004e52:	4a2c      	ldr	r2, [pc, #176]	; (8004f04 <RTC_WeekDayNum+0xe4>)
 8004e54:	fba2 2303 	umull	r2, r3, r2, r3
 8004e58:	085a      	lsrs	r2, r3, #1
 8004e5a:	78bb      	ldrb	r3, [r7, #2]
 8004e5c:	441a      	add	r2, r3
 8004e5e:	68bb      	ldr	r3, [r7, #8]
 8004e60:	441a      	add	r2, r3
 8004e62:	68bb      	ldr	r3, [r7, #8]
 8004e64:	3b01      	subs	r3, #1
 8004e66:	089b      	lsrs	r3, r3, #2
 8004e68:	441a      	add	r2, r3
 8004e6a:	68bb      	ldr	r3, [r7, #8]
 8004e6c:	3b01      	subs	r3, #1
 8004e6e:	4926      	ldr	r1, [pc, #152]	; (8004f08 <RTC_WeekDayNum+0xe8>)
 8004e70:	fba1 1303 	umull	r1, r3, r1, r3
 8004e74:	095b      	lsrs	r3, r3, #5
 8004e76:	1ad2      	subs	r2, r2, r3
 8004e78:	68bb      	ldr	r3, [r7, #8]
 8004e7a:	3b01      	subs	r3, #1
 8004e7c:	4922      	ldr	r1, [pc, #136]	; (8004f08 <RTC_WeekDayNum+0xe8>)
 8004e7e:	fba1 1303 	umull	r1, r3, r1, r3
 8004e82:	09db      	lsrs	r3, r3, #7
 8004e84:	4413      	add	r3, r2
 8004e86:	1d1a      	adds	r2, r3, #4
 8004e88:	4b20      	ldr	r3, [pc, #128]	; (8004f0c <RTC_WeekDayNum+0xec>)
 8004e8a:	fba3 1302 	umull	r1, r3, r3, r2
 8004e8e:	1ad1      	subs	r1, r2, r3
 8004e90:	0849      	lsrs	r1, r1, #1
 8004e92:	440b      	add	r3, r1
 8004e94:	0899      	lsrs	r1, r3, #2
 8004e96:	460b      	mov	r3, r1
 8004e98:	00db      	lsls	r3, r3, #3
 8004e9a:	1a5b      	subs	r3, r3, r1
 8004e9c:	1ad3      	subs	r3, r2, r3
 8004e9e:	60fb      	str	r3, [r7, #12]
 8004ea0:	e029      	b.n	8004ef6 <RTC_WeekDayNum+0xd6>
 8004ea2:	78fa      	ldrb	r2, [r7, #3]
 8004ea4:	4613      	mov	r3, r2
 8004ea6:	005b      	lsls	r3, r3, #1
 8004ea8:	4413      	add	r3, r2
 8004eaa:	00db      	lsls	r3, r3, #3
 8004eac:	1a9b      	subs	r3, r3, r2
 8004eae:	4a15      	ldr	r2, [pc, #84]	; (8004f04 <RTC_WeekDayNum+0xe4>)
 8004eb0:	fba2 2303 	umull	r2, r3, r2, r3
 8004eb4:	085a      	lsrs	r2, r3, #1
 8004eb6:	78bb      	ldrb	r3, [r7, #2]
 8004eb8:	441a      	add	r2, r3
 8004eba:	68bb      	ldr	r3, [r7, #8]
 8004ebc:	441a      	add	r2, r3
 8004ebe:	68bb      	ldr	r3, [r7, #8]
 8004ec0:	089b      	lsrs	r3, r3, #2
 8004ec2:	441a      	add	r2, r3
 8004ec4:	68bb      	ldr	r3, [r7, #8]
 8004ec6:	4910      	ldr	r1, [pc, #64]	; (8004f08 <RTC_WeekDayNum+0xe8>)
 8004ec8:	fba1 1303 	umull	r1, r3, r1, r3
 8004ecc:	095b      	lsrs	r3, r3, #5
 8004ece:	1ad2      	subs	r2, r2, r3
 8004ed0:	68bb      	ldr	r3, [r7, #8]
 8004ed2:	490d      	ldr	r1, [pc, #52]	; (8004f08 <RTC_WeekDayNum+0xe8>)
 8004ed4:	fba1 1303 	umull	r1, r3, r1, r3
 8004ed8:	09db      	lsrs	r3, r3, #7
 8004eda:	4413      	add	r3, r2
 8004edc:	1c9a      	adds	r2, r3, #2
 8004ede:	4b0b      	ldr	r3, [pc, #44]	; (8004f0c <RTC_WeekDayNum+0xec>)
 8004ee0:	fba3 1302 	umull	r1, r3, r3, r2
 8004ee4:	1ad1      	subs	r1, r2, r3
 8004ee6:	0849      	lsrs	r1, r1, #1
 8004ee8:	440b      	add	r3, r1
 8004eea:	0899      	lsrs	r1, r3, #2
 8004eec:	460b      	mov	r3, r1
 8004eee:	00db      	lsls	r3, r3, #3
 8004ef0:	1a5b      	subs	r3, r3, r1
 8004ef2:	1ad3      	subs	r3, r2, r3
 8004ef4:	60fb      	str	r3, [r7, #12]
 8004ef6:	68fb      	ldr	r3, [r7, #12]
 8004ef8:	b2db      	uxtb	r3, r3
 8004efa:	4618      	mov	r0, r3
 8004efc:	3714      	adds	r7, #20
 8004efe:	46bd      	mov	sp, r7
 8004f00:	bc80      	pop	{r7}
 8004f02:	4770      	bx	lr
 8004f04:	38e38e39 	.word	0x38e38e39
 8004f08:	51eb851f 	.word	0x51eb851f
 8004f0c:	24924925 	.word	0x24924925

08004f10 <HAL_RTCEx_RTCIRQHandler>:
 8004f10:	b580      	push	{r7, lr}
 8004f12:	b082      	sub	sp, #8
 8004f14:	af00      	add	r7, sp, #0
 8004f16:	6078      	str	r0, [r7, #4]
 8004f18:	687b      	ldr	r3, [r7, #4]
 8004f1a:	681b      	ldr	r3, [r3, #0]
 8004f1c:	681b      	ldr	r3, [r3, #0]
 8004f1e:	f003 0301 	and.w	r3, r3, #1
 8004f22:	2b00      	cmp	r3, #0
 8004f24:	d024      	beq.n	8004f70 <HAL_RTCEx_RTCIRQHandler+0x60>
 8004f26:	687b      	ldr	r3, [r7, #4]
 8004f28:	681b      	ldr	r3, [r3, #0]
 8004f2a:	685b      	ldr	r3, [r3, #4]
 8004f2c:	f003 0301 	and.w	r3, r3, #1
 8004f30:	2b00      	cmp	r3, #0
 8004f32:	d01d      	beq.n	8004f70 <HAL_RTCEx_RTCIRQHandler+0x60>
 8004f34:	687b      	ldr	r3, [r7, #4]
 8004f36:	681b      	ldr	r3, [r3, #0]
 8004f38:	685b      	ldr	r3, [r3, #4]
 8004f3a:	f003 0304 	and.w	r3, r3, #4
 8004f3e:	2b00      	cmp	r3, #0
 8004f40:	d00b      	beq.n	8004f5a <HAL_RTCEx_RTCIRQHandler+0x4a>
 8004f42:	6878      	ldr	r0, [r7, #4]
 8004f44:	f000 f821 	bl	8004f8a <HAL_RTCEx_RTCEventErrorCallback>
 8004f48:	687b      	ldr	r3, [r7, #4]
 8004f4a:	681b      	ldr	r3, [r3, #0]
 8004f4c:	f06f 0204 	mvn.w	r2, #4
 8004f50:	605a      	str	r2, [r3, #4]
 8004f52:	687b      	ldr	r3, [r7, #4]
 8004f54:	2204      	movs	r2, #4
 8004f56:	745a      	strb	r2, [r3, #17]
 8004f58:	e005      	b.n	8004f66 <HAL_RTCEx_RTCIRQHandler+0x56>
 8004f5a:	6878      	ldr	r0, [r7, #4]
 8004f5c:	f000 f80c 	bl	8004f78 <HAL_RTCEx_RTCEventCallback>
 8004f60:	687b      	ldr	r3, [r7, #4]
 8004f62:	2201      	movs	r2, #1
 8004f64:	745a      	strb	r2, [r3, #17]
 8004f66:	687b      	ldr	r3, [r7, #4]
 8004f68:	681b      	ldr	r3, [r3, #0]
 8004f6a:	f06f 0201 	mvn.w	r2, #1
 8004f6e:	605a      	str	r2, [r3, #4]
 8004f70:	bf00      	nop
 8004f72:	3708      	adds	r7, #8
 8004f74:	46bd      	mov	sp, r7
 8004f76:	bd80      	pop	{r7, pc}

08004f78 <HAL_RTCEx_RTCEventCallback>:
 8004f78:	b480      	push	{r7}
 8004f7a:	b083      	sub	sp, #12
 8004f7c:	af00      	add	r7, sp, #0
 8004f7e:	6078      	str	r0, [r7, #4]
 8004f80:	bf00      	nop
 8004f82:	370c      	adds	r7, #12
 8004f84:	46bd      	mov	sp, r7
 8004f86:	bc80      	pop	{r7}
 8004f88:	4770      	bx	lr

08004f8a <HAL_RTCEx_RTCEventErrorCallback>:
 8004f8a:	b480      	push	{r7}
 8004f8c:	b083      	sub	sp, #12
 8004f8e:	af00      	add	r7, sp, #0
 8004f90:	6078      	str	r0, [r7, #4]
 8004f92:	bf00      	nop
 8004f94:	370c      	adds	r7, #12
 8004f96:	46bd      	mov	sp, r7
 8004f98:	bc80      	pop	{r7}
 8004f9a:	4770      	bx	lr

08004f9c <HAL_SPI_Init>:
 8004f9c:	b580      	push	{r7, lr}
 8004f9e:	b082      	sub	sp, #8
 8004fa0:	af00      	add	r7, sp, #0
 8004fa2:	6078      	str	r0, [r7, #4]
 8004fa4:	687b      	ldr	r3, [r7, #4]
 8004fa6:	2b00      	cmp	r3, #0
 8004fa8:	d101      	bne.n	8004fae <HAL_SPI_Init+0x12>
 8004faa:	2301      	movs	r3, #1
 8004fac:	e053      	b.n	8005056 <HAL_SPI_Init+0xba>
 8004fae:	687b      	ldr	r3, [r7, #4]
 8004fb0:	2200      	movs	r2, #0
 8004fb2:	629a      	str	r2, [r3, #40]	; 0x28
 8004fb4:	687b      	ldr	r3, [r7, #4]
 8004fb6:	f893 3051 	ldrb.w	r3, [r3, #81]	; 0x51
 8004fba:	b2db      	uxtb	r3, r3
 8004fbc:	2b00      	cmp	r3, #0
 8004fbe:	d106      	bne.n	8004fce <HAL_SPI_Init+0x32>
 8004fc0:	687b      	ldr	r3, [r7, #4]
 8004fc2:	2200      	movs	r2, #0
 8004fc4:	f883 2050 	strb.w	r2, [r3, #80]	; 0x50
 8004fc8:	6878      	ldr	r0, [r7, #4]
 8004fca:	f7fd fba7 	bl	800271c <HAL_SPI_MspInit>
 8004fce:	687b      	ldr	r3, [r7, #4]
 8004fd0:	2202      	movs	r2, #2
 8004fd2:	f883 2051 	strb.w	r2, [r3, #81]	; 0x51
 8004fd6:	687b      	ldr	r3, [r7, #4]
 8004fd8:	681b      	ldr	r3, [r3, #0]
 8004fda:	681a      	ldr	r2, [r3, #0]
 8004fdc:	687b      	ldr	r3, [r7, #4]
 8004fde:	681b      	ldr	r3, [r3, #0]
 8004fe0:	f022 0240 	bic.w	r2, r2, #64	; 0x40
 8004fe4:	601a      	str	r2, [r3, #0]
 8004fe6:	687b      	ldr	r3, [r7, #4]
 8004fe8:	685a      	ldr	r2, [r3, #4]
 8004fea:	687b      	ldr	r3, [r7, #4]
 8004fec:	689b      	ldr	r3, [r3, #8]
 8004fee:	431a      	orrs	r2, r3
 8004ff0:	687b      	ldr	r3, [r7, #4]
 8004ff2:	68db      	ldr	r3, [r3, #12]
 8004ff4:	431a      	orrs	r2, r3
 8004ff6:	687b      	ldr	r3, [r7, #4]
 8004ff8:	691b      	ldr	r3, [r3, #16]
 8004ffa:	431a      	orrs	r2, r3
 8004ffc:	687b      	ldr	r3, [r7, #4]
 8004ffe:	695b      	ldr	r3, [r3, #20]
 8005000:	431a      	orrs	r2, r3
 8005002:	687b      	ldr	r3, [r7, #4]
 8005004:	699b      	ldr	r3, [r3, #24]
 8005006:	f403 7300 	and.w	r3, r3, #512	; 0x200
 800500a:	431a      	orrs	r2, r3
 800500c:	687b      	ldr	r3, [r7, #4]
 800500e:	69db      	ldr	r3, [r3, #28]
 8005010:	431a      	orrs	r2, r3
 8005012:	687b      	ldr	r3, [r7, #4]
 8005014:	6a1b      	ldr	r3, [r3, #32]
 8005016:	ea42 0103 	orr.w	r1, r2, r3
 800501a:	687b      	ldr	r3, [r7, #4]
 800501c:	6a9a      	ldr	r2, [r3, #40]	; 0x28
 800501e:	687b      	ldr	r3, [r7, #4]
 8005020:	681b      	ldr	r3, [r3, #0]
 8005022:	430a      	orrs	r2, r1
 8005024:	601a      	str	r2, [r3, #0]
 8005026:	687b      	ldr	r3, [r7, #4]
 8005028:	699b      	ldr	r3, [r3, #24]
 800502a:	0c1a      	lsrs	r2, r3, #16
 800502c:	687b      	ldr	r3, [r7, #4]
 800502e:	681b      	ldr	r3, [r3, #0]
 8005030:	f002 0204 	and.w	r2, r2, #4
 8005034:	605a      	str	r2, [r3, #4]
 8005036:	687b      	ldr	r3, [r7, #4]
 8005038:	681b      	ldr	r3, [r3, #0]
 800503a:	69da      	ldr	r2, [r3, #28]
 800503c:	687b      	ldr	r3, [r7, #4]
 800503e:	681b      	ldr	r3, [r3, #0]
 8005040:	f422 6200 	bic.w	r2, r2, #2048	; 0x800
 8005044:	61da      	str	r2, [r3, #28]
 8005046:	687b      	ldr	r3, [r7, #4]
 8005048:	2200      	movs	r2, #0
 800504a:	655a      	str	r2, [r3, #84]	; 0x54
 800504c:	687b      	ldr	r3, [r7, #4]
 800504e:	2201      	movs	r2, #1
 8005050:	f883 2051 	strb.w	r2, [r3, #81]	; 0x51
 8005054:	2300      	movs	r3, #0
 8005056:	4618      	mov	r0, r3
 8005058:	3708      	adds	r7, #8
 800505a:	46bd      	mov	sp, r7
 800505c:	bd80      	pop	{r7, pc}

0800505e <HAL_SPI_Transmit>:
 800505e:	b580      	push	{r7, lr}
 8005060:	b088      	sub	sp, #32
 8005062:	af00      	add	r7, sp, #0
 8005064:	60f8      	str	r0, [r7, #12]
 8005066:	60b9      	str	r1, [r7, #8]
 8005068:	603b      	str	r3, [r7, #0]
 800506a:	4613      	mov	r3, r2
 800506c:	80fb      	strh	r3, [r7, #6]
 800506e:	2300      	movs	r3, #0
 8005070:	77fb      	strb	r3, [r7, #31]
 8005072:	68fb      	ldr	r3, [r7, #12]
 8005074:	f893 3050 	ldrb.w	r3, [r3, #80]	; 0x50
 8005078:	2b01      	cmp	r3, #1
 800507a:	d101      	bne.n	8005080 <HAL_SPI_Transmit+0x22>
 800507c:	2302      	movs	r3, #2
 800507e:	e11e      	b.n	80052be <HAL_SPI_Transmit+0x260>
 8005080:	68fb      	ldr	r3, [r7, #12]
 8005082:	2201      	movs	r2, #1
 8005084:	f883 2050 	strb.w	r2, [r3, #80]	; 0x50
 8005088:	f7fd fe4c 	bl	8002d24 <HAL_GetTick>
 800508c:	61b8      	str	r0, [r7, #24]
 800508e:	88fb      	ldrh	r3, [r7, #6]
 8005090:	82fb      	strh	r3, [r7, #22]
 8005092:	68fb      	ldr	r3, [r7, #12]
 8005094:	f893 3051 	ldrb.w	r3, [r3, #81]	; 0x51
 8005098:	b2db      	uxtb	r3, r3
 800509a:	2b01      	cmp	r3, #1
 800509c:	d002      	beq.n	80050a4 <HAL_SPI_Transmit+0x46>
 800509e:	2302      	movs	r3, #2
 80050a0:	77fb      	strb	r3, [r7, #31]
 80050a2:	e103      	b.n	80052ac <HAL_SPI_Transmit+0x24e>
 80050a4:	68bb      	ldr	r3, [r7, #8]
 80050a6:	2b00      	cmp	r3, #0
 80050a8:	d002      	beq.n	80050b0 <HAL_SPI_Transmit+0x52>
 80050aa:	88fb      	ldrh	r3, [r7, #6]
 80050ac:	2b00      	cmp	r3, #0
 80050ae:	d102      	bne.n	80050b6 <HAL_SPI_Transmit+0x58>
 80050b0:	2301      	movs	r3, #1
 80050b2:	77fb      	strb	r3, [r7, #31]
 80050b4:	e0fa      	b.n	80052ac <HAL_SPI_Transmit+0x24e>
 80050b6:	68fb      	ldr	r3, [r7, #12]
 80050b8:	2203      	movs	r2, #3
 80050ba:	f883 2051 	strb.w	r2, [r3, #81]	; 0x51
 80050be:	68fb      	ldr	r3, [r7, #12]
 80050c0:	2200      	movs	r2, #0
 80050c2:	655a      	str	r2, [r3, #84]	; 0x54
 80050c4:	68fb      	ldr	r3, [r7, #12]
 80050c6:	68ba      	ldr	r2, [r7, #8]
 80050c8:	631a      	str	r2, [r3, #48]	; 0x30
 80050ca:	68fb      	ldr	r3, [r7, #12]
 80050cc:	88fa      	ldrh	r2, [r7, #6]
 80050ce:	869a      	strh	r2, [r3, #52]	; 0x34
 80050d0:	68fb      	ldr	r3, [r7, #12]
 80050d2:	88fa      	ldrh	r2, [r7, #6]
 80050d4:	86da      	strh	r2, [r3, #54]	; 0x36
 80050d6:	68fb      	ldr	r3, [r7, #12]
 80050d8:	2200      	movs	r2, #0
 80050da:	639a      	str	r2, [r3, #56]	; 0x38
 80050dc:	68fb      	ldr	r3, [r7, #12]
 80050de:	2200      	movs	r2, #0
 80050e0:	879a      	strh	r2, [r3, #60]	; 0x3c
 80050e2:	68fb      	ldr	r3, [r7, #12]
 80050e4:	2200      	movs	r2, #0
 80050e6:	87da      	strh	r2, [r3, #62]	; 0x3e
 80050e8:	68fb      	ldr	r3, [r7, #12]
 80050ea:	2200      	movs	r2, #0
 80050ec:	645a      	str	r2, [r3, #68]	; 0x44
 80050ee:	68fb      	ldr	r3, [r7, #12]
 80050f0:	2200      	movs	r2, #0
 80050f2:	641a      	str	r2, [r3, #64]	; 0x40
 80050f4:	68fb      	ldr	r3, [r7, #12]
 80050f6:	689b      	ldr	r3, [r3, #8]
 80050f8:	f5b3 4f00 	cmp.w	r3, #32768	; 0x8000
 80050fc:	d107      	bne.n	800510e <HAL_SPI_Transmit+0xb0>
 80050fe:	68fb      	ldr	r3, [r7, #12]
 8005100:	681b      	ldr	r3, [r3, #0]
 8005102:	681a      	ldr	r2, [r3, #0]
 8005104:	68fb      	ldr	r3, [r7, #12]
 8005106:	681b      	ldr	r3, [r3, #0]
 8005108:	f442 4280 	orr.w	r2, r2, #16384	; 0x4000
 800510c:	601a      	str	r2, [r3, #0]
 800510e:	68fb      	ldr	r3, [r7, #12]
 8005110:	681b      	ldr	r3, [r3, #0]
 8005112:	681b      	ldr	r3, [r3, #0]
 8005114:	f003 0340 	and.w	r3, r3, #64	; 0x40
 8005118:	2b40      	cmp	r3, #64	; 0x40
 800511a:	d007      	beq.n	800512c <HAL_SPI_Transmit+0xce>
 800511c:	68fb      	ldr	r3, [r7, #12]
 800511e:	681b      	ldr	r3, [r3, #0]
 8005120:	681a      	ldr	r2, [r3, #0]
 8005122:	68fb      	ldr	r3, [r7, #12]
 8005124:	681b      	ldr	r3, [r3, #0]
 8005126:	f042 0240 	orr.w	r2, r2, #64	; 0x40
 800512a:	601a      	str	r2, [r3, #0]
 800512c:	68fb      	ldr	r3, [r7, #12]
 800512e:	68db      	ldr	r3, [r3, #12]
 8005130:	f5b3 6f00 	cmp.w	r3, #2048	; 0x800
 8005134:	d14b      	bne.n	80051ce <HAL_SPI_Transmit+0x170>
 8005136:	68fb      	ldr	r3, [r7, #12]
 8005138:	685b      	ldr	r3, [r3, #4]
 800513a:	2b00      	cmp	r3, #0
 800513c:	d002      	beq.n	8005144 <HAL_SPI_Transmit+0xe6>
 800513e:	8afb      	ldrh	r3, [r7, #22]
 8005140:	2b01      	cmp	r3, #1
 8005142:	d13e      	bne.n	80051c2 <HAL_SPI_Transmit+0x164>
 8005144:	68fb      	ldr	r3, [r7, #12]
 8005146:	6b1b      	ldr	r3, [r3, #48]	; 0x30
 8005148:	881a      	ldrh	r2, [r3, #0]
 800514a:	68fb      	ldr	r3, [r7, #12]
 800514c:	681b      	ldr	r3, [r3, #0]
 800514e:	60da      	str	r2, [r3, #12]
 8005150:	68fb      	ldr	r3, [r7, #12]
 8005152:	6b1b      	ldr	r3, [r3, #48]	; 0x30
 8005154:	1c9a      	adds	r2, r3, #2
 8005156:	68fb      	ldr	r3, [r7, #12]
 8005158:	631a      	str	r2, [r3, #48]	; 0x30
 800515a:	68fb      	ldr	r3, [r7, #12]
 800515c:	8edb      	ldrh	r3, [r3, #54]	; 0x36
 800515e:	b29b      	uxth	r3, r3
 8005160:	3b01      	subs	r3, #1
 8005162:	b29a      	uxth	r2, r3
 8005164:	68fb      	ldr	r3, [r7, #12]
 8005166:	86da      	strh	r2, [r3, #54]	; 0x36
 8005168:	e02b      	b.n	80051c2 <HAL_SPI_Transmit+0x164>
 800516a:	68fb      	ldr	r3, [r7, #12]
 800516c:	681b      	ldr	r3, [r3, #0]
 800516e:	689b      	ldr	r3, [r3, #8]
 8005170:	f003 0302 	and.w	r3, r3, #2
 8005174:	2b02      	cmp	r3, #2
 8005176:	d112      	bne.n	800519e <HAL_SPI_Transmit+0x140>
 8005178:	68fb      	ldr	r3, [r7, #12]
 800517a:	6b1b      	ldr	r3, [r3, #48]	; 0x30
 800517c:	881a      	ldrh	r2, [r3, #0]
 800517e:	68fb      	ldr	r3, [r7, #12]
 8005180:	681b      	ldr	r3, [r3, #0]
 8005182:	60da      	str	r2, [r3, #12]
 8005184:	68fb      	ldr	r3, [r7, #12]
 8005186:	6b1b      	ldr	r3, [r3, #48]	; 0x30
 8005188:	1c9a      	adds	r2, r3, #2
 800518a:	68fb      	ldr	r3, [r7, #12]
 800518c:	631a      	str	r2, [r3, #48]	; 0x30
 800518e:	68fb      	ldr	r3, [r7, #12]
 8005190:	8edb      	ldrh	r3, [r3, #54]	; 0x36
 8005192:	b29b      	uxth	r3, r3
 8005194:	3b01      	subs	r3, #1
 8005196:	b29a      	uxth	r2, r3
 8005198:	68fb      	ldr	r3, [r7, #12]
 800519a:	86da      	strh	r2, [r3, #54]	; 0x36
 800519c:	e011      	b.n	80051c2 <HAL_SPI_Transmit+0x164>
 800519e:	f7fd fdc1 	bl	8002d24 <HAL_GetTick>
 80051a2:	4602      	mov	r2, r0
 80051a4:	69bb      	ldr	r3, [r7, #24]
 80051a6:	1ad3      	subs	r3, r2, r3
 80051a8:	683a      	ldr	r2, [r7, #0]
 80051aa:	429a      	cmp	r2, r3
 80051ac:	d803      	bhi.n	80051b6 <HAL_SPI_Transmit+0x158>
 80051ae:	683b      	ldr	r3, [r7, #0]
 80051b0:	f1b3 3fff 	cmp.w	r3, #4294967295
 80051b4:	d102      	bne.n	80051bc <HAL_SPI_Transmit+0x15e>
 80051b6:	683b      	ldr	r3, [r7, #0]
 80051b8:	2b00      	cmp	r3, #0
 80051ba:	d102      	bne.n	80051c2 <HAL_SPI_Transmit+0x164>
 80051bc:	2303      	movs	r3, #3
 80051be:	77fb      	strb	r3, [r7, #31]
 80051c0:	e074      	b.n	80052ac <HAL_SPI_Transmit+0x24e>
 80051c2:	68fb      	ldr	r3, [r7, #12]
 80051c4:	8edb      	ldrh	r3, [r3, #54]	; 0x36
 80051c6:	b29b      	uxth	r3, r3
 80051c8:	2b00      	cmp	r3, #0
 80051ca:	d1ce      	bne.n	800516a <HAL_SPI_Transmit+0x10c>
 80051cc:	e04c      	b.n	8005268 <HAL_SPI_Transmit+0x20a>
 80051ce:	68fb      	ldr	r3, [r7, #12]
 80051d0:	685b      	ldr	r3, [r3, #4]
 80051d2:	2b00      	cmp	r3, #0
 80051d4:	d002      	beq.n	80051dc <HAL_SPI_Transmit+0x17e>
 80051d6:	8afb      	ldrh	r3, [r7, #22]
 80051d8:	2b01      	cmp	r3, #1
 80051da:	d140      	bne.n	800525e <HAL_SPI_Transmit+0x200>
 80051dc:	68fb      	ldr	r3, [r7, #12]
 80051de:	6b1a      	ldr	r2, [r3, #48]	; 0x30
 80051e0:	68fb      	ldr	r3, [r7, #12]
 80051e2:	681b      	ldr	r3, [r3, #0]
 80051e4:	330c      	adds	r3, #12
 80051e6:	7812      	ldrb	r2, [r2, #0]
 80051e8:	701a      	strb	r2, [r3, #0]
 80051ea:	68fb      	ldr	r3, [r7, #12]
 80051ec:	6b1b      	ldr	r3, [r3, #48]	; 0x30
 80051ee:	1c5a      	adds	r2, r3, #1
 80051f0:	68fb      	ldr	r3, [r7, #12]
 80051f2:	631a      	str	r2, [r3, #48]	; 0x30
 80051f4:	68fb      	ldr	r3, [r7, #12]
 80051f6:	8edb      	ldrh	r3, [r3, #54]	; 0x36
 80051f8:	b29b      	uxth	r3, r3
 80051fa:	3b01      	subs	r3, #1
 80051fc:	b29a      	uxth	r2, r3
 80051fe:	68fb      	ldr	r3, [r7, #12]
 8005200:	86da      	strh	r2, [r3, #54]	; 0x36
 8005202:	e02c      	b.n	800525e <HAL_SPI_Transmit+0x200>
 8005204:	68fb      	ldr	r3, [r7, #12]
 8005206:	681b      	ldr	r3, [r3, #0]
 8005208:	689b      	ldr	r3, [r3, #8]
 800520a:	f003 0302 	and.w	r3, r3, #2
 800520e:	2b02      	cmp	r3, #2
 8005210:	d113      	bne.n	800523a <HAL_SPI_Transmit+0x1dc>
 8005212:	68fb      	ldr	r3, [r7, #12]
 8005214:	6b1a      	ldr	r2, [r3, #48]	; 0x30
 8005216:	68fb      	ldr	r3, [r7, #12]
 8005218:	681b      	ldr	r3, [r3, #0]
 800521a:	330c      	adds	r3, #12
 800521c:	7812      	ldrb	r2, [r2, #0]
 800521e:	701a      	strb	r2, [r3, #0]
 8005220:	68fb      	ldr	r3, [r7, #12]
 8005222:	6b1b      	ldr	r3, [r3, #48]	; 0x30
 8005224:	1c5a      	adds	r2, r3, #1
 8005226:	68fb      	ldr	r3, [r7, #12]
 8005228:	631a      	str	r2, [r3, #48]	; 0x30
 800522a:	68fb      	ldr	r3, [r7, #12]
 800522c:	8edb      	ldrh	r3, [r3, #54]	; 0x36
 800522e:	b29b      	uxth	r3, r3
 8005230:	3b01      	subs	r3, #1
 8005232:	b29a      	uxth	r2, r3
 8005234:	68fb      	ldr	r3, [r7, #12]
 8005236:	86da      	strh	r2, [r3, #54]	; 0x36
 8005238:	e011      	b.n	800525e <HAL_SPI_Transmit+0x200>
 800523a:	f7fd fd73 	bl	8002d24 <HAL_GetTick>
 800523e:	4602      	mov	r2, r0
 8005240:	69bb      	ldr	r3, [r7, #24]
 8005242:	1ad3      	subs	r3, r2, r3
 8005244:	683a      	ldr	r2, [r7, #0]
 8005246:	429a      	cmp	r2, r3
 8005248:	d803      	bhi.n	8005252 <HAL_SPI_Transmit+0x1f4>
 800524a:	683b      	ldr	r3, [r7, #0]
 800524c:	f1b3 3fff 	cmp.w	r3, #4294967295
 8005250:	d102      	bne.n	8005258 <HAL_SPI_Transmit+0x1fa>
 8005252:	683b      	ldr	r3, [r7, #0]
 8005254:	2b00      	cmp	r3, #0
 8005256:	d102      	bne.n	800525e <HAL_SPI_Transmit+0x200>
 8005258:	2303      	movs	r3, #3
 800525a:	77fb      	strb	r3, [r7, #31]
 800525c:	e026      	b.n	80052ac <HAL_SPI_Transmit+0x24e>
 800525e:	68fb      	ldr	r3, [r7, #12]
 8005260:	8edb      	ldrh	r3, [r3, #54]	; 0x36
 8005262:	b29b      	uxth	r3, r3
 8005264:	2b00      	cmp	r3, #0
 8005266:	d1cd      	bne.n	8005204 <HAL_SPI_Transmit+0x1a6>
 8005268:	69ba      	ldr	r2, [r7, #24]
 800526a:	6839      	ldr	r1, [r7, #0]
 800526c:	68f8      	ldr	r0, [r7, #12]
 800526e:	f000 fb91 	bl	8005994 <SPI_EndRxTxTransaction>
 8005272:	4603      	mov	r3, r0
 8005274:	2b00      	cmp	r3, #0
 8005276:	d002      	beq.n	800527e <HAL_SPI_Transmit+0x220>
 8005278:	68fb      	ldr	r3, [r7, #12]
 800527a:	2220      	movs	r2, #32
 800527c:	655a      	str	r2, [r3, #84]	; 0x54
 800527e:	68fb      	ldr	r3, [r7, #12]
 8005280:	689b      	ldr	r3, [r3, #8]
 8005282:	2b00      	cmp	r3, #0
 8005284:	d10a      	bne.n	800529c <HAL_SPI_Transmit+0x23e>
 8005286:	2300      	movs	r3, #0
 8005288:	613b      	str	r3, [r7, #16]
 800528a:	68fb      	ldr	r3, [r7, #12]
 800528c:	681b      	ldr	r3, [r3, #0]
 800528e:	68db      	ldr	r3, [r3, #12]
 8005290:	613b      	str	r3, [r7, #16]
 8005292:	68fb      	ldr	r3, [r7, #12]
 8005294:	681b      	ldr	r3, [r3, #0]
 8005296:	689b      	ldr	r3, [r3, #8]
 8005298:	613b      	str	r3, [r7, #16]
 800529a:	693b      	ldr	r3, [r7, #16]
 800529c:	68fb      	ldr	r3, [r7, #12]
 800529e:	6d5b      	ldr	r3, [r3, #84]	; 0x54
 80052a0:	2b00      	cmp	r3, #0
 80052a2:	d002      	beq.n	80052aa <HAL_SPI_Transmit+0x24c>
 80052a4:	2301      	movs	r3, #1
 80052a6:	77fb      	strb	r3, [r7, #31]
 80052a8:	e000      	b.n	80052ac <HAL_SPI_Transmit+0x24e>
 80052aa:	bf00      	nop
 80052ac:	68fb      	ldr	r3, [r7, #12]
 80052ae:	2201      	movs	r2, #1
 80052b0:	f883 2051 	strb.w	r2, [r3, #81]	; 0x51
 80052b4:	68fb      	ldr	r3, [r7, #12]
 80052b6:	2200      	movs	r2, #0
 80052b8:	f883 2050 	strb.w	r2, [r3, #80]	; 0x50
 80052bc:	7ffb      	ldrb	r3, [r7, #31]
 80052be:	4618      	mov	r0, r3
 80052c0:	3720      	adds	r7, #32
 80052c2:	46bd      	mov	sp, r7
 80052c4:	bd80      	pop	{r7, pc}

080052c6 <HAL_SPI_Receive>:
 80052c6:	b580      	push	{r7, lr}
 80052c8:	b088      	sub	sp, #32
 80052ca:	af02      	add	r7, sp, #8
 80052cc:	60f8      	str	r0, [r7, #12]
 80052ce:	60b9      	str	r1, [r7, #8]
 80052d0:	603b      	str	r3, [r7, #0]
 80052d2:	4613      	mov	r3, r2
 80052d4:	80fb      	strh	r3, [r7, #6]
 80052d6:	2300      	movs	r3, #0
 80052d8:	75fb      	strb	r3, [r7, #23]
 80052da:	68fb      	ldr	r3, [r7, #12]
 80052dc:	685b      	ldr	r3, [r3, #4]
 80052de:	f5b3 7f82 	cmp.w	r3, #260	; 0x104
 80052e2:	d112      	bne.n	800530a <HAL_SPI_Receive+0x44>
 80052e4:	68fb      	ldr	r3, [r7, #12]
 80052e6:	689b      	ldr	r3, [r3, #8]
 80052e8:	2b00      	cmp	r3, #0
 80052ea:	d10e      	bne.n	800530a <HAL_SPI_Receive+0x44>
 80052ec:	68fb      	ldr	r3, [r7, #12]
 80052ee:	2204      	movs	r2, #4
 80052f0:	f883 2051 	strb.w	r2, [r3, #81]	; 0x51
 80052f4:	88fa      	ldrh	r2, [r7, #6]
 80052f6:	683b      	ldr	r3, [r7, #0]
 80052f8:	9300      	str	r3, [sp, #0]
 80052fa:	4613      	mov	r3, r2
 80052fc:	68ba      	ldr	r2, [r7, #8]
 80052fe:	68b9      	ldr	r1, [r7, #8]
 8005300:	68f8      	ldr	r0, [r7, #12]
 8005302:	f000 f8e9 	bl	80054d8 <HAL_SPI_TransmitReceive>
 8005306:	4603      	mov	r3, r0
 8005308:	e0e2      	b.n	80054d0 <HAL_SPI_Receive+0x20a>
 800530a:	68fb      	ldr	r3, [r7, #12]
 800530c:	f893 3050 	ldrb.w	r3, [r3, #80]	; 0x50
 8005310:	2b01      	cmp	r3, #1
 8005312:	d101      	bne.n	8005318 <HAL_SPI_Receive+0x52>
 8005314:	2302      	movs	r3, #2
 8005316:	e0db      	b.n	80054d0 <HAL_SPI_Receive+0x20a>
 8005318:	68fb      	ldr	r3, [r7, #12]
 800531a:	2201      	movs	r2, #1
 800531c:	f883 2050 	strb.w	r2, [r3, #80]	; 0x50
 8005320:	f7fd fd00 	bl	8002d24 <HAL_GetTick>
 8005324:	6138      	str	r0, [r7, #16]
 8005326:	68fb      	ldr	r3, [r7, #12]
 8005328:	f893 3051 	ldrb.w	r3, [r3, #81]	; 0x51
 800532c:	b2db      	uxtb	r3, r3
 800532e:	2b01      	cmp	r3, #1
 8005330:	d002      	beq.n	8005338 <HAL_SPI_Receive+0x72>
 8005332:	2302      	movs	r3, #2
 8005334:	75fb      	strb	r3, [r7, #23]
 8005336:	e0c2      	b.n	80054be <HAL_SPI_Receive+0x1f8>
 8005338:	68bb      	ldr	r3, [r7, #8]
 800533a:	2b00      	cmp	r3, #0
 800533c:	d002      	beq.n	8005344 <HAL_SPI_Receive+0x7e>
 800533e:	88fb      	ldrh	r3, [r7, #6]
 8005340:	2b00      	cmp	r3, #0
 8005342:	d102      	bne.n	800534a <HAL_SPI_Receive+0x84>
 8005344:	2301      	movs	r3, #1
 8005346:	75fb      	strb	r3, [r7, #23]
 8005348:	e0b9      	b.n	80054be <HAL_SPI_Receive+0x1f8>
 800534a:	68fb      	ldr	r3, [r7, #12]
 800534c:	2204      	movs	r2, #4
 800534e:	f883 2051 	strb.w	r2, [r3, #81]	; 0x51
 8005352:	68fb      	ldr	r3, [r7, #12]
 8005354:	2200      	movs	r2, #0
 8005356:	655a      	str	r2, [r3, #84]	; 0x54
 8005358:	68fb      	ldr	r3, [r7, #12]
 800535a:	68ba      	ldr	r2, [r7, #8]
 800535c:	639a      	str	r2, [r3, #56]	; 0x38
 800535e:	68fb      	ldr	r3, [r7, #12]
 8005360:	88fa      	ldrh	r2, [r7, #6]
 8005362:	879a      	strh	r2, [r3, #60]	; 0x3c
 8005364:	68fb      	ldr	r3, [r7, #12]
 8005366:	88fa      	ldrh	r2, [r7, #6]
 8005368:	87da      	strh	r2, [r3, #62]	; 0x3e
 800536a:	68fb      	ldr	r3, [r7, #12]
 800536c:	2200      	movs	r2, #0
 800536e:	631a      	str	r2, [r3, #48]	; 0x30
 8005370:	68fb      	ldr	r3, [r7, #12]
 8005372:	2200      	movs	r2, #0
 8005374:	869a      	strh	r2, [r3, #52]	; 0x34
 8005376:	68fb      	ldr	r3, [r7, #12]
 8005378:	2200      	movs	r2, #0
 800537a:	86da      	strh	r2, [r3, #54]	; 0x36
 800537c:	68fb      	ldr	r3, [r7, #12]
 800537e:	2200      	movs	r2, #0
 8005380:	641a      	str	r2, [r3, #64]	; 0x40
 8005382:	68fb      	ldr	r3, [r7, #12]
 8005384:	2200      	movs	r2, #0
 8005386:	645a      	str	r2, [r3, #68]	; 0x44
 8005388:	68fb      	ldr	r3, [r7, #12]
 800538a:	689b      	ldr	r3, [r3, #8]
 800538c:	f5b3 4f00 	cmp.w	r3, #32768	; 0x8000
 8005390:	d107      	bne.n	80053a2 <HAL_SPI_Receive+0xdc>
 8005392:	68fb      	ldr	r3, [r7, #12]
 8005394:	681b      	ldr	r3, [r3, #0]
 8005396:	681a      	ldr	r2, [r3, #0]
 8005398:	68fb      	ldr	r3, [r7, #12]
 800539a:	681b      	ldr	r3, [r3, #0]
 800539c:	f422 4280 	bic.w	r2, r2, #16384	; 0x4000
 80053a0:	601a      	str	r2, [r3, #0]
 80053a2:	68fb      	ldr	r3, [r7, #12]
 80053a4:	681b      	ldr	r3, [r3, #0]
 80053a6:	681b      	ldr	r3, [r3, #0]
 80053a8:	f003 0340 	and.w	r3, r3, #64	; 0x40
 80053ac:	2b40      	cmp	r3, #64	; 0x40
 80053ae:	d007      	beq.n	80053c0 <HAL_SPI_Receive+0xfa>
 80053b0:	68fb      	ldr	r3, [r7, #12]
 80053b2:	681b      	ldr	r3, [r3, #0]
 80053b4:	681a      	ldr	r2, [r3, #0]
 80053b6:	68fb      	ldr	r3, [r7, #12]
 80053b8:	681b      	ldr	r3, [r3, #0]
 80053ba:	f042 0240 	orr.w	r2, r2, #64	; 0x40
 80053be:	601a      	str	r2, [r3, #0]
 80053c0:	68fb      	ldr	r3, [r7, #12]
 80053c2:	68db      	ldr	r3, [r3, #12]
 80053c4:	2b00      	cmp	r3, #0
 80053c6:	d162      	bne.n	800548e <HAL_SPI_Receive+0x1c8>
 80053c8:	e02e      	b.n	8005428 <HAL_SPI_Receive+0x162>
 80053ca:	68fb      	ldr	r3, [r7, #12]
 80053cc:	681b      	ldr	r3, [r3, #0]
 80053ce:	689b      	ldr	r3, [r3, #8]
 80053d0:	f003 0301 	and.w	r3, r3, #1
 80053d4:	2b01      	cmp	r3, #1
 80053d6:	d115      	bne.n	8005404 <HAL_SPI_Receive+0x13e>
 80053d8:	68fb      	ldr	r3, [r7, #12]
 80053da:	681b      	ldr	r3, [r3, #0]
 80053dc:	f103 020c 	add.w	r2, r3, #12
 80053e0:	68fb      	ldr	r3, [r7, #12]
 80053e2:	6b9b      	ldr	r3, [r3, #56]	; 0x38
 80053e4:	7812      	ldrb	r2, [r2, #0]
 80053e6:	b2d2      	uxtb	r2, r2
 80053e8:	701a      	strb	r2, [r3, #0]
 80053ea:	68fb      	ldr	r3, [r7, #12]
 80053ec:	6b9b      	ldr	r3, [r3, #56]	; 0x38
 80053ee:	1c5a      	adds	r2, r3, #1
 80053f0:	68fb      	ldr	r3, [r7, #12]
 80053f2:	639a      	str	r2, [r3, #56]	; 0x38
 80053f4:	68fb      	ldr	r3, [r7, #12]
 80053f6:	8fdb      	ldrh	r3, [r3, #62]	; 0x3e
 80053f8:	b29b      	uxth	r3, r3
 80053fa:	3b01      	subs	r3, #1
 80053fc:	b29a      	uxth	r2, r3
 80053fe:	68fb      	ldr	r3, [r7, #12]
 8005400:	87da      	strh	r2, [r3, #62]	; 0x3e
 8005402:	e011      	b.n	8005428 <HAL_SPI_Receive+0x162>
 8005404:	f7fd fc8e 	bl	8002d24 <HAL_GetTick>
 8005408:	4602      	mov	r2, r0
 800540a:	693b      	ldr	r3, [r7, #16]
 800540c:	1ad3      	subs	r3, r2, r3
 800540e:	683a      	ldr	r2, [r7, #0]
 8005410:	429a      	cmp	r2, r3
 8005412:	d803      	bhi.n	800541c <HAL_SPI_Receive+0x156>
 8005414:	683b      	ldr	r3, [r7, #0]
 8005416:	f1b3 3fff 	cmp.w	r3, #4294967295
 800541a:	d102      	bne.n	8005422 <HAL_SPI_Receive+0x15c>
 800541c:	683b      	ldr	r3, [r7, #0]
 800541e:	2b00      	cmp	r3, #0
 8005420:	d102      	bne.n	8005428 <HAL_SPI_Receive+0x162>
 8005422:	2303      	movs	r3, #3
 8005424:	75fb      	strb	r3, [r7, #23]
 8005426:	e04a      	b.n	80054be <HAL_SPI_Receive+0x1f8>
 8005428:	68fb      	ldr	r3, [r7, #12]
 800542a:	8fdb      	ldrh	r3, [r3, #62]	; 0x3e
 800542c:	b29b      	uxth	r3, r3
 800542e:	2b00      	cmp	r3, #0
 8005430:	d1cb      	bne.n	80053ca <HAL_SPI_Receive+0x104>
 8005432:	e031      	b.n	8005498 <HAL_SPI_Receive+0x1d2>
 8005434:	68fb      	ldr	r3, [r7, #12]
 8005436:	681b      	ldr	r3, [r3, #0]
 8005438:	689b      	ldr	r3, [r3, #8]
 800543a:	f003 0301 	and.w	r3, r3, #1
 800543e:	2b01      	cmp	r3, #1
 8005440:	d113      	bne.n	800546a <HAL_SPI_Receive+0x1a4>
 8005442:	68fb      	ldr	r3, [r7, #12]
 8005444:	681b      	ldr	r3, [r3, #0]
 8005446:	68da      	ldr	r2, [r3, #12]
 8005448:	68fb      	ldr	r3, [r7, #12]
 800544a:	6b9b      	ldr	r3, [r3, #56]	; 0x38
 800544c:	b292      	uxth	r2, r2
 800544e:	801a      	strh	r2, [r3, #0]
 8005450:	68fb      	ldr	r3, [r7, #12]
 8005452:	6b9b      	ldr	r3, [r3, #56]	; 0x38
 8005454:	1c9a      	adds	r2, r3, #2
 8005456:	68fb      	ldr	r3, [r7, #12]
 8005458:	639a      	str	r2, [r3, #56]	; 0x38
 800545a:	68fb      	ldr	r3, [r7, #12]
 800545c:	8fdb      	ldrh	r3, [r3, #62]	; 0x3e
 800545e:	b29b      	uxth	r3, r3
 8005460:	3b01      	subs	r3, #1
 8005462:	b29a      	uxth	r2, r3
 8005464:	68fb      	ldr	r3, [r7, #12]
 8005466:	87da      	strh	r2, [r3, #62]	; 0x3e
 8005468:	e011      	b.n	800548e <HAL_SPI_Receive+0x1c8>
 800546a:	f7fd fc5b 	bl	8002d24 <HAL_GetTick>
 800546e:	4602      	mov	r2, r0
 8005470:	693b      	ldr	r3, [r7, #16]
 8005472:	1ad3      	subs	r3, r2, r3
 8005474:	683a      	ldr	r2, [r7, #0]
 8005476:	429a      	cmp	r2, r3
 8005478:	d803      	bhi.n	8005482 <HAL_SPI_Receive+0x1bc>
 800547a:	683b      	ldr	r3, [r7, #0]
 800547c:	f1b3 3fff 	cmp.w	r3, #4294967295
 8005480:	d102      	bne.n	8005488 <HAL_SPI_Receive+0x1c2>
 8005482:	683b      	ldr	r3, [r7, #0]
 8005484:	2b00      	cmp	r3, #0
 8005486:	d102      	bne.n	800548e <HAL_SPI_Receive+0x1c8>
 8005488:	2303      	movs	r3, #3
 800548a:	75fb      	strb	r3, [r7, #23]
 800548c:	e017      	b.n	80054be <HAL_SPI_Receive+0x1f8>
 800548e:	68fb      	ldr	r3, [r7, #12]
 8005490:	8fdb      	ldrh	r3, [r3, #62]	; 0x3e
 8005492:	b29b      	uxth	r3, r3
 8005494:	2b00      	cmp	r3, #0
 8005496:	d1cd      	bne.n	8005434 <HAL_SPI_Receive+0x16e>
 8005498:	693a      	ldr	r2, [r7, #16]
 800549a:	6839      	ldr	r1, [r7, #0]
 800549c:	68f8      	ldr	r0, [r7, #12]
 800549e:	f000 fa27 	bl	80058f0 <SPI_EndRxTransaction>
 80054a2:	4603      	mov	r3, r0
 80054a4:	2b00      	cmp	r3, #0
 80054a6:	d002      	beq.n	80054ae <HAL_SPI_Receive+0x1e8>
 80054a8:	68fb      	ldr	r3, [r7, #12]
 80054aa:	2220      	movs	r2, #32
 80054ac:	655a      	str	r2, [r3, #84]	; 0x54
 80054ae:	68fb      	ldr	r3, [r7, #12]
 80054b0:	6d5b      	ldr	r3, [r3, #84]	; 0x54
 80054b2:	2b00      	cmp	r3, #0
 80054b4:	d002      	beq.n	80054bc <HAL_SPI_Receive+0x1f6>
 80054b6:	2301      	movs	r3, #1
 80054b8:	75fb      	strb	r3, [r7, #23]
 80054ba:	e000      	b.n	80054be <HAL_SPI_Receive+0x1f8>
 80054bc:	bf00      	nop
 80054be:	68fb      	ldr	r3, [r7, #12]
 80054c0:	2201      	movs	r2, #1
 80054c2:	f883 2051 	strb.w	r2, [r3, #81]	; 0x51
 80054c6:	68fb      	ldr	r3, [r7, #12]
 80054c8:	2200      	movs	r2, #0
 80054ca:	f883 2050 	strb.w	r2, [r3, #80]	; 0x50
 80054ce:	7dfb      	ldrb	r3, [r7, #23]
 80054d0:	4618      	mov	r0, r3
 80054d2:	3718      	adds	r7, #24
 80054d4:	46bd      	mov	sp, r7
 80054d6:	bd80      	pop	{r7, pc}

080054d8 <HAL_SPI_TransmitReceive>:
 80054d8:	b580      	push	{r7, lr}
 80054da:	b08c      	sub	sp, #48	; 0x30
 80054dc:	af00      	add	r7, sp, #0
 80054de:	60f8      	str	r0, [r7, #12]
 80054e0:	60b9      	str	r1, [r7, #8]
 80054e2:	607a      	str	r2, [r7, #4]
 80054e4:	807b      	strh	r3, [r7, #2]
 80054e6:	2301      	movs	r3, #1
 80054e8:	62fb      	str	r3, [r7, #44]	; 0x2c
 80054ea:	2300      	movs	r3, #0
 80054ec:	f887 302b 	strb.w	r3, [r7, #43]	; 0x2b
 80054f0:	68fb      	ldr	r3, [r7, #12]
 80054f2:	f893 3050 	ldrb.w	r3, [r3, #80]	; 0x50
 80054f6:	2b01      	cmp	r3, #1
 80054f8:	d101      	bne.n	80054fe <HAL_SPI_TransmitReceive+0x26>
 80054fa:	2302      	movs	r3, #2
 80054fc:	e18a      	b.n	8005814 <HAL_SPI_TransmitReceive+0x33c>
 80054fe:	68fb      	ldr	r3, [r7, #12]
 8005500:	2201      	movs	r2, #1
 8005502:	f883 2050 	strb.w	r2, [r3, #80]	; 0x50
 8005506:	f7fd fc0d 	bl	8002d24 <HAL_GetTick>
 800550a:	6278      	str	r0, [r7, #36]	; 0x24
 800550c:	68fb      	ldr	r3, [r7, #12]
 800550e:	f893 3051 	ldrb.w	r3, [r3, #81]	; 0x51
 8005512:	f887 3023 	strb.w	r3, [r7, #35]	; 0x23
 8005516:	68fb      	ldr	r3, [r7, #12]
 8005518:	685b      	ldr	r3, [r3, #4]
 800551a:	61fb      	str	r3, [r7, #28]
 800551c:	887b      	ldrh	r3, [r7, #2]
 800551e:	837b      	strh	r3, [r7, #26]
 8005520:	f897 3023 	ldrb.w	r3, [r7, #35]	; 0x23
 8005524:	2b01      	cmp	r3, #1
 8005526:	d00f      	beq.n	8005548 <HAL_SPI_TransmitReceive+0x70>
 8005528:	69fb      	ldr	r3, [r7, #28]
 800552a:	f5b3 7f82 	cmp.w	r3, #260	; 0x104
 800552e:	d107      	bne.n	8005540 <HAL_SPI_TransmitReceive+0x68>
 8005530:	68fb      	ldr	r3, [r7, #12]
 8005532:	689b      	ldr	r3, [r3, #8]
 8005534:	2b00      	cmp	r3, #0
 8005536:	d103      	bne.n	8005540 <HAL_SPI_TransmitReceive+0x68>
 8005538:	f897 3023 	ldrb.w	r3, [r7, #35]	; 0x23
 800553c:	2b04      	cmp	r3, #4
 800553e:	d003      	beq.n	8005548 <HAL_SPI_TransmitReceive+0x70>
 8005540:	2302      	movs	r3, #2
 8005542:	f887 302b 	strb.w	r3, [r7, #43]	; 0x2b
 8005546:	e15b      	b.n	8005800 <HAL_SPI_TransmitReceive+0x328>
 8005548:	68bb      	ldr	r3, [r7, #8]
 800554a:	2b00      	cmp	r3, #0
 800554c:	d005      	beq.n	800555a <HAL_SPI_TransmitReceive+0x82>
 800554e:	687b      	ldr	r3, [r7, #4]
 8005550:	2b00      	cmp	r3, #0
 8005552:	d002      	beq.n	800555a <HAL_SPI_TransmitReceive+0x82>
 8005554:	887b      	ldrh	r3, [r7, #2]
 8005556:	2b00      	cmp	r3, #0
 8005558:	d103      	bne.n	8005562 <HAL_SPI_TransmitReceive+0x8a>
 800555a:	2301      	movs	r3, #1
 800555c:	f887 302b 	strb.w	r3, [r7, #43]	; 0x2b
 8005560:	e14e      	b.n	8005800 <HAL_SPI_TransmitReceive+0x328>
 8005562:	68fb      	ldr	r3, [r7, #12]
 8005564:	f893 3051 	ldrb.w	r3, [r3, #81]	; 0x51
 8005568:	b2db      	uxtb	r3, r3
 800556a:	2b04      	cmp	r3, #4
 800556c:	d003      	beq.n	8005576 <HAL_SPI_TransmitReceive+0x9e>
 800556e:	68fb      	ldr	r3, [r7, #12]
 8005570:	2205      	movs	r2, #5
 8005572:	f883 2051 	strb.w	r2, [r3, #81]	; 0x51
 8005576:	68fb      	ldr	r3, [r7, #12]
 8005578:	2200      	movs	r2, #0
 800557a:	655a      	str	r2, [r3, #84]	; 0x54
 800557c:	68fb      	ldr	r3, [r7, #12]
 800557e:	687a      	ldr	r2, [r7, #4]
 8005580:	639a      	str	r2, [r3, #56]	; 0x38
 8005582:	68fb      	ldr	r3, [r7, #12]
 8005584:	887a      	ldrh	r2, [r7, #2]
 8005586:	87da      	strh	r2, [r3, #62]	; 0x3e
 8005588:	68fb      	ldr	r3, [r7, #12]
 800558a:	887a      	ldrh	r2, [r7, #2]
 800558c:	879a      	strh	r2, [r3, #60]	; 0x3c
 800558e:	68fb      	ldr	r3, [r7, #12]
 8005590:	68ba      	ldr	r2, [r7, #8]
 8005592:	631a      	str	r2, [r3, #48]	; 0x30
 8005594:	68fb      	ldr	r3, [r7, #12]
 8005596:	887a      	ldrh	r2, [r7, #2]
 8005598:	86da      	strh	r2, [r3, #54]	; 0x36
 800559a:	68fb      	ldr	r3, [r7, #12]
 800559c:	887a      	ldrh	r2, [r7, #2]
 800559e:	869a      	strh	r2, [r3, #52]	; 0x34
 80055a0:	68fb      	ldr	r3, [r7, #12]
 80055a2:	2200      	movs	r2, #0
 80055a4:	641a      	str	r2, [r3, #64]	; 0x40
 80055a6:	68fb      	ldr	r3, [r7, #12]
 80055a8:	2200      	movs	r2, #0
 80055aa:	645a      	str	r2, [r3, #68]	; 0x44
 80055ac:	68fb      	ldr	r3, [r7, #12]
 80055ae:	681b      	ldr	r3, [r3, #0]
 80055b0:	681b      	ldr	r3, [r3, #0]
 80055b2:	f003 0340 	and.w	r3, r3, #64	; 0x40
 80055b6:	2b40      	cmp	r3, #64	; 0x40
 80055b8:	d007      	beq.n	80055ca <HAL_SPI_TransmitReceive+0xf2>
 80055ba:	68fb      	ldr	r3, [r7, #12]
 80055bc:	681b      	ldr	r3, [r3, #0]
 80055be:	681a      	ldr	r2, [r3, #0]
 80055c0:	68fb      	ldr	r3, [r7, #12]
 80055c2:	681b      	ldr	r3, [r3, #0]
 80055c4:	f042 0240 	orr.w	r2, r2, #64	; 0x40
 80055c8:	601a      	str	r2, [r3, #0]
 80055ca:	68fb      	ldr	r3, [r7, #12]
 80055cc:	68db      	ldr	r3, [r3, #12]
 80055ce:	f5b3 6f00 	cmp.w	r3, #2048	; 0x800
 80055d2:	d178      	bne.n	80056c6 <HAL_SPI_TransmitReceive+0x1ee>
 80055d4:	68fb      	ldr	r3, [r7, #12]
 80055d6:	685b      	ldr	r3, [r3, #4]
 80055d8:	2b00      	cmp	r3, #0
 80055da:	d002      	beq.n	80055e2 <HAL_SPI_TransmitReceive+0x10a>
 80055dc:	8b7b      	ldrh	r3, [r7, #26]
 80055de:	2b01      	cmp	r3, #1
 80055e0:	d166      	bne.n	80056b0 <HAL_SPI_TransmitReceive+0x1d8>
 80055e2:	68fb      	ldr	r3, [r7, #12]
 80055e4:	6b1b      	ldr	r3, [r3, #48]	; 0x30
 80055e6:	881a      	ldrh	r2, [r3, #0]
 80055e8:	68fb      	ldr	r3, [r7, #12]
 80055ea:	681b      	ldr	r3, [r3, #0]
 80055ec:	60da      	str	r2, [r3, #12]
 80055ee:	68fb      	ldr	r3, [r7, #12]
 80055f0:	6b1b      	ldr	r3, [r3, #48]	; 0x30
 80055f2:	1c9a      	adds	r2, r3, #2
 80055f4:	68fb      	ldr	r3, [r7, #12]
 80055f6:	631a      	str	r2, [r3, #48]	; 0x30
 80055f8:	68fb      	ldr	r3, [r7, #12]
 80055fa:	8edb      	ldrh	r3, [r3, #54]	; 0x36
 80055fc:	b29b      	uxth	r3, r3
 80055fe:	3b01      	subs	r3, #1
 8005600:	b29a      	uxth	r2, r3
 8005602:	68fb      	ldr	r3, [r7, #12]
 8005604:	86da      	strh	r2, [r3, #54]	; 0x36
 8005606:	e053      	b.n	80056b0 <HAL_SPI_TransmitReceive+0x1d8>
 8005608:	68fb      	ldr	r3, [r7, #12]
 800560a:	681b      	ldr	r3, [r3, #0]
 800560c:	689b      	ldr	r3, [r3, #8]
 800560e:	f003 0302 	and.w	r3, r3, #2
 8005612:	2b02      	cmp	r3, #2
 8005614:	d11b      	bne.n	800564e <HAL_SPI_TransmitReceive+0x176>
 8005616:	68fb      	ldr	r3, [r7, #12]
 8005618:	8edb      	ldrh	r3, [r3, #54]	; 0x36
 800561a:	b29b      	uxth	r3, r3
 800561c:	2b00      	cmp	r3, #0
 800561e:	d016      	beq.n	800564e <HAL_SPI_TransmitReceive+0x176>
 8005620:	6afb      	ldr	r3, [r7, #44]	; 0x2c
 8005622:	2b01      	cmp	r3, #1
 8005624:	d113      	bne.n	800564e <HAL_SPI_TransmitReceive+0x176>
 8005626:	68fb      	ldr	r3, [r7, #12]
 8005628:	6b1b      	ldr	r3, [r3, #48]	; 0x30
 800562a:	881a      	ldrh	r2, [r3, #0]
 800562c:	68fb      	ldr	r3, [r7, #12]
 800562e:	681b      	ldr	r3, [r3, #0]
 8005630:	60da      	str	r2, [r3, #12]
 8005632:	68fb      	ldr	r3, [r7, #12]
 8005634:	6b1b      	ldr	r3, [r3, #48]	; 0x30
 8005636:	1c9a      	adds	r2, r3, #2
 8005638:	68fb      	ldr	r3, [r7, #12]
 800563a:	631a      	str	r2, [r3, #48]	; 0x30
 800563c:	68fb      	ldr	r3, [r7, #12]
 800563e:	8edb      	ldrh	r3, [r3, #54]	; 0x36
 8005640:	b29b      	uxth	r3, r3
 8005642:	3b01      	subs	r3, #1
 8005644:	b29a      	uxth	r2, r3
 8005646:	68fb      	ldr	r3, [r7, #12]
 8005648:	86da      	strh	r2, [r3, #54]	; 0x36
 800564a:	2300      	movs	r3, #0
 800564c:	62fb      	str	r3, [r7, #44]	; 0x2c
 800564e:	68fb      	ldr	r3, [r7, #12]
 8005650:	681b      	ldr	r3, [r3, #0]
 8005652:	689b      	ldr	r3, [r3, #8]
 8005654:	f003 0301 	and.w	r3, r3, #1
 8005658:	2b01      	cmp	r3, #1
 800565a:	d119      	bne.n	8005690 <HAL_SPI_TransmitReceive+0x1b8>
 800565c:	68fb      	ldr	r3, [r7, #12]
 800565e:	8fdb      	ldrh	r3, [r3, #62]	; 0x3e
 8005660:	b29b      	uxth	r3, r3
 8005662:	2b00      	cmp	r3, #0
 8005664:	d014      	beq.n	8005690 <HAL_SPI_TransmitReceive+0x1b8>
 8005666:	68fb      	ldr	r3, [r7, #12]
 8005668:	681b      	ldr	r3, [r3, #0]
 800566a:	68da      	ldr	r2, [r3, #12]
 800566c:	68fb      	ldr	r3, [r7, #12]
 800566e:	6b9b      	ldr	r3, [r3, #56]	; 0x38
 8005670:	b292      	uxth	r2, r2
 8005672:	801a      	strh	r2, [r3, #0]
 8005674:	68fb      	ldr	r3, [r7, #12]
 8005676:	6b9b      	ldr	r3, [r3, #56]	; 0x38
 8005678:	1c9a      	adds	r2, r3, #2
 800567a:	68fb      	ldr	r3, [r7, #12]
 800567c:	639a      	str	r2, [r3, #56]	; 0x38
 800567e:	68fb      	ldr	r3, [r7, #12]
 8005680:	8fdb      	ldrh	r3, [r3, #62]	; 0x3e
 8005682:	b29b      	uxth	r3, r3
 8005684:	3b01      	subs	r3, #1
 8005686:	b29a      	uxth	r2, r3
 8005688:	68fb      	ldr	r3, [r7, #12]
 800568a:	87da      	strh	r2, [r3, #62]	; 0x3e
 800568c:	2301      	movs	r3, #1
 800568e:	62fb      	str	r3, [r7, #44]	; 0x2c
 8005690:	f7fd fb48 	bl	8002d24 <HAL_GetTick>
 8005694:	4602      	mov	r2, r0
 8005696:	6a7b      	ldr	r3, [r7, #36]	; 0x24
 8005698:	1ad3      	subs	r3, r2, r3
 800569a:	6bba      	ldr	r2, [r7, #56]	; 0x38
 800569c:	429a      	cmp	r2, r3
 800569e:	d807      	bhi.n	80056b0 <HAL_SPI_TransmitReceive+0x1d8>
 80056a0:	6bbb      	ldr	r3, [r7, #56]	; 0x38
 80056a2:	f1b3 3fff 	cmp.w	r3, #4294967295
 80056a6:	d003      	beq.n	80056b0 <HAL_SPI_TransmitReceive+0x1d8>
 80056a8:	2303      	movs	r3, #3
 80056aa:	f887 302b 	strb.w	r3, [r7, #43]	; 0x2b
 80056ae:	e0a7      	b.n	8005800 <HAL_SPI_TransmitReceive+0x328>
 80056b0:	68fb      	ldr	r3, [r7, #12]
 80056b2:	8edb      	ldrh	r3, [r3, #54]	; 0x36
 80056b4:	b29b      	uxth	r3, r3
 80056b6:	2b00      	cmp	r3, #0
 80056b8:	d1a6      	bne.n	8005608 <HAL_SPI_TransmitReceive+0x130>
 80056ba:	68fb      	ldr	r3, [r7, #12]
 80056bc:	8fdb      	ldrh	r3, [r3, #62]	; 0x3e
 80056be:	b29b      	uxth	r3, r3
 80056c0:	2b00      	cmp	r3, #0
 80056c2:	d1a1      	bne.n	8005608 <HAL_SPI_TransmitReceive+0x130>
 80056c4:	e07c      	b.n	80057c0 <HAL_SPI_TransmitReceive+0x2e8>
 80056c6:	68fb      	ldr	r3, [r7, #12]
 80056c8:	685b      	ldr	r3, [r3, #4]
 80056ca:	2b00      	cmp	r3, #0
 80056cc:	d002      	beq.n	80056d4 <HAL_SPI_TransmitReceive+0x1fc>
 80056ce:	8b7b      	ldrh	r3, [r7, #26]
 80056d0:	2b01      	cmp	r3, #1
 80056d2:	d16b      	bne.n	80057ac <HAL_SPI_TransmitReceive+0x2d4>
 80056d4:	68fb      	ldr	r3, [r7, #12]
 80056d6:	6b1a      	ldr	r2, [r3, #48]	; 0x30
 80056d8:	68fb      	ldr	r3, [r7, #12]
 80056da:	681b      	ldr	r3, [r3, #0]
 80056dc:	330c      	adds	r3, #12
 80056de:	7812      	ldrb	r2, [r2, #0]
 80056e0:	701a      	strb	r2, [r3, #0]
 80056e2:	68fb      	ldr	r3, [r7, #12]
 80056e4:	6b1b      	ldr	r3, [r3, #48]	; 0x30
 80056e6:	1c5a      	adds	r2, r3, #1
 80056e8:	68fb      	ldr	r3, [r7, #12]
 80056ea:	631a      	str	r2, [r3, #48]	; 0x30
 80056ec:	68fb      	ldr	r3, [r7, #12]
 80056ee:	8edb      	ldrh	r3, [r3, #54]	; 0x36
 80056f0:	b29b      	uxth	r3, r3
 80056f2:	3b01      	subs	r3, #1
 80056f4:	b29a      	uxth	r2, r3
 80056f6:	68fb      	ldr	r3, [r7, #12]
 80056f8:	86da      	strh	r2, [r3, #54]	; 0x36
 80056fa:	e057      	b.n	80057ac <HAL_SPI_TransmitReceive+0x2d4>
 80056fc:	68fb      	ldr	r3, [r7, #12]
 80056fe:	681b      	ldr	r3, [r3, #0]
 8005700:	689b      	ldr	r3, [r3, #8]
 8005702:	f003 0302 	and.w	r3, r3, #2
 8005706:	2b02      	cmp	r3, #2
 8005708:	d11c      	bne.n	8005744 <HAL_SPI_TransmitReceive+0x26c>
 800570a:	68fb      	ldr	r3, [r7, #12]
 800570c:	8edb      	ldrh	r3, [r3, #54]	; 0x36
 800570e:	b29b      	uxth	r3, r3
 8005710:	2b00      	cmp	r3, #0
 8005712:	d017      	beq.n	8005744 <HAL_SPI_TransmitReceive+0x26c>
 8005714:	6afb      	ldr	r3, [r7, #44]	; 0x2c
 8005716:	2b01      	cmp	r3, #1
 8005718:	d114      	bne.n	8005744 <HAL_SPI_TransmitReceive+0x26c>
 800571a:	68fb      	ldr	r3, [r7, #12]
 800571c:	6b1a      	ldr	r2, [r3, #48]	; 0x30
 800571e:	68fb      	ldr	r3, [r7, #12]
 8005720:	681b      	ldr	r3, [r3, #0]
 8005722:	330c      	adds	r3, #12
 8005724:	7812      	ldrb	r2, [r2, #0]
 8005726:	701a      	strb	r2, [r3, #0]
 8005728:	68fb      	ldr	r3, [r7, #12]
 800572a:	6b1b      	ldr	r3, [r3, #48]	; 0x30
 800572c:	1c5a      	adds	r2, r3, #1
 800572e:	68fb      	ldr	r3, [r7, #12]
 8005730:	631a      	str	r2, [r3, #48]	; 0x30
 8005732:	68fb      	ldr	r3, [r7, #12]
 8005734:	8edb      	ldrh	r3, [r3, #54]	; 0x36
 8005736:	b29b      	uxth	r3, r3
 8005738:	3b01      	subs	r3, #1
 800573a:	b29a      	uxth	r2, r3
 800573c:	68fb      	ldr	r3, [r7, #12]
 800573e:	86da      	strh	r2, [r3, #54]	; 0x36
 8005740:	2300      	movs	r3, #0
 8005742:	62fb      	str	r3, [r7, #44]	; 0x2c
 8005744:	68fb      	ldr	r3, [r7, #12]
 8005746:	681b      	ldr	r3, [r3, #0]
 8005748:	689b      	ldr	r3, [r3, #8]
 800574a:	f003 0301 	and.w	r3, r3, #1
 800574e:	2b01      	cmp	r3, #1
 8005750:	d119      	bne.n	8005786 <HAL_SPI_TransmitReceive+0x2ae>
 8005752:	68fb      	ldr	r3, [r7, #12]
 8005754:	8fdb      	ldrh	r3, [r3, #62]	; 0x3e
 8005756:	b29b      	uxth	r3, r3
 8005758:	2b00      	cmp	r3, #0
 800575a:	d014      	beq.n	8005786 <HAL_SPI_TransmitReceive+0x2ae>
 800575c:	68fb      	ldr	r3, [r7, #12]
 800575e:	681b      	ldr	r3, [r3, #0]
 8005760:	68da      	ldr	r2, [r3, #12]
 8005762:	68fb      	ldr	r3, [r7, #12]
 8005764:	6b9b      	ldr	r3, [r3, #56]	; 0x38
 8005766:	b2d2      	uxtb	r2, r2
 8005768:	701a      	strb	r2, [r3, #0]
 800576a:	68fb      	ldr	r3, [r7, #12]
 800576c:	6b9b      	ldr	r3, [r3, #56]	; 0x38
 800576e:	1c5a      	adds	r2, r3, #1
 8005770:	68fb      	ldr	r3, [r7, #12]
 8005772:	639a      	str	r2, [r3, #56]	; 0x38
 8005774:	68fb      	ldr	r3, [r7, #12]
 8005776:	8fdb      	ldrh	r3, [r3, #62]	; 0x3e
 8005778:	b29b      	uxth	r3, r3
 800577a:	3b01      	subs	r3, #1
 800577c:	b29a      	uxth	r2, r3
 800577e:	68fb      	ldr	r3, [r7, #12]
 8005780:	87da      	strh	r2, [r3, #62]	; 0x3e
 8005782:	2301      	movs	r3, #1
 8005784:	62fb      	str	r3, [r7, #44]	; 0x2c
 8005786:	f7fd facd 	bl	8002d24 <HAL_GetTick>
 800578a:	4602      	mov	r2, r0
 800578c:	6a7b      	ldr	r3, [r7, #36]	; 0x24
 800578e:	1ad3      	subs	r3, r2, r3
 8005790:	6bba      	ldr	r2, [r7, #56]	; 0x38
 8005792:	429a      	cmp	r2, r3
 8005794:	d803      	bhi.n	800579e <HAL_SPI_TransmitReceive+0x2c6>
 8005796:	6bbb      	ldr	r3, [r7, #56]	; 0x38
 8005798:	f1b3 3fff 	cmp.w	r3, #4294967295
 800579c:	d102      	bne.n	80057a4 <HAL_SPI_TransmitReceive+0x2cc>
 800579e:	6bbb      	ldr	r3, [r7, #56]	; 0x38
 80057a0:	2b00      	cmp	r3, #0
 80057a2:	d103      	bne.n	80057ac <HAL_SPI_TransmitReceive+0x2d4>
 80057a4:	2303      	movs	r3, #3
 80057a6:	f887 302b 	strb.w	r3, [r7, #43]	; 0x2b
 80057aa:	e029      	b.n	8005800 <HAL_SPI_TransmitReceive+0x328>
 80057ac:	68fb      	ldr	r3, [r7, #12]
 80057ae:	8edb      	ldrh	r3, [r3, #54]	; 0x36
 80057b0:	b29b      	uxth	r3, r3
 80057b2:	2b00      	cmp	r3, #0
 80057b4:	d1a2      	bne.n	80056fc <HAL_SPI_TransmitReceive+0x224>
 80057b6:	68fb      	ldr	r3, [r7, #12]
 80057b8:	8fdb      	ldrh	r3, [r3, #62]	; 0x3e
 80057ba:	b29b      	uxth	r3, r3
 80057bc:	2b00      	cmp	r3, #0
 80057be:	d19d      	bne.n	80056fc <HAL_SPI_TransmitReceive+0x224>
 80057c0:	6a7a      	ldr	r2, [r7, #36]	; 0x24
 80057c2:	6bb9      	ldr	r1, [r7, #56]	; 0x38
 80057c4:	68f8      	ldr	r0, [r7, #12]
 80057c6:	f000 f8e5 	bl	8005994 <SPI_EndRxTxTransaction>
 80057ca:	4603      	mov	r3, r0
 80057cc:	2b00      	cmp	r3, #0
 80057ce:	d006      	beq.n	80057de <HAL_SPI_TransmitReceive+0x306>
 80057d0:	2301      	movs	r3, #1
 80057d2:	f887 302b 	strb.w	r3, [r7, #43]	; 0x2b
 80057d6:	68fb      	ldr	r3, [r7, #12]
 80057d8:	2220      	movs	r2, #32
 80057da:	655a      	str	r2, [r3, #84]	; 0x54
 80057dc:	e010      	b.n	8005800 <HAL_SPI_TransmitReceive+0x328>
 80057de:	68fb      	ldr	r3, [r7, #12]
 80057e0:	689b      	ldr	r3, [r3, #8]
 80057e2:	2b00      	cmp	r3, #0
 80057e4:	d10b      	bne.n	80057fe <HAL_SPI_TransmitReceive+0x326>
 80057e6:	2300      	movs	r3, #0
 80057e8:	617b      	str	r3, [r7, #20]
 80057ea:	68fb      	ldr	r3, [r7, #12]
 80057ec:	681b      	ldr	r3, [r3, #0]
 80057ee:	68db      	ldr	r3, [r3, #12]
 80057f0:	617b      	str	r3, [r7, #20]
 80057f2:	68fb      	ldr	r3, [r7, #12]
 80057f4:	681b      	ldr	r3, [r3, #0]
 80057f6:	689b      	ldr	r3, [r3, #8]
 80057f8:	617b      	str	r3, [r7, #20]
 80057fa:	697b      	ldr	r3, [r7, #20]
 80057fc:	e000      	b.n	8005800 <HAL_SPI_TransmitReceive+0x328>
 80057fe:	bf00      	nop
 8005800:	68fb      	ldr	r3, [r7, #12]
 8005802:	2201      	movs	r2, #1
 8005804:	f883 2051 	strb.w	r2, [r3, #81]	; 0x51
 8005808:	68fb      	ldr	r3, [r7, #12]
 800580a:	2200      	movs	r2, #0
 800580c:	f883 2050 	strb.w	r2, [r3, #80]	; 0x50
 8005810:	f897 302b 	ldrb.w	r3, [r7, #43]	; 0x2b
 8005814:	4618      	mov	r0, r3
 8005816:	3730      	adds	r7, #48	; 0x30
 8005818:	46bd      	mov	sp, r7
 800581a:	bd80      	pop	{r7, pc}

0800581c <SPI_WaitFlagStateUntilTimeout>:
 800581c:	b580      	push	{r7, lr}
 800581e:	b084      	sub	sp, #16
 8005820:	af00      	add	r7, sp, #0
 8005822:	60f8      	str	r0, [r7, #12]
 8005824:	60b9      	str	r1, [r7, #8]
 8005826:	603b      	str	r3, [r7, #0]
 8005828:	4613      	mov	r3, r2
 800582a:	71fb      	strb	r3, [r7, #7]
 800582c:	e04c      	b.n	80058c8 <SPI_WaitFlagStateUntilTimeout+0xac>
 800582e:	683b      	ldr	r3, [r7, #0]
 8005830:	f1b3 3fff 	cmp.w	r3, #4294967295
 8005834:	d048      	beq.n	80058c8 <SPI_WaitFlagStateUntilTimeout+0xac>
 8005836:	f7fd fa75 	bl	8002d24 <HAL_GetTick>
 800583a:	4602      	mov	r2, r0
 800583c:	69bb      	ldr	r3, [r7, #24]
 800583e:	1ad3      	subs	r3, r2, r3
 8005840:	683a      	ldr	r2, [r7, #0]
 8005842:	429a      	cmp	r2, r3
 8005844:	d902      	bls.n	800584c <SPI_WaitFlagStateUntilTimeout+0x30>
 8005846:	683b      	ldr	r3, [r7, #0]
 8005848:	2b00      	cmp	r3, #0
 800584a:	d13d      	bne.n	80058c8 <SPI_WaitFlagStateUntilTimeout+0xac>
 800584c:	68fb      	ldr	r3, [r7, #12]
 800584e:	681b      	ldr	r3, [r3, #0]
 8005850:	685a      	ldr	r2, [r3, #4]
 8005852:	68fb      	ldr	r3, [r7, #12]
 8005854:	681b      	ldr	r3, [r3, #0]
 8005856:	f022 02e0 	bic.w	r2, r2, #224	; 0xe0
 800585a:	605a      	str	r2, [r3, #4]
 800585c:	68fb      	ldr	r3, [r7, #12]
 800585e:	685b      	ldr	r3, [r3, #4]
 8005860:	f5b3 7f82 	cmp.w	r3, #260	; 0x104
 8005864:	d111      	bne.n	800588a <SPI_WaitFlagStateUntilTimeout+0x6e>
 8005866:	68fb      	ldr	r3, [r7, #12]
 8005868:	689b      	ldr	r3, [r3, #8]
 800586a:	f5b3 4f00 	cmp.w	r3, #32768	; 0x8000
 800586e:	d004      	beq.n	800587a <SPI_WaitFlagStateUntilTimeout+0x5e>
 8005870:	68fb      	ldr	r3, [r7, #12]
 8005872:	689b      	ldr	r3, [r3, #8]
 8005874:	f5b3 6f80 	cmp.w	r3, #1024	; 0x400
 8005878:	d107      	bne.n	800588a <SPI_WaitFlagStateUntilTimeout+0x6e>
 800587a:	68fb      	ldr	r3, [r7, #12]
 800587c:	681b      	ldr	r3, [r3, #0]
 800587e:	681a      	ldr	r2, [r3, #0]
 8005880:	68fb      	ldr	r3, [r7, #12]
 8005882:	681b      	ldr	r3, [r3, #0]
 8005884:	f022 0240 	bic.w	r2, r2, #64	; 0x40
 8005888:	601a      	str	r2, [r3, #0]
 800588a:	68fb      	ldr	r3, [r7, #12]
 800588c:	6a9b      	ldr	r3, [r3, #40]	; 0x28
 800588e:	f5b3 5f00 	cmp.w	r3, #8192	; 0x2000
 8005892:	d10f      	bne.n	80058b4 <SPI_WaitFlagStateUntilTimeout+0x98>
 8005894:	68fb      	ldr	r3, [r7, #12]
 8005896:	681b      	ldr	r3, [r3, #0]
 8005898:	681a      	ldr	r2, [r3, #0]
 800589a:	68fb      	ldr	r3, [r7, #12]
 800589c:	681b      	ldr	r3, [r3, #0]
 800589e:	f422 5200 	bic.w	r2, r2, #8192	; 0x2000
 80058a2:	601a      	str	r2, [r3, #0]
 80058a4:	68fb      	ldr	r3, [r7, #12]
 80058a6:	681b      	ldr	r3, [r3, #0]
 80058a8:	681a      	ldr	r2, [r3, #0]
 80058aa:	68fb      	ldr	r3, [r7, #12]
 80058ac:	681b      	ldr	r3, [r3, #0]
 80058ae:	f442 5200 	orr.w	r2, r2, #8192	; 0x2000
 80058b2:	601a      	str	r2, [r3, #0]
 80058b4:	68fb      	ldr	r3, [r7, #12]
 80058b6:	2201      	movs	r2, #1
 80058b8:	f883 2051 	strb.w	r2, [r3, #81]	; 0x51
 80058bc:	68fb      	ldr	r3, [r7, #12]
 80058be:	2200      	movs	r2, #0
 80058c0:	f883 2050 	strb.w	r2, [r3, #80]	; 0x50
 80058c4:	2303      	movs	r3, #3
 80058c6:	e00f      	b.n	80058e8 <SPI_WaitFlagStateUntilTimeout+0xcc>
 80058c8:	68fb      	ldr	r3, [r7, #12]
 80058ca:	681b      	ldr	r3, [r3, #0]
 80058cc:	689a      	ldr	r2, [r3, #8]
 80058ce:	68bb      	ldr	r3, [r7, #8]
 80058d0:	4013      	ands	r3, r2
 80058d2:	68ba      	ldr	r2, [r7, #8]
 80058d4:	429a      	cmp	r2, r3
 80058d6:	bf0c      	ite	eq
 80058d8:	2301      	moveq	r3, #1
 80058da:	2300      	movne	r3, #0
 80058dc:	b2db      	uxtb	r3, r3
 80058de:	461a      	mov	r2, r3
 80058e0:	79fb      	ldrb	r3, [r7, #7]
 80058e2:	429a      	cmp	r2, r3
 80058e4:	d1a3      	bne.n	800582e <SPI_WaitFlagStateUntilTimeout+0x12>
 80058e6:	2300      	movs	r3, #0
 80058e8:	4618      	mov	r0, r3
 80058ea:	3710      	adds	r7, #16
 80058ec:	46bd      	mov	sp, r7
 80058ee:	bd80      	pop	{r7, pc}

080058f0 <SPI_EndRxTransaction>:
 80058f0:	b580      	push	{r7, lr}
 80058f2:	b086      	sub	sp, #24
 80058f4:	af02      	add	r7, sp, #8
 80058f6:	60f8      	str	r0, [r7, #12]
 80058f8:	60b9      	str	r1, [r7, #8]
 80058fa:	607a      	str	r2, [r7, #4]
 80058fc:	68fb      	ldr	r3, [r7, #12]
 80058fe:	685b      	ldr	r3, [r3, #4]
 8005900:	f5b3 7f82 	cmp.w	r3, #260	; 0x104
 8005904:	d111      	bne.n	800592a <SPI_EndRxTransaction+0x3a>
 8005906:	68fb      	ldr	r3, [r7, #12]
 8005908:	689b      	ldr	r3, [r3, #8]
 800590a:	f5b3 4f00 	cmp.w	r3, #32768	; 0x8000
 800590e:	d004      	beq.n	800591a <SPI_EndRxTransaction+0x2a>
 8005910:	68fb      	ldr	r3, [r7, #12]
 8005912:	689b      	ldr	r3, [r3, #8]
 8005914:	f5b3 6f80 	cmp.w	r3, #1024	; 0x400
 8005918:	d107      	bne.n	800592a <SPI_EndRxTransaction+0x3a>
 800591a:	68fb      	ldr	r3, [r7, #12]
 800591c:	681b      	ldr	r3, [r3, #0]
 800591e:	681a      	ldr	r2, [r3, #0]
 8005920:	68fb      	ldr	r3, [r7, #12]
 8005922:	681b      	ldr	r3, [r3, #0]
 8005924:	f022 0240 	bic.w	r2, r2, #64	; 0x40
 8005928:	601a      	str	r2, [r3, #0]
 800592a:	68fb      	ldr	r3, [r7, #12]
 800592c:	685b      	ldr	r3, [r3, #4]
 800592e:	f5b3 7f82 	cmp.w	r3, #260	; 0x104
 8005932:	d117      	bne.n	8005964 <SPI_EndRxTransaction+0x74>
 8005934:	68fb      	ldr	r3, [r7, #12]
 8005936:	689b      	ldr	r3, [r3, #8]
 8005938:	f5b3 6f80 	cmp.w	r3, #1024	; 0x400
 800593c:	d112      	bne.n	8005964 <SPI_EndRxTransaction+0x74>
 800593e:	687b      	ldr	r3, [r7, #4]
 8005940:	9300      	str	r3, [sp, #0]
 8005942:	68bb      	ldr	r3, [r7, #8]
 8005944:	2200      	movs	r2, #0
 8005946:	2101      	movs	r1, #1
 8005948:	68f8      	ldr	r0, [r7, #12]
 800594a:	f7ff ff67 	bl	800581c <SPI_WaitFlagStateUntilTimeout>
 800594e:	4603      	mov	r3, r0
 8005950:	2b00      	cmp	r3, #0
 8005952:	d01a      	beq.n	800598a <SPI_EndRxTransaction+0x9a>
 8005954:	68fb      	ldr	r3, [r7, #12]
 8005956:	6d5b      	ldr	r3, [r3, #84]	; 0x54
 8005958:	f043 0220 	orr.w	r2, r3, #32
 800595c:	68fb      	ldr	r3, [r7, #12]
 800595e:	655a      	str	r2, [r3, #84]	; 0x54
 8005960:	2303      	movs	r3, #3
 8005962:	e013      	b.n	800598c <SPI_EndRxTransaction+0x9c>
 8005964:	687b      	ldr	r3, [r7, #4]
 8005966:	9300      	str	r3, [sp, #0]
 8005968:	68bb      	ldr	r3, [r7, #8]
 800596a:	2200      	movs	r2, #0
 800596c:	2180      	movs	r1, #128	; 0x80
 800596e:	68f8      	ldr	r0, [r7, #12]
 8005970:	f7ff ff54 	bl	800581c <SPI_WaitFlagStateUntilTimeout>
 8005974:	4603      	mov	r3, r0
 8005976:	2b00      	cmp	r3, #0
 8005978:	d007      	beq.n	800598a <SPI_EndRxTransaction+0x9a>
 800597a:	68fb      	ldr	r3, [r7, #12]
 800597c:	6d5b      	ldr	r3, [r3, #84]	; 0x54
 800597e:	f043 0220 	orr.w	r2, r3, #32
 8005982:	68fb      	ldr	r3, [r7, #12]
 8005984:	655a      	str	r2, [r3, #84]	; 0x54
 8005986:	2303      	movs	r3, #3
 8005988:	e000      	b.n	800598c <SPI_EndRxTransaction+0x9c>
 800598a:	2300      	movs	r3, #0
 800598c:	4618      	mov	r0, r3
 800598e:	3710      	adds	r7, #16
 8005990:	46bd      	mov	sp, r7
 8005992:	bd80      	pop	{r7, pc}

08005994 <SPI_EndRxTxTransaction>:
 8005994:	b580      	push	{r7, lr}
 8005996:	b086      	sub	sp, #24
 8005998:	af02      	add	r7, sp, #8
 800599a:	60f8      	str	r0, [r7, #12]
 800599c:	60b9      	str	r1, [r7, #8]
 800599e:	607a      	str	r2, [r7, #4]
 80059a0:	687b      	ldr	r3, [r7, #4]
 80059a2:	9300      	str	r3, [sp, #0]
 80059a4:	68bb      	ldr	r3, [r7, #8]
 80059a6:	2200      	movs	r2, #0
 80059a8:	2180      	movs	r1, #128	; 0x80
 80059aa:	68f8      	ldr	r0, [r7, #12]
 80059ac:	f7ff ff36 	bl	800581c <SPI_WaitFlagStateUntilTimeout>
 80059b0:	4603      	mov	r3, r0
 80059b2:	2b00      	cmp	r3, #0
 80059b4:	d007      	beq.n	80059c6 <SPI_EndRxTxTransaction+0x32>
 80059b6:	68fb      	ldr	r3, [r7, #12]
 80059b8:	6d5b      	ldr	r3, [r3, #84]	; 0x54
 80059ba:	f043 0220 	orr.w	r2, r3, #32
 80059be:	68fb      	ldr	r3, [r7, #12]
 80059c0:	655a      	str	r2, [r3, #84]	; 0x54
 80059c2:	2303      	movs	r3, #3
 80059c4:	e000      	b.n	80059c8 <SPI_EndRxTxTransaction+0x34>
 80059c6:	2300      	movs	r3, #0
 80059c8:	4618      	mov	r0, r3
 80059ca:	3710      	adds	r7, #16
 80059cc:	46bd      	mov	sp, r7
 80059ce:	bd80      	pop	{r7, pc}

080059d0 <HAL_TIM_Base_Init>:
 80059d0:	b580      	push	{r7, lr}
 80059d2:	b082      	sub	sp, #8
 80059d4:	af00      	add	r7, sp, #0
 80059d6:	6078      	str	r0, [r7, #4]
 80059d8:	687b      	ldr	r3, [r7, #4]
 80059da:	2b00      	cmp	r3, #0
 80059dc:	d101      	bne.n	80059e2 <HAL_TIM_Base_Init+0x12>
 80059de:	2301      	movs	r3, #1
 80059e0:	e01d      	b.n	8005a1e <HAL_TIM_Base_Init+0x4e>
 80059e2:	687b      	ldr	r3, [r7, #4]
 80059e4:	f893 303d 	ldrb.w	r3, [r3, #61]	; 0x3d
 80059e8:	b2db      	uxtb	r3, r3
 80059ea:	2b00      	cmp	r3, #0
 80059ec:	d106      	bne.n	80059fc <HAL_TIM_Base_Init+0x2c>
 80059ee:	687b      	ldr	r3, [r7, #4]
 80059f0:	2200      	movs	r2, #0
 80059f2:	f883 203c 	strb.w	r2, [r3, #60]	; 0x3c
 80059f6:	6878      	ldr	r0, [r7, #4]
 80059f8:	f7fd f85a 	bl	8002ab0 <HAL_TIM_Base_MspInit>
 80059fc:	687b      	ldr	r3, [r7, #4]
 80059fe:	2202      	movs	r2, #2
 8005a00:	f883 203d 	strb.w	r2, [r3, #61]	; 0x3d
 8005a04:	687b      	ldr	r3, [r7, #4]
 8005a06:	681a      	ldr	r2, [r3, #0]
 8005a08:	687b      	ldr	r3, [r7, #4]
 8005a0a:	3304      	adds	r3, #4
 8005a0c:	4619      	mov	r1, r3
 8005a0e:	4610      	mov	r0, r2
 8005a10:	f000 fa32 	bl	8005e78 <TIM_Base_SetConfig>
 8005a14:	687b      	ldr	r3, [r7, #4]
 8005a16:	2201      	movs	r2, #1
 8005a18:	f883 203d 	strb.w	r2, [r3, #61]	; 0x3d
 8005a1c:	2300      	movs	r3, #0
 8005a1e:	4618      	mov	r0, r3
 8005a20:	3708      	adds	r7, #8
 8005a22:	46bd      	mov	sp, r7
 8005a24:	bd80      	pop	{r7, pc}

08005a26 <HAL_TIM_Base_Start>:
 8005a26:	b480      	push	{r7}
 8005a28:	b085      	sub	sp, #20
 8005a2a:	af00      	add	r7, sp, #0
 8005a2c:	6078      	str	r0, [r7, #4]
 8005a2e:	687b      	ldr	r3, [r7, #4]
 8005a30:	2202      	movs	r2, #2
 8005a32:	f883 203d 	strb.w	r2, [r3, #61]	; 0x3d
 8005a36:	687b      	ldr	r3, [r7, #4]
 8005a38:	681b      	ldr	r3, [r3, #0]
 8005a3a:	689b      	ldr	r3, [r3, #8]
 8005a3c:	f003 0307 	and.w	r3, r3, #7
 8005a40:	60fb      	str	r3, [r7, #12]
 8005a42:	68fb      	ldr	r3, [r7, #12]
 8005a44:	2b06      	cmp	r3, #6
 8005a46:	d007      	beq.n	8005a58 <HAL_TIM_Base_Start+0x32>
 8005a48:	687b      	ldr	r3, [r7, #4]
 8005a4a:	681b      	ldr	r3, [r3, #0]
 8005a4c:	681a      	ldr	r2, [r3, #0]
 8005a4e:	687b      	ldr	r3, [r7, #4]
 8005a50:	681b      	ldr	r3, [r3, #0]
 8005a52:	f042 0201 	orr.w	r2, r2, #1
 8005a56:	601a      	str	r2, [r3, #0]
 8005a58:	687b      	ldr	r3, [r7, #4]
 8005a5a:	2201      	movs	r2, #1
 8005a5c:	f883 203d 	strb.w	r2, [r3, #61]	; 0x3d
 8005a60:	2300      	movs	r3, #0
 8005a62:	4618      	mov	r0, r3
 8005a64:	3714      	adds	r7, #20
 8005a66:	46bd      	mov	sp, r7
 8005a68:	bc80      	pop	{r7}
 8005a6a:	4770      	bx	lr

08005a6c <HAL_TIM_Base_Start_IT>:
 8005a6c:	b480      	push	{r7}
 8005a6e:	b085      	sub	sp, #20
 8005a70:	af00      	add	r7, sp, #0
 8005a72:	6078      	str	r0, [r7, #4]
 8005a74:	687b      	ldr	r3, [r7, #4]
 8005a76:	681b      	ldr	r3, [r3, #0]
 8005a78:	68da      	ldr	r2, [r3, #12]
 8005a7a:	687b      	ldr	r3, [r7, #4]
 8005a7c:	681b      	ldr	r3, [r3, #0]
 8005a7e:	f042 0201 	orr.w	r2, r2, #1
 8005a82:	60da      	str	r2, [r3, #12]
 8005a84:	687b      	ldr	r3, [r7, #4]
 8005a86:	681b      	ldr	r3, [r3, #0]
 8005a88:	689b      	ldr	r3, [r3, #8]
 8005a8a:	f003 0307 	and.w	r3, r3, #7
 8005a8e:	60fb      	str	r3, [r7, #12]
 8005a90:	68fb      	ldr	r3, [r7, #12]
 8005a92:	2b06      	cmp	r3, #6
 8005a94:	d007      	beq.n	8005aa6 <HAL_TIM_Base_Start_IT+0x3a>
 8005a96:	687b      	ldr	r3, [r7, #4]
 8005a98:	681b      	ldr	r3, [r3, #0]
 8005a9a:	681a      	ldr	r2, [r3, #0]
 8005a9c:	687b      	ldr	r3, [r7, #4]
 8005a9e:	681b      	ldr	r3, [r3, #0]
 8005aa0:	f042 0201 	orr.w	r2, r2, #1
 8005aa4:	601a      	str	r2, [r3, #0]
 8005aa6:	2300      	movs	r3, #0
 8005aa8:	4618      	mov	r0, r3
 8005aaa:	3714      	adds	r7, #20
 8005aac:	46bd      	mov	sp, r7
 8005aae:	bc80      	pop	{r7}
 8005ab0:	4770      	bx	lr

08005ab2 <HAL_TIM_IRQHandler>:
 8005ab2:	b580      	push	{r7, lr}
 8005ab4:	b082      	sub	sp, #8
 8005ab6:	af00      	add	r7, sp, #0
 8005ab8:	6078      	str	r0, [r7, #4]
 8005aba:	687b      	ldr	r3, [r7, #4]
 8005abc:	681b      	ldr	r3, [r3, #0]
 8005abe:	691b      	ldr	r3, [r3, #16]
 8005ac0:	f003 0302 	and.w	r3, r3, #2
 8005ac4:	2b02      	cmp	r3, #2
 8005ac6:	d122      	bne.n	8005b0e <HAL_TIM_IRQHandler+0x5c>
 8005ac8:	687b      	ldr	r3, [r7, #4]
 8005aca:	681b      	ldr	r3, [r3, #0]
 8005acc:	68db      	ldr	r3, [r3, #12]
 8005ace:	f003 0302 	and.w	r3, r3, #2
 8005ad2:	2b02      	cmp	r3, #2
 8005ad4:	d11b      	bne.n	8005b0e <HAL_TIM_IRQHandler+0x5c>
 8005ad6:	687b      	ldr	r3, [r7, #4]
 8005ad8:	681b      	ldr	r3, [r3, #0]
 8005ada:	f06f 0202 	mvn.w	r2, #2
 8005ade:	611a      	str	r2, [r3, #16]
 8005ae0:	687b      	ldr	r3, [r7, #4]
 8005ae2:	2201      	movs	r2, #1
 8005ae4:	771a      	strb	r2, [r3, #28]
 8005ae6:	687b      	ldr	r3, [r7, #4]
 8005ae8:	681b      	ldr	r3, [r3, #0]
 8005aea:	699b      	ldr	r3, [r3, #24]
 8005aec:	f003 0303 	and.w	r3, r3, #3
 8005af0:	2b00      	cmp	r3, #0
 8005af2:	d003      	beq.n	8005afc <HAL_TIM_IRQHandler+0x4a>
 8005af4:	6878      	ldr	r0, [r7, #4]
 8005af6:	f000 f9a4 	bl	8005e42 <HAL_TIM_IC_CaptureCallback>
 8005afa:	e005      	b.n	8005b08 <HAL_TIM_IRQHandler+0x56>
 8005afc:	6878      	ldr	r0, [r7, #4]
 8005afe:	f000 f997 	bl	8005e30 <HAL_TIM_OC_DelayElapsedCallback>
 8005b02:	6878      	ldr	r0, [r7, #4]
 8005b04:	f000 f9a6 	bl	8005e54 <HAL_TIM_PWM_PulseFinishedCallback>
 8005b08:	687b      	ldr	r3, [r7, #4]
 8005b0a:	2200      	movs	r2, #0
 8005b0c:	771a      	strb	r2, [r3, #28]
 8005b0e:	687b      	ldr	r3, [r7, #4]
 8005b10:	681b      	ldr	r3, [r3, #0]
 8005b12:	691b      	ldr	r3, [r3, #16]
 8005b14:	f003 0304 	and.w	r3, r3, #4
 8005b18:	2b04      	cmp	r3, #4
 8005b1a:	d122      	bne.n	8005b62 <HAL_TIM_IRQHandler+0xb0>
 8005b1c:	687b      	ldr	r3, [r7, #4]
 8005b1e:	681b      	ldr	r3, [r3, #0]
 8005b20:	68db      	ldr	r3, [r3, #12]
 8005b22:	f003 0304 	and.w	r3, r3, #4
 8005b26:	2b04      	cmp	r3, #4
 8005b28:	d11b      	bne.n	8005b62 <HAL_TIM_IRQHandler+0xb0>
 8005b2a:	687b      	ldr	r3, [r7, #4]
 8005b2c:	681b      	ldr	r3, [r3, #0]
 8005b2e:	f06f 0204 	mvn.w	r2, #4
 8005b32:	611a      	str	r2, [r3, #16]
 8005b34:	687b      	ldr	r3, [r7, #4]
 8005b36:	2202      	movs	r2, #2
 8005b38:	771a      	strb	r2, [r3, #28]
 8005b3a:	687b      	ldr	r3, [r7, #4]
 8005b3c:	681b      	ldr	r3, [r3, #0]
 8005b3e:	699b      	ldr	r3, [r3, #24]
 8005b40:	f403 7340 	and.w	r3, r3, #768	; 0x300
 8005b44:	2b00      	cmp	r3, #0
 8005b46:	d003      	beq.n	8005b50 <HAL_TIM_IRQHandler+0x9e>
 8005b48:	6878      	ldr	r0, [r7, #4]
 8005b4a:	f000 f97a 	bl	8005e42 <HAL_TIM_IC_CaptureCallback>
 8005b4e:	e005      	b.n	8005b5c <HAL_TIM_IRQHandler+0xaa>
 8005b50:	6878      	ldr	r0, [r7, #4]
 8005b52:	f000 f96d 	bl	8005e30 <HAL_TIM_OC_DelayElapsedCallback>
 8005b56:	6878      	ldr	r0, [r7, #4]
 8005b58:	f000 f97c 	bl	8005e54 <HAL_TIM_PWM_PulseFinishedCallback>
 8005b5c:	687b      	ldr	r3, [r7, #4]
 8005b5e:	2200      	movs	r2, #0
 8005b60:	771a      	strb	r2, [r3, #28]
 8005b62:	687b      	ldr	r3, [r7, #4]
 8005b64:	681b      	ldr	r3, [r3, #0]
 8005b66:	691b      	ldr	r3, [r3, #16]
 8005b68:	f003 0308 	and.w	r3, r3, #8
 8005b6c:	2b08      	cmp	r3, #8
 8005b6e:	d122      	bne.n	8005bb6 <HAL_TIM_IRQHandler+0x104>
 8005b70:	687b      	ldr	r3, [r7, #4]
 8005b72:	681b      	ldr	r3, [r3, #0]
 8005b74:	68db      	ldr	r3, [r3, #12]
 8005b76:	f003 0308 	and.w	r3, r3, #8
 8005b7a:	2b08      	cmp	r3, #8
 8005b7c:	d11b      	bne.n	8005bb6 <HAL_TIM_IRQHandler+0x104>
 8005b7e:	687b      	ldr	r3, [r7, #4]
 8005b80:	681b      	ldr	r3, [r3, #0]
 8005b82:	f06f 0208 	mvn.w	r2, #8
 8005b86:	611a      	str	r2, [r3, #16]
 8005b88:	687b      	ldr	r3, [r7, #4]
 8005b8a:	2204      	movs	r2, #4
 8005b8c:	771a      	strb	r2, [r3, #28]
 8005b8e:	687b      	ldr	r3, [r7, #4]
 8005b90:	681b      	ldr	r3, [r3, #0]
 8005b92:	69db      	ldr	r3, [r3, #28]
 8005b94:	f003 0303 	and.w	r3, r3, #3
 8005b98:	2b00      	cmp	r3, #0
 8005b9a:	d003      	beq.n	8005ba4 <HAL_TIM_IRQHandler+0xf2>
 8005b9c:	6878      	ldr	r0, [r7, #4]
 8005b9e:	f000 f950 	bl	8005e42 <HAL_TIM_IC_CaptureCallback>
 8005ba2:	e005      	b.n	8005bb0 <HAL_TIM_IRQHandler+0xfe>
 8005ba4:	6878      	ldr	r0, [r7, #4]
 8005ba6:	f000 f943 	bl	8005e30 <HAL_TIM_OC_DelayElapsedCallback>
 8005baa:	6878      	ldr	r0, [r7, #4]
 8005bac:	f000 f952 	bl	8005e54 <HAL_TIM_PWM_PulseFinishedCallback>
 8005bb0:	687b      	ldr	r3, [r7, #4]
 8005bb2:	2200      	movs	r2, #0
 8005bb4:	771a      	strb	r2, [r3, #28]
 8005bb6:	687b      	ldr	r3, [r7, #4]
 8005bb8:	681b      	ldr	r3, [r3, #0]
 8005bba:	691b      	ldr	r3, [r3, #16]
 8005bbc:	f003 0310 	and.w	r3, r3, #16
 8005bc0:	2b10      	cmp	r3, #16
 8005bc2:	d122      	bne.n	8005c0a <HAL_TIM_IRQHandler+0x158>
 8005bc4:	687b      	ldr	r3, [r7, #4]
 8005bc6:	681b      	ldr	r3, [r3, #0]
 8005bc8:	68db      	ldr	r3, [r3, #12]
 8005bca:	f003 0310 	and.w	r3, r3, #16
 8005bce:	2b10      	cmp	r3, #16
 8005bd0:	d11b      	bne.n	8005c0a <HAL_TIM_IRQHandler+0x158>
 8005bd2:	687b      	ldr	r3, [r7, #4]
 8005bd4:	681b      	ldr	r3, [r3, #0]
 8005bd6:	f06f 0210 	mvn.w	r2, #16
 8005bda:	611a      	str	r2, [r3, #16]
 8005bdc:	687b      	ldr	r3, [r7, #4]
 8005bde:	2208      	movs	r2, #8
 8005be0:	771a      	strb	r2, [r3, #28]
 8005be2:	687b      	ldr	r3, [r7, #4]
 8005be4:	681b      	ldr	r3, [r3, #0]
 8005be6:	69db      	ldr	r3, [r3, #28]
 8005be8:	f403 7340 	and.w	r3, r3, #768	; 0x300
 8005bec:	2b00      	cmp	r3, #0
 8005bee:	d003      	beq.n	8005bf8 <HAL_TIM_IRQHandler+0x146>
 8005bf0:	6878      	ldr	r0, [r7, #4]
 8005bf2:	f000 f926 	bl	8005e42 <HAL_TIM_IC_CaptureCallback>
 8005bf6:	e005      	b.n	8005c04 <HAL_TIM_IRQHandler+0x152>
 8005bf8:	6878      	ldr	r0, [r7, #4]
 8005bfa:	f000 f919 	bl	8005e30 <HAL_TIM_OC_DelayElapsedCallback>
 8005bfe:	6878      	ldr	r0, [r7, #4]
 8005c00:	f000 f928 	bl	8005e54 <HAL_TIM_PWM_PulseFinishedCallback>
 8005c04:	687b      	ldr	r3, [r7, #4]
 8005c06:	2200      	movs	r2, #0
 8005c08:	771a      	strb	r2, [r3, #28]
 8005c0a:	687b      	ldr	r3, [r7, #4]
 8005c0c:	681b      	ldr	r3, [r3, #0]
 8005c0e:	691b      	ldr	r3, [r3, #16]
 8005c10:	f003 0301 	and.w	r3, r3, #1
 8005c14:	2b01      	cmp	r3, #1
 8005c16:	d10e      	bne.n	8005c36 <HAL_TIM_IRQHandler+0x184>
 8005c18:	687b      	ldr	r3, [r7, #4]
 8005c1a:	681b      	ldr	r3, [r3, #0]
 8005c1c:	68db      	ldr	r3, [r3, #12]
 8005c1e:	f003 0301 	and.w	r3, r3, #1
 8005c22:	2b01      	cmp	r3, #1
 8005c24:	d107      	bne.n	8005c36 <HAL_TIM_IRQHandler+0x184>
 8005c26:	687b      	ldr	r3, [r7, #4]
 8005c28:	681b      	ldr	r3, [r3, #0]
 8005c2a:	f06f 0201 	mvn.w	r2, #1
 8005c2e:	611a      	str	r2, [r3, #16]
 8005c30:	6878      	ldr	r0, [r7, #4]
 8005c32:	f7fb ffe1 	bl	8001bf8 <HAL_TIM_PeriodElapsedCallback>
 8005c36:	687b      	ldr	r3, [r7, #4]
 8005c38:	681b      	ldr	r3, [r3, #0]
 8005c3a:	691b      	ldr	r3, [r3, #16]
 8005c3c:	f003 0380 	and.w	r3, r3, #128	; 0x80
 8005c40:	2b80      	cmp	r3, #128	; 0x80
 8005c42:	d10e      	bne.n	8005c62 <HAL_TIM_IRQHandler+0x1b0>
 8005c44:	687b      	ldr	r3, [r7, #4]
 8005c46:	681b      	ldr	r3, [r3, #0]
 8005c48:	68db      	ldr	r3, [r3, #12]
 8005c4a:	f003 0380 	and.w	r3, r3, #128	; 0x80
 8005c4e:	2b80      	cmp	r3, #128	; 0x80
 8005c50:	d107      	bne.n	8005c62 <HAL_TIM_IRQHandler+0x1b0>
 8005c52:	687b      	ldr	r3, [r7, #4]
 8005c54:	681b      	ldr	r3, [r3, #0]
 8005c56:	f06f 0280 	mvn.w	r2, #128	; 0x80
 8005c5a:	611a      	str	r2, [r3, #16]
 8005c5c:	6878      	ldr	r0, [r7, #4]
 8005c5e:	f000 fa50 	bl	8006102 <HAL_TIMEx_BreakCallback>
 8005c62:	687b      	ldr	r3, [r7, #4]
 8005c64:	681b      	ldr	r3, [r3, #0]
 8005c66:	691b      	ldr	r3, [r3, #16]
 8005c68:	f003 0340 	and.w	r3, r3, #64	; 0x40
 8005c6c:	2b40      	cmp	r3, #64	; 0x40
 8005c6e:	d10e      	bne.n	8005c8e <HAL_TIM_IRQHandler+0x1dc>
 8005c70:	687b      	ldr	r3, [r7, #4]
 8005c72:	681b      	ldr	r3, [r3, #0]
 8005c74:	68db      	ldr	r3, [r3, #12]
 8005c76:	f003 0340 	and.w	r3, r3, #64	; 0x40
 8005c7a:	2b40      	cmp	r3, #64	; 0x40
 8005c7c:	d107      	bne.n	8005c8e <HAL_TIM_IRQHandler+0x1dc>
 8005c7e:	687b      	ldr	r3, [r7, #4]
 8005c80:	681b      	ldr	r3, [r3, #0]
 8005c82:	f06f 0240 	mvn.w	r2, #64	; 0x40
 8005c86:	611a      	str	r2, [r3, #16]
 8005c88:	6878      	ldr	r0, [r7, #4]
 8005c8a:	f000 f8ec 	bl	8005e66 <HAL_TIM_TriggerCallback>
 8005c8e:	687b      	ldr	r3, [r7, #4]
 8005c90:	681b      	ldr	r3, [r3, #0]
 8005c92:	691b      	ldr	r3, [r3, #16]
 8005c94:	f003 0320 	and.w	r3, r3, #32
 8005c98:	2b20      	cmp	r3, #32
 8005c9a:	d10e      	bne.n	8005cba <HAL_TIM_IRQHandler+0x208>
 8005c9c:	687b      	ldr	r3, [r7, #4]
 8005c9e:	681b      	ldr	r3, [r3, #0]
 8005ca0:	68db      	ldr	r3, [r3, #12]
 8005ca2:	f003 0320 	and.w	r3, r3, #32
 8005ca6:	2b20      	cmp	r3, #32
 8005ca8:	d107      	bne.n	8005cba <HAL_TIM_IRQHandler+0x208>
 8005caa:	687b      	ldr	r3, [r7, #4]
 8005cac:	681b      	ldr	r3, [r3, #0]
 8005cae:	f06f 0220 	mvn.w	r2, #32
 8005cb2:	611a      	str	r2, [r3, #16]
 8005cb4:	6878      	ldr	r0, [r7, #4]
 8005cb6:	f000 fa1b 	bl	80060f0 <HAL_TIMEx_CommutCallback>
 8005cba:	bf00      	nop
 8005cbc:	3708      	adds	r7, #8
 8005cbe:	46bd      	mov	sp, r7
 8005cc0:	bd80      	pop	{r7, pc}

08005cc2 <HAL_TIM_ConfigClockSource>:
 8005cc2:	b580      	push	{r7, lr}
 8005cc4:	b084      	sub	sp, #16
 8005cc6:	af00      	add	r7, sp, #0
 8005cc8:	6078      	str	r0, [r7, #4]
 8005cca:	6039      	str	r1, [r7, #0]
 8005ccc:	687b      	ldr	r3, [r7, #4]
 8005cce:	f893 303c 	ldrb.w	r3, [r3, #60]	; 0x3c
 8005cd2:	2b01      	cmp	r3, #1
 8005cd4:	d101      	bne.n	8005cda <HAL_TIM_ConfigClockSource+0x18>
 8005cd6:	2302      	movs	r3, #2
 8005cd8:	e0a6      	b.n	8005e28 <HAL_TIM_ConfigClockSource+0x166>
 8005cda:	687b      	ldr	r3, [r7, #4]
 8005cdc:	2201      	movs	r2, #1
 8005cde:	f883 203c 	strb.w	r2, [r3, #60]	; 0x3c
 8005ce2:	687b      	ldr	r3, [r7, #4]
 8005ce4:	2202      	movs	r2, #2
 8005ce6:	f883 203d 	strb.w	r2, [r3, #61]	; 0x3d
 8005cea:	687b      	ldr	r3, [r7, #4]
 8005cec:	681b      	ldr	r3, [r3, #0]
 8005cee:	689b      	ldr	r3, [r3, #8]
 8005cf0:	60fb      	str	r3, [r7, #12]
 8005cf2:	68fb      	ldr	r3, [r7, #12]
 8005cf4:	f023 0377 	bic.w	r3, r3, #119	; 0x77
 8005cf8:	60fb      	str	r3, [r7, #12]
 8005cfa:	68fb      	ldr	r3, [r7, #12]
 8005cfc:	f423 437f 	bic.w	r3, r3, #65280	; 0xff00
 8005d00:	60fb      	str	r3, [r7, #12]
 8005d02:	687b      	ldr	r3, [r7, #4]
 8005d04:	681b      	ldr	r3, [r3, #0]
 8005d06:	68fa      	ldr	r2, [r7, #12]
 8005d08:	609a      	str	r2, [r3, #8]
 8005d0a:	683b      	ldr	r3, [r7, #0]
 8005d0c:	681b      	ldr	r3, [r3, #0]
 8005d0e:	2b40      	cmp	r3, #64	; 0x40
 8005d10:	d067      	beq.n	8005de2 <HAL_TIM_ConfigClockSource+0x120>
 8005d12:	2b40      	cmp	r3, #64	; 0x40
 8005d14:	d80b      	bhi.n	8005d2e <HAL_TIM_ConfigClockSource+0x6c>
 8005d16:	2b10      	cmp	r3, #16
 8005d18:	d073      	beq.n	8005e02 <HAL_TIM_ConfigClockSource+0x140>
 8005d1a:	2b10      	cmp	r3, #16
 8005d1c:	d802      	bhi.n	8005d24 <HAL_TIM_ConfigClockSource+0x62>
 8005d1e:	2b00      	cmp	r3, #0
 8005d20:	d06f      	beq.n	8005e02 <HAL_TIM_ConfigClockSource+0x140>
 8005d22:	e078      	b.n	8005e16 <HAL_TIM_ConfigClockSource+0x154>
 8005d24:	2b20      	cmp	r3, #32
 8005d26:	d06c      	beq.n	8005e02 <HAL_TIM_ConfigClockSource+0x140>
 8005d28:	2b30      	cmp	r3, #48	; 0x30
 8005d2a:	d06a      	beq.n	8005e02 <HAL_TIM_ConfigClockSource+0x140>
 8005d2c:	e073      	b.n	8005e16 <HAL_TIM_ConfigClockSource+0x154>
 8005d2e:	2b70      	cmp	r3, #112	; 0x70
 8005d30:	d00d      	beq.n	8005d4e <HAL_TIM_ConfigClockSource+0x8c>
 8005d32:	2b70      	cmp	r3, #112	; 0x70
 8005d34:	d804      	bhi.n	8005d40 <HAL_TIM_ConfigClockSource+0x7e>
 8005d36:	2b50      	cmp	r3, #80	; 0x50
 8005d38:	d033      	beq.n	8005da2 <HAL_TIM_ConfigClockSource+0xe0>
 8005d3a:	2b60      	cmp	r3, #96	; 0x60
 8005d3c:	d041      	beq.n	8005dc2 <HAL_TIM_ConfigClockSource+0x100>
 8005d3e:	e06a      	b.n	8005e16 <HAL_TIM_ConfigClockSource+0x154>
 8005d40:	f5b3 5f80 	cmp.w	r3, #4096	; 0x1000
 8005d44:	d066      	beq.n	8005e14 <HAL_TIM_ConfigClockSource+0x152>
 8005d46:	f5b3 5f00 	cmp.w	r3, #8192	; 0x2000
 8005d4a:	d017      	beq.n	8005d7c <HAL_TIM_ConfigClockSource+0xba>
 8005d4c:	e063      	b.n	8005e16 <HAL_TIM_ConfigClockSource+0x154>
 8005d4e:	687b      	ldr	r3, [r7, #4]
 8005d50:	6818      	ldr	r0, [r3, #0]
 8005d52:	683b      	ldr	r3, [r7, #0]
 8005d54:	6899      	ldr	r1, [r3, #8]
 8005d56:	683b      	ldr	r3, [r7, #0]
 8005d58:	685a      	ldr	r2, [r3, #4]
 8005d5a:	683b      	ldr	r3, [r7, #0]
 8005d5c:	68db      	ldr	r3, [r3, #12]
 8005d5e:	f000 f964 	bl	800602a <TIM_ETR_SetConfig>
 8005d62:	687b      	ldr	r3, [r7, #4]
 8005d64:	681b      	ldr	r3, [r3, #0]
 8005d66:	689b      	ldr	r3, [r3, #8]
 8005d68:	60fb      	str	r3, [r7, #12]
 8005d6a:	68fb      	ldr	r3, [r7, #12]
 8005d6c:	f043 0377 	orr.w	r3, r3, #119	; 0x77
 8005d70:	60fb      	str	r3, [r7, #12]
 8005d72:	687b      	ldr	r3, [r7, #4]
 8005d74:	681b      	ldr	r3, [r3, #0]
 8005d76:	68fa      	ldr	r2, [r7, #12]
 8005d78:	609a      	str	r2, [r3, #8]
 8005d7a:	e04c      	b.n	8005e16 <HAL_TIM_ConfigClockSource+0x154>
 8005d7c:	687b      	ldr	r3, [r7, #4]
 8005d7e:	6818      	ldr	r0, [r3, #0]
 8005d80:	683b      	ldr	r3, [r7, #0]
 8005d82:	6899      	ldr	r1, [r3, #8]
 8005d84:	683b      	ldr	r3, [r7, #0]
 8005d86:	685a      	ldr	r2, [r3, #4]
 8005d88:	683b      	ldr	r3, [r7, #0]
 8005d8a:	68db      	ldr	r3, [r3, #12]
 8005d8c:	f000 f94d 	bl	800602a <TIM_ETR_SetConfig>
 8005d90:	687b      	ldr	r3, [r7, #4]
 8005d92:	681b      	ldr	r3, [r3, #0]
 8005d94:	689a      	ldr	r2, [r3, #8]
 8005d96:	687b      	ldr	r3, [r7, #4]
 8005d98:	681b      	ldr	r3, [r3, #0]
 8005d9a:	f442 4280 	orr.w	r2, r2, #16384	; 0x4000
 8005d9e:	609a      	str	r2, [r3, #8]
 8005da0:	e039      	b.n	8005e16 <HAL_TIM_ConfigClockSource+0x154>
 8005da2:	687b      	ldr	r3, [r7, #4]
 8005da4:	6818      	ldr	r0, [r3, #0]
 8005da6:	683b      	ldr	r3, [r7, #0]
 8005da8:	6859      	ldr	r1, [r3, #4]
 8005daa:	683b      	ldr	r3, [r7, #0]
 8005dac:	68db      	ldr	r3, [r3, #12]
 8005dae:	461a      	mov	r2, r3
 8005db0:	f000 f8c4 	bl	8005f3c <TIM_TI1_ConfigInputStage>
 8005db4:	687b      	ldr	r3, [r7, #4]
 8005db6:	681b      	ldr	r3, [r3, #0]
 8005db8:	2150      	movs	r1, #80	; 0x50
 8005dba:	4618      	mov	r0, r3
 8005dbc:	f000 f91b 	bl	8005ff6 <TIM_ITRx_SetConfig>
 8005dc0:	e029      	b.n	8005e16 <HAL_TIM_ConfigClockSource+0x154>
 8005dc2:	687b      	ldr	r3, [r7, #4]
 8005dc4:	6818      	ldr	r0, [r3, #0]
 8005dc6:	683b      	ldr	r3, [r7, #0]
 8005dc8:	6859      	ldr	r1, [r3, #4]
 8005dca:	683b      	ldr	r3, [r7, #0]
 8005dcc:	68db      	ldr	r3, [r3, #12]
 8005dce:	461a      	mov	r2, r3
 8005dd0:	f000 f8e2 	bl	8005f98 <TIM_TI2_ConfigInputStage>
 8005dd4:	687b      	ldr	r3, [r7, #4]
 8005dd6:	681b      	ldr	r3, [r3, #0]
 8005dd8:	2160      	movs	r1, #96	; 0x60
 8005dda:	4618      	mov	r0, r3
 8005ddc:	f000 f90b 	bl	8005ff6 <TIM_ITRx_SetConfig>
 8005de0:	e019      	b.n	8005e16 <HAL_TIM_ConfigClockSource+0x154>
 8005de2:	687b      	ldr	r3, [r7, #4]
 8005de4:	6818      	ldr	r0, [r3, #0]
 8005de6:	683b      	ldr	r3, [r7, #0]
 8005de8:	6859      	ldr	r1, [r3, #4]
 8005dea:	683b      	ldr	r3, [r7, #0]
 8005dec:	68db      	ldr	r3, [r3, #12]
 8005dee:	461a      	mov	r2, r3
 8005df0:	f000 f8a4 	bl	8005f3c <TIM_TI1_ConfigInputStage>
 8005df4:	687b      	ldr	r3, [r7, #4]
 8005df6:	681b      	ldr	r3, [r3, #0]
 8005df8:	2140      	movs	r1, #64	; 0x40
 8005dfa:	4618      	mov	r0, r3
 8005dfc:	f000 f8fb 	bl	8005ff6 <TIM_ITRx_SetConfig>
 8005e00:	e009      	b.n	8005e16 <HAL_TIM_ConfigClockSource+0x154>
 8005e02:	687b      	ldr	r3, [r7, #4]
 8005e04:	681a      	ldr	r2, [r3, #0]
 8005e06:	683b      	ldr	r3, [r7, #0]
 8005e08:	681b      	ldr	r3, [r3, #0]
 8005e0a:	4619      	mov	r1, r3
 8005e0c:	4610      	mov	r0, r2
 8005e0e:	f000 f8f2 	bl	8005ff6 <TIM_ITRx_SetConfig>
 8005e12:	e000      	b.n	8005e16 <HAL_TIM_ConfigClockSource+0x154>
 8005e14:	bf00      	nop
 8005e16:	687b      	ldr	r3, [r7, #4]
 8005e18:	2201      	movs	r2, #1
 8005e1a:	f883 203d 	strb.w	r2, [r3, #61]	; 0x3d
 8005e1e:	687b      	ldr	r3, [r7, #4]
 8005e20:	2200      	movs	r2, #0
 8005e22:	f883 203c 	strb.w	r2, [r3, #60]	; 0x3c
 8005e26:	2300      	movs	r3, #0
 8005e28:	4618      	mov	r0, r3
 8005e2a:	3710      	adds	r7, #16
 8005e2c:	46bd      	mov	sp, r7
 8005e2e:	bd80      	pop	{r7, pc}

08005e30 <HAL_TIM_OC_DelayElapsedCallback>:
 8005e30:	b480      	push	{r7}
 8005e32:	b083      	sub	sp, #12
 8005e34:	af00      	add	r7, sp, #0
 8005e36:	6078      	str	r0, [r7, #4]
 8005e38:	bf00      	nop
 8005e3a:	370c      	adds	r7, #12
 8005e3c:	46bd      	mov	sp, r7
 8005e3e:	bc80      	pop	{r7}
 8005e40:	4770      	bx	lr

08005e42 <HAL_TIM_IC_CaptureCallback>:
 8005e42:	b480      	push	{r7}
 8005e44:	b083      	sub	sp, #12
 8005e46:	af00      	add	r7, sp, #0
 8005e48:	6078      	str	r0, [r7, #4]
 8005e4a:	bf00      	nop
 8005e4c:	370c      	adds	r7, #12
 8005e4e:	46bd      	mov	sp, r7
 8005e50:	bc80      	pop	{r7}
 8005e52:	4770      	bx	lr

08005e54 <HAL_TIM_PWM_PulseFinishedCallback>:
 8005e54:	b480      	push	{r7}
 8005e56:	b083      	sub	sp, #12
 8005e58:	af00      	add	r7, sp, #0
 8005e5a:	6078      	str	r0, [r7, #4]
 8005e5c:	bf00      	nop
 8005e5e:	370c      	adds	r7, #12
 8005e60:	46bd      	mov	sp, r7
 8005e62:	bc80      	pop	{r7}
 8005e64:	4770      	bx	lr

08005e66 <HAL_TIM_TriggerCallback>:
 8005e66:	b480      	push	{r7}
 8005e68:	b083      	sub	sp, #12
 8005e6a:	af00      	add	r7, sp, #0
 8005e6c:	6078      	str	r0, [r7, #4]
 8005e6e:	bf00      	nop
 8005e70:	370c      	adds	r7, #12
 8005e72:	46bd      	mov	sp, r7
 8005e74:	bc80      	pop	{r7}
 8005e76:	4770      	bx	lr

08005e78 <TIM_Base_SetConfig>:
 8005e78:	b480      	push	{r7}
 8005e7a:	b085      	sub	sp, #20
 8005e7c:	af00      	add	r7, sp, #0
 8005e7e:	6078      	str	r0, [r7, #4]
 8005e80:	6039      	str	r1, [r7, #0]
 8005e82:	687b      	ldr	r3, [r7, #4]
 8005e84:	681b      	ldr	r3, [r3, #0]
 8005e86:	60fb      	str	r3, [r7, #12]
 8005e88:	687b      	ldr	r3, [r7, #4]
 8005e8a:	4a29      	ldr	r2, [pc, #164]	; (8005f30 <TIM_Base_SetConfig+0xb8>)
 8005e8c:	4293      	cmp	r3, r2
 8005e8e:	d00b      	beq.n	8005ea8 <TIM_Base_SetConfig+0x30>
 8005e90:	687b      	ldr	r3, [r7, #4]
 8005e92:	f1b3 4f80 	cmp.w	r3, #1073741824	; 0x40000000
 8005e96:	d007      	beq.n	8005ea8 <TIM_Base_SetConfig+0x30>
 8005e98:	687b      	ldr	r3, [r7, #4]
 8005e9a:	4a26      	ldr	r2, [pc, #152]	; (8005f34 <TIM_Base_SetConfig+0xbc>)
 8005e9c:	4293      	cmp	r3, r2
 8005e9e:	d003      	beq.n	8005ea8 <TIM_Base_SetConfig+0x30>
 8005ea0:	687b      	ldr	r3, [r7, #4]
 8005ea2:	4a25      	ldr	r2, [pc, #148]	; (8005f38 <TIM_Base_SetConfig+0xc0>)
 8005ea4:	4293      	cmp	r3, r2
 8005ea6:	d108      	bne.n	8005eba <TIM_Base_SetConfig+0x42>
 8005ea8:	68fb      	ldr	r3, [r7, #12]
 8005eaa:	f023 0370 	bic.w	r3, r3, #112	; 0x70
 8005eae:	60fb      	str	r3, [r7, #12]
 8005eb0:	683b      	ldr	r3, [r7, #0]
 8005eb2:	685b      	ldr	r3, [r3, #4]
 8005eb4:	68fa      	ldr	r2, [r7, #12]
 8005eb6:	4313      	orrs	r3, r2
 8005eb8:	60fb      	str	r3, [r7, #12]
 8005eba:	687b      	ldr	r3, [r7, #4]
 8005ebc:	4a1c      	ldr	r2, [pc, #112]	; (8005f30 <TIM_Base_SetConfig+0xb8>)
 8005ebe:	4293      	cmp	r3, r2
 8005ec0:	d00b      	beq.n	8005eda <TIM_Base_SetConfig+0x62>
 8005ec2:	687b      	ldr	r3, [r7, #4]
 8005ec4:	f1b3 4f80 	cmp.w	r3, #1073741824	; 0x40000000
 8005ec8:	d007      	beq.n	8005eda <TIM_Base_SetConfig+0x62>
 8005eca:	687b      	ldr	r3, [r7, #4]
 8005ecc:	4a19      	ldr	r2, [pc, #100]	; (8005f34 <TIM_Base_SetConfig+0xbc>)
 8005ece:	4293      	cmp	r3, r2
 8005ed0:	d003      	beq.n	8005eda <TIM_Base_SetConfig+0x62>
 8005ed2:	687b      	ldr	r3, [r7, #4]
 8005ed4:	4a18      	ldr	r2, [pc, #96]	; (8005f38 <TIM_Base_SetConfig+0xc0>)
 8005ed6:	4293      	cmp	r3, r2
 8005ed8:	d108      	bne.n	8005eec <TIM_Base_SetConfig+0x74>
 8005eda:	68fb      	ldr	r3, [r7, #12]
 8005edc:	f423 7340 	bic.w	r3, r3, #768	; 0x300
 8005ee0:	60fb      	str	r3, [r7, #12]
 8005ee2:	683b      	ldr	r3, [r7, #0]
 8005ee4:	68db      	ldr	r3, [r3, #12]
 8005ee6:	68fa      	ldr	r2, [r7, #12]
 8005ee8:	4313      	orrs	r3, r2
 8005eea:	60fb      	str	r3, [r7, #12]
 8005eec:	68fb      	ldr	r3, [r7, #12]
 8005eee:	f023 0280 	bic.w	r2, r3, #128	; 0x80
 8005ef2:	683b      	ldr	r3, [r7, #0]
 8005ef4:	695b      	ldr	r3, [r3, #20]
 8005ef6:	4313      	orrs	r3, r2
 8005ef8:	60fb      	str	r3, [r7, #12]
 8005efa:	687b      	ldr	r3, [r7, #4]
 8005efc:	68fa      	ldr	r2, [r7, #12]
 8005efe:	601a      	str	r2, [r3, #0]
 8005f00:	683b      	ldr	r3, [r7, #0]
 8005f02:	689a      	ldr	r2, [r3, #8]
 8005f04:	687b      	ldr	r3, [r7, #4]
 8005f06:	62da      	str	r2, [r3, #44]	; 0x2c
 8005f08:	683b      	ldr	r3, [r7, #0]
 8005f0a:	681a      	ldr	r2, [r3, #0]
 8005f0c:	687b      	ldr	r3, [r7, #4]
 8005f0e:	629a      	str	r2, [r3, #40]	; 0x28
 8005f10:	687b      	ldr	r3, [r7, #4]
 8005f12:	4a07      	ldr	r2, [pc, #28]	; (8005f30 <TIM_Base_SetConfig+0xb8>)
 8005f14:	4293      	cmp	r3, r2
 8005f16:	d103      	bne.n	8005f20 <TIM_Base_SetConfig+0xa8>
 8005f18:	683b      	ldr	r3, [r7, #0]
 8005f1a:	691a      	ldr	r2, [r3, #16]
 8005f1c:	687b      	ldr	r3, [r7, #4]
 8005f1e:	631a      	str	r2, [r3, #48]	; 0x30
 8005f20:	687b      	ldr	r3, [r7, #4]
 8005f22:	2201      	movs	r2, #1
 8005f24:	615a      	str	r2, [r3, #20]
 8005f26:	bf00      	nop
 8005f28:	3714      	adds	r7, #20
 8005f2a:	46bd      	mov	sp, r7
 8005f2c:	bc80      	pop	{r7}
 8005f2e:	4770      	bx	lr
 8005f30:	40012c00 	.word	0x40012c00
 8005f34:	40000400 	.word	0x40000400
 8005f38:	40000800 	.word	0x40000800

08005f3c <TIM_TI1_ConfigInputStage>:
 8005f3c:	b480      	push	{r7}
 8005f3e:	b087      	sub	sp, #28
 8005f40:	af00      	add	r7, sp, #0
 8005f42:	60f8      	str	r0, [r7, #12]
 8005f44:	60b9      	str	r1, [r7, #8]
 8005f46:	607a      	str	r2, [r7, #4]
 8005f48:	68fb      	ldr	r3, [r7, #12]
 8005f4a:	6a1b      	ldr	r3, [r3, #32]
 8005f4c:	617b      	str	r3, [r7, #20]
 8005f4e:	68fb      	ldr	r3, [r7, #12]
 8005f50:	6a1b      	ldr	r3, [r3, #32]
 8005f52:	f023 0201 	bic.w	r2, r3, #1
 8005f56:	68fb      	ldr	r3, [r7, #12]
 8005f58:	621a      	str	r2, [r3, #32]
 8005f5a:	68fb      	ldr	r3, [r7, #12]
 8005f5c:	699b      	ldr	r3, [r3, #24]
 8005f5e:	613b      	str	r3, [r7, #16]
 8005f60:	693b      	ldr	r3, [r7, #16]
 8005f62:	f023 03f0 	bic.w	r3, r3, #240	; 0xf0
 8005f66:	613b      	str	r3, [r7, #16]
 8005f68:	687b      	ldr	r3, [r7, #4]
 8005f6a:	011b      	lsls	r3, r3, #4
 8005f6c:	693a      	ldr	r2, [r7, #16]
 8005f6e:	4313      	orrs	r3, r2
 8005f70:	613b      	str	r3, [r7, #16]
 8005f72:	697b      	ldr	r3, [r7, #20]
 8005f74:	f023 030a 	bic.w	r3, r3, #10
 8005f78:	617b      	str	r3, [r7, #20]
 8005f7a:	697a      	ldr	r2, [r7, #20]
 8005f7c:	68bb      	ldr	r3, [r7, #8]
 8005f7e:	4313      	orrs	r3, r2
 8005f80:	617b      	str	r3, [r7, #20]
 8005f82:	68fb      	ldr	r3, [r7, #12]
 8005f84:	693a      	ldr	r2, [r7, #16]
 8005f86:	619a      	str	r2, [r3, #24]
 8005f88:	68fb      	ldr	r3, [r7, #12]
 8005f8a:	697a      	ldr	r2, [r7, #20]
 8005f8c:	621a      	str	r2, [r3, #32]
 8005f8e:	bf00      	nop
 8005f90:	371c      	adds	r7, #28
 8005f92:	46bd      	mov	sp, r7
 8005f94:	bc80      	pop	{r7}
 8005f96:	4770      	bx	lr

08005f98 <TIM_TI2_ConfigInputStage>:
 8005f98:	b480      	push	{r7}
 8005f9a:	b087      	sub	sp, #28
 8005f9c:	af00      	add	r7, sp, #0
 8005f9e:	60f8      	str	r0, [r7, #12]
 8005fa0:	60b9      	str	r1, [r7, #8]
 8005fa2:	607a      	str	r2, [r7, #4]
 8005fa4:	68fb      	ldr	r3, [r7, #12]
 8005fa6:	6a1b      	ldr	r3, [r3, #32]
 8005fa8:	f023 0210 	bic.w	r2, r3, #16
 8005fac:	68fb      	ldr	r3, [r7, #12]
 8005fae:	621a      	str	r2, [r3, #32]
 8005fb0:	68fb      	ldr	r3, [r7, #12]
 8005fb2:	699b      	ldr	r3, [r3, #24]
 8005fb4:	617b      	str	r3, [r7, #20]
 8005fb6:	68fb      	ldr	r3, [r7, #12]
 8005fb8:	6a1b      	ldr	r3, [r3, #32]
 8005fba:	613b      	str	r3, [r7, #16]
 8005fbc:	697b      	ldr	r3, [r7, #20]
 8005fbe:	f423 4370 	bic.w	r3, r3, #61440	; 0xf000
 8005fc2:	617b      	str	r3, [r7, #20]
 8005fc4:	687b      	ldr	r3, [r7, #4]
 8005fc6:	031b      	lsls	r3, r3, #12
 8005fc8:	697a      	ldr	r2, [r7, #20]
 8005fca:	4313      	orrs	r3, r2
 8005fcc:	617b      	str	r3, [r7, #20]
 8005fce:	693b      	ldr	r3, [r7, #16]
 8005fd0:	f023 03a0 	bic.w	r3, r3, #160	; 0xa0
 8005fd4:	613b      	str	r3, [r7, #16]
 8005fd6:	68bb      	ldr	r3, [r7, #8]
 8005fd8:	011b      	lsls	r3, r3, #4
 8005fda:	693a      	ldr	r2, [r7, #16]
 8005fdc:	4313      	orrs	r3, r2
 8005fde:	613b      	str	r3, [r7, #16]
 8005fe0:	68fb      	ldr	r3, [r7, #12]
 8005fe2:	697a      	ldr	r2, [r7, #20]
 8005fe4:	619a      	str	r2, [r3, #24]
 8005fe6:	68fb      	ldr	r3, [r7, #12]
 8005fe8:	693a      	ldr	r2, [r7, #16]
 8005fea:	621a      	str	r2, [r3, #32]
 8005fec:	bf00      	nop
 8005fee:	371c      	adds	r7, #28
 8005ff0:	46bd      	mov	sp, r7
 8005ff2:	bc80      	pop	{r7}
 8005ff4:	4770      	bx	lr

08005ff6 <TIM_ITRx_SetConfig>:
 8005ff6:	b480      	push	{r7}
 8005ff8:	b085      	sub	sp, #20
 8005ffa:	af00      	add	r7, sp, #0
 8005ffc:	6078      	str	r0, [r7, #4]
 8005ffe:	6039      	str	r1, [r7, #0]
 8006000:	687b      	ldr	r3, [r7, #4]
 8006002:	689b      	ldr	r3, [r3, #8]
 8006004:	60fb      	str	r3, [r7, #12]
 8006006:	68fb      	ldr	r3, [r7, #12]
 8006008:	f023 0370 	bic.w	r3, r3, #112	; 0x70
 800600c:	60fb      	str	r3, [r7, #12]
 800600e:	683a      	ldr	r2, [r7, #0]
 8006010:	68fb      	ldr	r3, [r7, #12]
 8006012:	4313      	orrs	r3, r2
 8006014:	f043 0307 	orr.w	r3, r3, #7
 8006018:	60fb      	str	r3, [r7, #12]
 800601a:	687b      	ldr	r3, [r7, #4]
 800601c:	68fa      	ldr	r2, [r7, #12]
 800601e:	609a      	str	r2, [r3, #8]
 8006020:	bf00      	nop
 8006022:	3714      	adds	r7, #20
 8006024:	46bd      	mov	sp, r7
 8006026:	bc80      	pop	{r7}
 8006028:	4770      	bx	lr

0800602a <TIM_ETR_SetConfig>:
 800602a:	b480      	push	{r7}
 800602c:	b087      	sub	sp, #28
 800602e:	af00      	add	r7, sp, #0
 8006030:	60f8      	str	r0, [r7, #12]
 8006032:	60b9      	str	r1, [r7, #8]
 8006034:	607a      	str	r2, [r7, #4]
 8006036:	603b      	str	r3, [r7, #0]
 8006038:	68fb      	ldr	r3, [r7, #12]
 800603a:	689b      	ldr	r3, [r3, #8]
 800603c:	617b      	str	r3, [r7, #20]
 800603e:	697b      	ldr	r3, [r7, #20]
 8006040:	f423 437f 	bic.w	r3, r3, #65280	; 0xff00
 8006044:	617b      	str	r3, [r7, #20]
 8006046:	683b      	ldr	r3, [r7, #0]
 8006048:	021a      	lsls	r2, r3, #8
 800604a:	687b      	ldr	r3, [r7, #4]
 800604c:	431a      	orrs	r2, r3
 800604e:	68bb      	ldr	r3, [r7, #8]
 8006050:	4313      	orrs	r3, r2
 8006052:	697a      	ldr	r2, [r7, #20]
 8006054:	4313      	orrs	r3, r2
 8006056:	617b      	str	r3, [r7, #20]
 8006058:	68fb      	ldr	r3, [r7, #12]
 800605a:	697a      	ldr	r2, [r7, #20]
 800605c:	609a      	str	r2, [r3, #8]
 800605e:	bf00      	nop
 8006060:	371c      	adds	r7, #28
 8006062:	46bd      	mov	sp, r7
 8006064:	bc80      	pop	{r7}
 8006066:	4770      	bx	lr

08006068 <HAL_TIMEx_MasterConfigSynchronization>:
 8006068:	b480      	push	{r7}
 800606a:	b085      	sub	sp, #20
 800606c:	af00      	add	r7, sp, #0
 800606e:	6078      	str	r0, [r7, #4]
 8006070:	6039      	str	r1, [r7, #0]
 8006072:	687b      	ldr	r3, [r7, #4]
 8006074:	f893 303c 	ldrb.w	r3, [r3, #60]	; 0x3c
 8006078:	2b01      	cmp	r3, #1
 800607a:	d101      	bne.n	8006080 <HAL_TIMEx_MasterConfigSynchronization+0x18>
 800607c:	2302      	movs	r3, #2
 800607e:	e032      	b.n	80060e6 <HAL_TIMEx_MasterConfigSynchronization+0x7e>
 8006080:	687b      	ldr	r3, [r7, #4]
 8006082:	2201      	movs	r2, #1
 8006084:	f883 203c 	strb.w	r2, [r3, #60]	; 0x3c
 8006088:	687b      	ldr	r3, [r7, #4]
 800608a:	2202      	movs	r2, #2
 800608c:	f883 203d 	strb.w	r2, [r3, #61]	; 0x3d
 8006090:	687b      	ldr	r3, [r7, #4]
 8006092:	681b      	ldr	r3, [r3, #0]
 8006094:	685b      	ldr	r3, [r3, #4]
 8006096:	60fb      	str	r3, [r7, #12]
 8006098:	687b      	ldr	r3, [r7, #4]
 800609a:	681b      	ldr	r3, [r3, #0]
 800609c:	689b      	ldr	r3, [r3, #8]
 800609e:	60bb      	str	r3, [r7, #8]
 80060a0:	68fb      	ldr	r3, [r7, #12]
 80060a2:	f023 0370 	bic.w	r3, r3, #112	; 0x70
 80060a6:	60fb      	str	r3, [r7, #12]
 80060a8:	683b      	ldr	r3, [r7, #0]
 80060aa:	681b      	ldr	r3, [r3, #0]
 80060ac:	68fa      	ldr	r2, [r7, #12]
 80060ae:	4313      	orrs	r3, r2
 80060b0:	60fb      	str	r3, [r7, #12]
 80060b2:	68bb      	ldr	r3, [r7, #8]
 80060b4:	f023 0380 	bic.w	r3, r3, #128	; 0x80
 80060b8:	60bb      	str	r3, [r7, #8]
 80060ba:	683b      	ldr	r3, [r7, #0]
 80060bc:	685b      	ldr	r3, [r3, #4]
 80060be:	68ba      	ldr	r2, [r7, #8]
 80060c0:	4313      	orrs	r3, r2
 80060c2:	60bb      	str	r3, [r7, #8]
 80060c4:	687b      	ldr	r3, [r7, #4]
 80060c6:	681b      	ldr	r3, [r3, #0]
 80060c8:	68fa      	ldr	r2, [r7, #12]
 80060ca:	605a      	str	r2, [r3, #4]
 80060cc:	687b      	ldr	r3, [r7, #4]
 80060ce:	681b      	ldr	r3, [r3, #0]
 80060d0:	68ba      	ldr	r2, [r7, #8]
 80060d2:	609a      	str	r2, [r3, #8]
 80060d4:	687b      	ldr	r3, [r7, #4]
 80060d6:	2201      	movs	r2, #1
 80060d8:	f883 203d 	strb.w	r2, [r3, #61]	; 0x3d
 80060dc:	687b      	ldr	r3, [r7, #4]
 80060de:	2200      	movs	r2, #0
 80060e0:	f883 203c 	strb.w	r2, [r3, #60]	; 0x3c
 80060e4:	2300      	movs	r3, #0
 80060e6:	4618      	mov	r0, r3
 80060e8:	3714      	adds	r7, #20
 80060ea:	46bd      	mov	sp, r7
 80060ec:	bc80      	pop	{r7}
 80060ee:	4770      	bx	lr

080060f0 <HAL_TIMEx_CommutCallback>:
 80060f0:	b480      	push	{r7}
 80060f2:	b083      	sub	sp, #12
 80060f4:	af00      	add	r7, sp, #0
 80060f6:	6078      	str	r0, [r7, #4]
 80060f8:	bf00      	nop
 80060fa:	370c      	adds	r7, #12
 80060fc:	46bd      	mov	sp, r7
 80060fe:	bc80      	pop	{r7}
 8006100:	4770      	bx	lr

08006102 <HAL_TIMEx_BreakCallback>:
 8006102:	b480      	push	{r7}
 8006104:	b083      	sub	sp, #12
 8006106:	af00      	add	r7, sp, #0
 8006108:	6078      	str	r0, [r7, #4]
 800610a:	bf00      	nop
 800610c:	370c      	adds	r7, #12
 800610e:	46bd      	mov	sp, r7
 8006110:	bc80      	pop	{r7}
 8006112:	4770      	bx	lr

08006114 <HAL_UART_Init>:
 8006114:	b580      	push	{r7, lr}
 8006116:	b082      	sub	sp, #8
 8006118:	af00      	add	r7, sp, #0
 800611a:	6078      	str	r0, [r7, #4]
 800611c:	687b      	ldr	r3, [r7, #4]
 800611e:	2b00      	cmp	r3, #0
 8006120:	d101      	bne.n	8006126 <HAL_UART_Init+0x12>
 8006122:	2301      	movs	r3, #1
 8006124:	e03f      	b.n	80061a6 <HAL_UART_Init+0x92>
 8006126:	687b      	ldr	r3, [r7, #4]
 8006128:	f893 3039 	ldrb.w	r3, [r3, #57]	; 0x39
 800612c:	b2db      	uxtb	r3, r3
 800612e:	2b00      	cmp	r3, #0
 8006130:	d106      	bne.n	8006140 <HAL_UART_Init+0x2c>
 8006132:	687b      	ldr	r3, [r7, #4]
 8006134:	2200      	movs	r2, #0
 8006136:	f883 2038 	strb.w	r2, [r3, #56]	; 0x38
 800613a:	6878      	ldr	r0, [r7, #4]
 800613c:	f7fc fd1a 	bl	8002b74 <HAL_UART_MspInit>
 8006140:	687b      	ldr	r3, [r7, #4]
 8006142:	2224      	movs	r2, #36	; 0x24
 8006144:	f883 2039 	strb.w	r2, [r3, #57]	; 0x39
 8006148:	687b      	ldr	r3, [r7, #4]
 800614a:	681b      	ldr	r3, [r3, #0]
 800614c:	68da      	ldr	r2, [r3, #12]
 800614e:	687b      	ldr	r3, [r7, #4]
 8006150:	681b      	ldr	r3, [r3, #0]
 8006152:	f422 5200 	bic.w	r2, r2, #8192	; 0x2000
 8006156:	60da      	str	r2, [r3, #12]
 8006158:	6878      	ldr	r0, [r7, #4]
 800615a:	f000 f829 	bl	80061b0 <UART_SetConfig>
 800615e:	687b      	ldr	r3, [r7, #4]
 8006160:	681b      	ldr	r3, [r3, #0]
 8006162:	691a      	ldr	r2, [r3, #16]
 8006164:	687b      	ldr	r3, [r7, #4]
 8006166:	681b      	ldr	r3, [r3, #0]
 8006168:	f422 4290 	bic.w	r2, r2, #18432	; 0x4800
 800616c:	611a      	str	r2, [r3, #16]
 800616e:	687b      	ldr	r3, [r7, #4]
 8006170:	681b      	ldr	r3, [r3, #0]
 8006172:	695a      	ldr	r2, [r3, #20]
 8006174:	687b      	ldr	r3, [r7, #4]
 8006176:	681b      	ldr	r3, [r3, #0]
 8006178:	f022 022a 	bic.w	r2, r2, #42	; 0x2a
 800617c:	615a      	str	r2, [r3, #20]
 800617e:	687b      	ldr	r3, [r7, #4]
 8006180:	681b      	ldr	r3, [r3, #0]
 8006182:	68da      	ldr	r2, [r3, #12]
 8006184:	687b      	ldr	r3, [r7, #4]
 8006186:	681b      	ldr	r3, [r3, #0]
 8006188:	f442 5200 	orr.w	r2, r2, #8192	; 0x2000
 800618c:	60da      	str	r2, [r3, #12]
 800618e:	687b      	ldr	r3, [r7, #4]
 8006190:	2200      	movs	r2, #0
 8006192:	63da      	str	r2, [r3, #60]	; 0x3c
 8006194:	687b      	ldr	r3, [r7, #4]
 8006196:	2220      	movs	r2, #32
 8006198:	f883 2039 	strb.w	r2, [r3, #57]	; 0x39
 800619c:	687b      	ldr	r3, [r7, #4]
 800619e:	2220      	movs	r2, #32
 80061a0:	f883 203a 	strb.w	r2, [r3, #58]	; 0x3a
 80061a4:	2300      	movs	r3, #0
 80061a6:	4618      	mov	r0, r3
 80061a8:	3708      	adds	r7, #8
 80061aa:	46bd      	mov	sp, r7
 80061ac:	bd80      	pop	{r7, pc}
	...

080061b0 <UART_SetConfig>:
 80061b0:	b580      	push	{r7, lr}
 80061b2:	b084      	sub	sp, #16
 80061b4:	af00      	add	r7, sp, #0
 80061b6:	6078      	str	r0, [r7, #4]
 80061b8:	687b      	ldr	r3, [r7, #4]
 80061ba:	681b      	ldr	r3, [r3, #0]
 80061bc:	691b      	ldr	r3, [r3, #16]
 80061be:	f423 5140 	bic.w	r1, r3, #12288	; 0x3000
 80061c2:	687b      	ldr	r3, [r7, #4]
 80061c4:	68da      	ldr	r2, [r3, #12]
 80061c6:	687b      	ldr	r3, [r7, #4]
 80061c8:	681b      	ldr	r3, [r3, #0]
 80061ca:	430a      	orrs	r2, r1
 80061cc:	611a      	str	r2, [r3, #16]
 80061ce:	687b      	ldr	r3, [r7, #4]
 80061d0:	689a      	ldr	r2, [r3, #8]
 80061d2:	687b      	ldr	r3, [r7, #4]
 80061d4:	691b      	ldr	r3, [r3, #16]
 80061d6:	431a      	orrs	r2, r3
 80061d8:	687b      	ldr	r3, [r7, #4]
 80061da:	695b      	ldr	r3, [r3, #20]
 80061dc:	4313      	orrs	r3, r2
 80061de:	60fb      	str	r3, [r7, #12]
 80061e0:	687b      	ldr	r3, [r7, #4]
 80061e2:	681b      	ldr	r3, [r3, #0]
 80061e4:	68db      	ldr	r3, [r3, #12]
 80061e6:	f423 53b0 	bic.w	r3, r3, #5632	; 0x1600
 80061ea:	f023 030c 	bic.w	r3, r3, #12
 80061ee:	687a      	ldr	r2, [r7, #4]
 80061f0:	6812      	ldr	r2, [r2, #0]
 80061f2:	68f9      	ldr	r1, [r7, #12]
 80061f4:	430b      	orrs	r3, r1
 80061f6:	60d3      	str	r3, [r2, #12]
 80061f8:	687b      	ldr	r3, [r7, #4]
 80061fa:	681b      	ldr	r3, [r3, #0]
 80061fc:	695b      	ldr	r3, [r3, #20]
 80061fe:	f423 7140 	bic.w	r1, r3, #768	; 0x300
 8006202:	687b      	ldr	r3, [r7, #4]
 8006204:	699a      	ldr	r2, [r3, #24]
 8006206:	687b      	ldr	r3, [r7, #4]
 8006208:	681b      	ldr	r3, [r3, #0]
 800620a:	430a      	orrs	r2, r1
 800620c:	615a      	str	r2, [r3, #20]
 800620e:	687b      	ldr	r3, [r7, #4]
 8006210:	681b      	ldr	r3, [r3, #0]
 8006212:	4a52      	ldr	r2, [pc, #328]	; (800635c <UART_SetConfig+0x1ac>)
 8006214:	4293      	cmp	r3, r2
 8006216:	d14e      	bne.n	80062b6 <UART_SetConfig+0x106>
 8006218:	f7fd fe48 	bl	8003eac <HAL_RCC_GetPCLK2Freq>
 800621c:	60b8      	str	r0, [r7, #8]
 800621e:	68ba      	ldr	r2, [r7, #8]
 8006220:	4613      	mov	r3, r2
 8006222:	009b      	lsls	r3, r3, #2
 8006224:	4413      	add	r3, r2
 8006226:	009a      	lsls	r2, r3, #2
 8006228:	441a      	add	r2, r3
 800622a:	687b      	ldr	r3, [r7, #4]
 800622c:	685b      	ldr	r3, [r3, #4]
 800622e:	009b      	lsls	r3, r3, #2
 8006230:	fbb2 f3f3 	udiv	r3, r2, r3
 8006234:	4a4a      	ldr	r2, [pc, #296]	; (8006360 <UART_SetConfig+0x1b0>)
 8006236:	fba2 2303 	umull	r2, r3, r2, r3
 800623a:	095b      	lsrs	r3, r3, #5
 800623c:	0119      	lsls	r1, r3, #4
 800623e:	68ba      	ldr	r2, [r7, #8]
 8006240:	4613      	mov	r3, r2
 8006242:	009b      	lsls	r3, r3, #2
 8006244:	4413      	add	r3, r2
 8006246:	009a      	lsls	r2, r3, #2
 8006248:	441a      	add	r2, r3
 800624a:	687b      	ldr	r3, [r7, #4]
 800624c:	685b      	ldr	r3, [r3, #4]
 800624e:	009b      	lsls	r3, r3, #2
 8006250:	fbb2 f2f3 	udiv	r2, r2, r3
 8006254:	4b42      	ldr	r3, [pc, #264]	; (8006360 <UART_SetConfig+0x1b0>)
 8006256:	fba3 0302 	umull	r0, r3, r3, r2
 800625a:	095b      	lsrs	r3, r3, #5
 800625c:	2064      	movs	r0, #100	; 0x64
 800625e:	fb00 f303 	mul.w	r3, r0, r3
 8006262:	1ad3      	subs	r3, r2, r3
 8006264:	011b      	lsls	r3, r3, #4
 8006266:	3332      	adds	r3, #50	; 0x32
 8006268:	4a3d      	ldr	r2, [pc, #244]	; (8006360 <UART_SetConfig+0x1b0>)
 800626a:	fba2 2303 	umull	r2, r3, r2, r3
 800626e:	095b      	lsrs	r3, r3, #5
 8006270:	f003 03f0 	and.w	r3, r3, #240	; 0xf0
 8006274:	4419      	add	r1, r3
 8006276:	68ba      	ldr	r2, [r7, #8]
 8006278:	4613      	mov	r3, r2
 800627a:	009b      	lsls	r3, r3, #2
 800627c:	4413      	add	r3, r2
 800627e:	009a      	lsls	r2, r3, #2
 8006280:	441a      	add	r2, r3
 8006282:	687b      	ldr	r3, [r7, #4]
 8006284:	685b      	ldr	r3, [r3, #4]
 8006286:	009b      	lsls	r3, r3, #2
 8006288:	fbb2 f2f3 	udiv	r2, r2, r3
 800628c:	4b34      	ldr	r3, [pc, #208]	; (8006360 <UART_SetConfig+0x1b0>)
 800628e:	fba3 0302 	umull	r0, r3, r3, r2
 8006292:	095b      	lsrs	r3, r3, #5
 8006294:	2064      	movs	r0, #100	; 0x64
 8006296:	fb00 f303 	mul.w	r3, r0, r3
 800629a:	1ad3      	subs	r3, r2, r3
 800629c:	011b      	lsls	r3, r3, #4
 800629e:	3332      	adds	r3, #50	; 0x32
 80062a0:	4a2f      	ldr	r2, [pc, #188]	; (8006360 <UART_SetConfig+0x1b0>)
 80062a2:	fba2 2303 	umull	r2, r3, r2, r3
 80062a6:	095b      	lsrs	r3, r3, #5
 80062a8:	f003 020f 	and.w	r2, r3, #15
 80062ac:	687b      	ldr	r3, [r7, #4]
 80062ae:	681b      	ldr	r3, [r3, #0]
 80062b0:	440a      	add	r2, r1
 80062b2:	609a      	str	r2, [r3, #8]
 80062b4:	e04d      	b.n	8006352 <UART_SetConfig+0x1a2>
 80062b6:	f7fd fde5 	bl	8003e84 <HAL_RCC_GetPCLK1Freq>
 80062ba:	60b8      	str	r0, [r7, #8]
 80062bc:	68ba      	ldr	r2, [r7, #8]
 80062be:	4613      	mov	r3, r2
 80062c0:	009b      	lsls	r3, r3, #2
 80062c2:	4413      	add	r3, r2
 80062c4:	009a      	lsls	r2, r3, #2
 80062c6:	441a      	add	r2, r3
 80062c8:	687b      	ldr	r3, [r7, #4]
 80062ca:	685b      	ldr	r3, [r3, #4]
 80062cc:	009b      	lsls	r3, r3, #2
 80062ce:	fbb2 f3f3 	udiv	r3, r2, r3
 80062d2:	4a23      	ldr	r2, [pc, #140]	; (8006360 <UART_SetConfig+0x1b0>)
 80062d4:	fba2 2303 	umull	r2, r3, r2, r3
 80062d8:	095b      	lsrs	r3, r3, #5
 80062da:	0119      	lsls	r1, r3, #4
 80062dc:	68ba      	ldr	r2, [r7, #8]
 80062de:	4613      	mov	r3, r2
 80062e0:	009b      	lsls	r3, r3, #2
 80062e2:	4413      	add	r3, r2
 80062e4:	009a      	lsls	r2, r3, #2
 80062e6:	441a      	add	r2, r3
 80062e8:	687b      	ldr	r3, [r7, #4]
 80062ea:	685b      	ldr	r3, [r3, #4]
 80062ec:	009b      	lsls	r3, r3, #2
 80062ee:	fbb2 f2f3 	udiv	r2, r2, r3
 80062f2:	4b1b      	ldr	r3, [pc, #108]	; (8006360 <UART_SetConfig+0x1b0>)
 80062f4:	fba3 0302 	umull	r0, r3, r3, r2
 80062f8:	095b      	lsrs	r3, r3, #5
 80062fa:	2064      	movs	r0, #100	; 0x64
 80062fc:	fb00 f303 	mul.w	r3, r0, r3
 8006300:	1ad3      	subs	r3, r2, r3
 8006302:	011b      	lsls	r3, r3, #4
 8006304:	3332      	adds	r3, #50	; 0x32
 8006306:	4a16      	ldr	r2, [pc, #88]	; (8006360 <UART_SetConfig+0x1b0>)
 8006308:	fba2 2303 	umull	r2, r3, r2, r3
 800630c:	095b      	lsrs	r3, r3, #5
 800630e:	f003 03f0 	and.w	r3, r3, #240	; 0xf0
 8006312:	4419      	add	r1, r3
 8006314:	68ba      	ldr	r2, [r7, #8]
 8006316:	4613      	mov	r3, r2
 8006318:	009b      	lsls	r3, r3, #2
 800631a:	4413      	add	r3, r2
 800631c:	009a      	lsls	r2, r3, #2
 800631e:	441a      	add	r2, r3
 8006320:	687b      	ldr	r3, [r7, #4]
 8006322:	685b      	ldr	r3, [r3, #4]
 8006324:	009b      	lsls	r3, r3, #2
 8006326:	fbb2 f2f3 	udiv	r2, r2, r3
 800632a:	4b0d      	ldr	r3, [pc, #52]	; (8006360 <UART_SetConfig+0x1b0>)
 800632c:	fba3 0302 	umull	r0, r3, r3, r2
 8006330:	095b      	lsrs	r3, r3, #5
 8006332:	2064      	movs	r0, #100	; 0x64
 8006334:	fb00 f303 	mul.w	r3, r0, r3
 8006338:	1ad3      	subs	r3, r2, r3
 800633a:	011b      	lsls	r3, r3, #4
 800633c:	3332      	adds	r3, #50	; 0x32
 800633e:	4a08      	ldr	r2, [pc, #32]	; (8006360 <UART_SetConfig+0x1b0>)
 8006340:	fba2 2303 	umull	r2, r3, r2, r3
 8006344:	095b      	lsrs	r3, r3, #5
 8006346:	f003 020f 	and.w	r2, r3, #15
 800634a:	687b      	ldr	r3, [r7, #4]
 800634c:	681b      	ldr	r3, [r3, #0]
 800634e:	440a      	add	r2, r1
 8006350:	609a      	str	r2, [r3, #8]
 8006352:	bf00      	nop
 8006354:	3710      	adds	r7, #16
 8006356:	46bd      	mov	sp, r7
 8006358:	bd80      	pop	{r7, pc}
 800635a:	bf00      	nop
 800635c:	40013800 	.word	0x40013800
 8006360:	51eb851f 	.word	0x51eb851f

08006364 <__errno>:
 8006364:	4b01      	ldr	r3, [pc, #4]	; (800636c <__errno+0x8>)
 8006366:	6818      	ldr	r0, [r3, #0]
 8006368:	4770      	bx	lr
 800636a:	bf00      	nop
 800636c:	20000094 	.word	0x20000094

08006370 <__libc_init_array>:
 8006370:	b570      	push	{r4, r5, r6, lr}
 8006372:	2500      	movs	r5, #0
 8006374:	4e0c      	ldr	r6, [pc, #48]	; (80063a8 <__libc_init_array+0x38>)
 8006376:	4c0d      	ldr	r4, [pc, #52]	; (80063ac <__libc_init_array+0x3c>)
 8006378:	1ba4      	subs	r4, r4, r6
 800637a:	10a4      	asrs	r4, r4, #2
 800637c:	42a5      	cmp	r5, r4
 800637e:	d109      	bne.n	8006394 <__libc_init_array+0x24>
 8006380:	f000 fc34 	bl	8006bec <_init>
 8006384:	2500      	movs	r5, #0
 8006386:	4e0a      	ldr	r6, [pc, #40]	; (80063b0 <__libc_init_array+0x40>)
 8006388:	4c0a      	ldr	r4, [pc, #40]	; (80063b4 <__libc_init_array+0x44>)
 800638a:	1ba4      	subs	r4, r4, r6
 800638c:	10a4      	asrs	r4, r4, #2
 800638e:	42a5      	cmp	r5, r4
 8006390:	d105      	bne.n	800639e <__libc_init_array+0x2e>
 8006392:	bd70      	pop	{r4, r5, r6, pc}
 8006394:	f856 3025 	ldr.w	r3, [r6, r5, lsl #2]
 8006398:	4798      	blx	r3
 800639a:	3501      	adds	r5, #1
 800639c:	e7ee      	b.n	800637c <__libc_init_array+0xc>
 800639e:	f856 3025 	ldr.w	r3, [r6, r5, lsl #2]
 80063a2:	4798      	blx	r3
 80063a4:	3501      	adds	r5, #1
 80063a6:	e7f2      	b.n	800638e <__libc_init_array+0x1e>
 80063a8:	08006e68 	.word	0x08006e68
 80063ac:	08006e68 	.word	0x08006e68
 80063b0:	08006e68 	.word	0x08006e68
 80063b4:	08006e6c 	.word	0x08006e6c

080063b8 <memset>:
 80063b8:	4603      	mov	r3, r0
 80063ba:	4402      	add	r2, r0
 80063bc:	4293      	cmp	r3, r2
 80063be:	d100      	bne.n	80063c2 <memset+0xa>
 80063c0:	4770      	bx	lr
 80063c2:	f803 1b01 	strb.w	r1, [r3], #1
 80063c6:	e7f9      	b.n	80063bc <memset+0x4>

080063c8 <siprintf>:
 80063c8:	b40e      	push	{r1, r2, r3}
 80063ca:	f06f 4100 	mvn.w	r1, #2147483648	; 0x80000000
 80063ce:	b500      	push	{lr}
 80063d0:	b09c      	sub	sp, #112	; 0x70
 80063d2:	ab1d      	add	r3, sp, #116	; 0x74
 80063d4:	9002      	str	r0, [sp, #8]
 80063d6:	9006      	str	r0, [sp, #24]
 80063d8:	9107      	str	r1, [sp, #28]
 80063da:	9104      	str	r1, [sp, #16]
 80063dc:	4808      	ldr	r0, [pc, #32]	; (8006400 <siprintf+0x38>)
 80063de:	4909      	ldr	r1, [pc, #36]	; (8006404 <siprintf+0x3c>)
 80063e0:	f853 2b04 	ldr.w	r2, [r3], #4
 80063e4:	9105      	str	r1, [sp, #20]
 80063e6:	6800      	ldr	r0, [r0, #0]
 80063e8:	a902      	add	r1, sp, #8
 80063ea:	9301      	str	r3, [sp, #4]
 80063ec:	f000 f866 	bl	80064bc <_svfiprintf_r>
 80063f0:	2200      	movs	r2, #0
 80063f2:	9b02      	ldr	r3, [sp, #8]
 80063f4:	701a      	strb	r2, [r3, #0]
 80063f6:	b01c      	add	sp, #112	; 0x70
 80063f8:	f85d eb04 	ldr.w	lr, [sp], #4
 80063fc:	b003      	add	sp, #12
 80063fe:	4770      	bx	lr
 8006400:	20000094 	.word	0x20000094
 8006404:	ffff0208 	.word	0xffff0208

08006408 <__ssputs_r>:
 8006408:	e92d 47f0 	stmdb	sp!, {r4, r5, r6, r7, r8, r9, sl, lr}
 800640c:	688e      	ldr	r6, [r1, #8]
 800640e:	4682      	mov	sl, r0
 8006410:	429e      	cmp	r6, r3
 8006412:	460c      	mov	r4, r1
 8006414:	4690      	mov	r8, r2
 8006416:	4699      	mov	r9, r3
 8006418:	d837      	bhi.n	800648a <__ssputs_r+0x82>
 800641a:	898a      	ldrh	r2, [r1, #12]
 800641c:	f412 6f90 	tst.w	r2, #1152	; 0x480
 8006420:	d031      	beq.n	8006486 <__ssputs_r+0x7e>
 8006422:	2302      	movs	r3, #2
 8006424:	6825      	ldr	r5, [r4, #0]
 8006426:	6909      	ldr	r1, [r1, #16]
 8006428:	1a6f      	subs	r7, r5, r1
 800642a:	6965      	ldr	r5, [r4, #20]
 800642c:	eb05 0545 	add.w	r5, r5, r5, lsl #1
 8006430:	fb95 f5f3 	sdiv	r5, r5, r3
 8006434:	f109 0301 	add.w	r3, r9, #1
 8006438:	443b      	add	r3, r7
 800643a:	429d      	cmp	r5, r3
 800643c:	bf38      	it	cc
 800643e:	461d      	movcc	r5, r3
 8006440:	0553      	lsls	r3, r2, #21
 8006442:	d530      	bpl.n	80064a6 <__ssputs_r+0x9e>
 8006444:	4629      	mov	r1, r5
 8006446:	f000 fb37 	bl	8006ab8 <_malloc_r>
 800644a:	4606      	mov	r6, r0
 800644c:	b950      	cbnz	r0, 8006464 <__ssputs_r+0x5c>
 800644e:	230c      	movs	r3, #12
 8006450:	f04f 30ff 	mov.w	r0, #4294967295
 8006454:	f8ca 3000 	str.w	r3, [sl]
 8006458:	89a3      	ldrh	r3, [r4, #12]
 800645a:	f043 0340 	orr.w	r3, r3, #64	; 0x40
 800645e:	81a3      	strh	r3, [r4, #12]
 8006460:	e8bd 87f0 	ldmia.w	sp!, {r4, r5, r6, r7, r8, r9, sl, pc}
 8006464:	463a      	mov	r2, r7
 8006466:	6921      	ldr	r1, [r4, #16]
 8006468:	f000 fab6 	bl	80069d8 <memcpy>
 800646c:	89a3      	ldrh	r3, [r4, #12]
 800646e:	f423 6390 	bic.w	r3, r3, #1152	; 0x480
 8006472:	f043 0380 	orr.w	r3, r3, #128	; 0x80
 8006476:	81a3      	strh	r3, [r4, #12]
 8006478:	6126      	str	r6, [r4, #16]
 800647a:	443e      	add	r6, r7
 800647c:	6026      	str	r6, [r4, #0]
 800647e:	464e      	mov	r6, r9
 8006480:	6165      	str	r5, [r4, #20]
 8006482:	1bed      	subs	r5, r5, r7
 8006484:	60a5      	str	r5, [r4, #8]
 8006486:	454e      	cmp	r6, r9
 8006488:	d900      	bls.n	800648c <__ssputs_r+0x84>
 800648a:	464e      	mov	r6, r9
 800648c:	4632      	mov	r2, r6
 800648e:	4641      	mov	r1, r8
 8006490:	6820      	ldr	r0, [r4, #0]
 8006492:	f000 faac 	bl	80069ee <memmove>
 8006496:	68a3      	ldr	r3, [r4, #8]
 8006498:	2000      	movs	r0, #0
 800649a:	1b9b      	subs	r3, r3, r6
 800649c:	60a3      	str	r3, [r4, #8]
 800649e:	6823      	ldr	r3, [r4, #0]
 80064a0:	441e      	add	r6, r3
 80064a2:	6026      	str	r6, [r4, #0]
 80064a4:	e7dc      	b.n	8006460 <__ssputs_r+0x58>
 80064a6:	462a      	mov	r2, r5
 80064a8:	f000 fb60 	bl	8006b6c <_realloc_r>
 80064ac:	4606      	mov	r6, r0
 80064ae:	2800      	cmp	r0, #0
 80064b0:	d1e2      	bne.n	8006478 <__ssputs_r+0x70>
 80064b2:	6921      	ldr	r1, [r4, #16]
 80064b4:	4650      	mov	r0, sl
 80064b6:	f000 fab3 	bl	8006a20 <_free_r>
 80064ba:	e7c8      	b.n	800644e <__ssputs_r+0x46>

080064bc <_svfiprintf_r>:
 80064bc:	e92d 4ff0 	stmdb	sp!, {r4, r5, r6, r7, r8, r9, sl, fp, lr}
 80064c0:	461d      	mov	r5, r3
 80064c2:	898b      	ldrh	r3, [r1, #12]
 80064c4:	b09d      	sub	sp, #116	; 0x74
 80064c6:	061f      	lsls	r7, r3, #24
 80064c8:	4680      	mov	r8, r0
 80064ca:	460c      	mov	r4, r1
 80064cc:	4616      	mov	r6, r2
 80064ce:	d50f      	bpl.n	80064f0 <_svfiprintf_r+0x34>
 80064d0:	690b      	ldr	r3, [r1, #16]
 80064d2:	b96b      	cbnz	r3, 80064f0 <_svfiprintf_r+0x34>
 80064d4:	2140      	movs	r1, #64	; 0x40
 80064d6:	f000 faef 	bl	8006ab8 <_malloc_r>
 80064da:	6020      	str	r0, [r4, #0]
 80064dc:	6120      	str	r0, [r4, #16]
 80064de:	b928      	cbnz	r0, 80064ec <_svfiprintf_r+0x30>
 80064e0:	230c      	movs	r3, #12
 80064e2:	f8c8 3000 	str.w	r3, [r8]
 80064e6:	f04f 30ff 	mov.w	r0, #4294967295
 80064ea:	e0c8      	b.n	800667e <_svfiprintf_r+0x1c2>
 80064ec:	2340      	movs	r3, #64	; 0x40
 80064ee:	6163      	str	r3, [r4, #20]
 80064f0:	2300      	movs	r3, #0
 80064f2:	9309      	str	r3, [sp, #36]	; 0x24
 80064f4:	2320      	movs	r3, #32
 80064f6:	f88d 3029 	strb.w	r3, [sp, #41]	; 0x29
 80064fa:	2330      	movs	r3, #48	; 0x30
 80064fc:	f04f 0b01 	mov.w	fp, #1
 8006500:	f88d 302a 	strb.w	r3, [sp, #42]	; 0x2a
 8006504:	9503      	str	r5, [sp, #12]
 8006506:	4637      	mov	r7, r6
 8006508:	463d      	mov	r5, r7
 800650a:	f815 3b01 	ldrb.w	r3, [r5], #1
 800650e:	b10b      	cbz	r3, 8006514 <_svfiprintf_r+0x58>
 8006510:	2b25      	cmp	r3, #37	; 0x25
 8006512:	d13e      	bne.n	8006592 <_svfiprintf_r+0xd6>
 8006514:	ebb7 0a06 	subs.w	sl, r7, r6
 8006518:	d00b      	beq.n	8006532 <_svfiprintf_r+0x76>
 800651a:	4653      	mov	r3, sl
 800651c:	4632      	mov	r2, r6
 800651e:	4621      	mov	r1, r4
 8006520:	4640      	mov	r0, r8
 8006522:	f7ff ff71 	bl	8006408 <__ssputs_r>
 8006526:	3001      	adds	r0, #1
 8006528:	f000 80a4 	beq.w	8006674 <_svfiprintf_r+0x1b8>
 800652c:	9b09      	ldr	r3, [sp, #36]	; 0x24
 800652e:	4453      	add	r3, sl
 8006530:	9309      	str	r3, [sp, #36]	; 0x24
 8006532:	783b      	ldrb	r3, [r7, #0]
 8006534:	2b00      	cmp	r3, #0
 8006536:	f000 809d 	beq.w	8006674 <_svfiprintf_r+0x1b8>
 800653a:	2300      	movs	r3, #0
 800653c:	f04f 32ff 	mov.w	r2, #4294967295
 8006540:	e9cd 2305 	strd	r2, r3, [sp, #20]
 8006544:	9304      	str	r3, [sp, #16]
 8006546:	9307      	str	r3, [sp, #28]
 8006548:	f88d 3053 	strb.w	r3, [sp, #83]	; 0x53
 800654c:	931a      	str	r3, [sp, #104]	; 0x68
 800654e:	462f      	mov	r7, r5
 8006550:	2205      	movs	r2, #5
 8006552:	f817 1b01 	ldrb.w	r1, [r7], #1
 8006556:	4850      	ldr	r0, [pc, #320]	; (8006698 <_svfiprintf_r+0x1dc>)
 8006558:	f000 fa30 	bl	80069bc <memchr>
 800655c:	9b04      	ldr	r3, [sp, #16]
 800655e:	b9d0      	cbnz	r0, 8006596 <_svfiprintf_r+0xda>
 8006560:	06d9      	lsls	r1, r3, #27
 8006562:	bf44      	itt	mi
 8006564:	2220      	movmi	r2, #32
 8006566:	f88d 2053 	strbmi.w	r2, [sp, #83]	; 0x53
 800656a:	071a      	lsls	r2, r3, #28
 800656c:	bf44      	itt	mi
 800656e:	222b      	movmi	r2, #43	; 0x2b
 8006570:	f88d 2053 	strbmi.w	r2, [sp, #83]	; 0x53
 8006574:	782a      	ldrb	r2, [r5, #0]
 8006576:	2a2a      	cmp	r2, #42	; 0x2a
 8006578:	d015      	beq.n	80065a6 <_svfiprintf_r+0xea>
 800657a:	462f      	mov	r7, r5
 800657c:	2000      	movs	r0, #0
 800657e:	250a      	movs	r5, #10
 8006580:	9a07      	ldr	r2, [sp, #28]
 8006582:	4639      	mov	r1, r7
 8006584:	f811 3b01 	ldrb.w	r3, [r1], #1
 8006588:	3b30      	subs	r3, #48	; 0x30
 800658a:	2b09      	cmp	r3, #9
 800658c:	d94d      	bls.n	800662a <_svfiprintf_r+0x16e>
 800658e:	b1b8      	cbz	r0, 80065c0 <_svfiprintf_r+0x104>
 8006590:	e00f      	b.n	80065b2 <_svfiprintf_r+0xf6>
 8006592:	462f      	mov	r7, r5
 8006594:	e7b8      	b.n	8006508 <_svfiprintf_r+0x4c>
 8006596:	4a40      	ldr	r2, [pc, #256]	; (8006698 <_svfiprintf_r+0x1dc>)
 8006598:	463d      	mov	r5, r7
 800659a:	1a80      	subs	r0, r0, r2
 800659c:	fa0b f000 	lsl.w	r0, fp, r0
 80065a0:	4318      	orrs	r0, r3
 80065a2:	9004      	str	r0, [sp, #16]
 80065a4:	e7d3      	b.n	800654e <_svfiprintf_r+0x92>
 80065a6:	9a03      	ldr	r2, [sp, #12]
 80065a8:	1d11      	adds	r1, r2, #4
 80065aa:	6812      	ldr	r2, [r2, #0]
 80065ac:	9103      	str	r1, [sp, #12]
 80065ae:	2a00      	cmp	r2, #0
 80065b0:	db01      	blt.n	80065b6 <_svfiprintf_r+0xfa>
 80065b2:	9207      	str	r2, [sp, #28]
 80065b4:	e004      	b.n	80065c0 <_svfiprintf_r+0x104>
 80065b6:	4252      	negs	r2, r2
 80065b8:	f043 0302 	orr.w	r3, r3, #2
 80065bc:	9207      	str	r2, [sp, #28]
 80065be:	9304      	str	r3, [sp, #16]
 80065c0:	783b      	ldrb	r3, [r7, #0]
 80065c2:	2b2e      	cmp	r3, #46	; 0x2e
 80065c4:	d10c      	bne.n	80065e0 <_svfiprintf_r+0x124>
 80065c6:	787b      	ldrb	r3, [r7, #1]
 80065c8:	2b2a      	cmp	r3, #42	; 0x2a
 80065ca:	d133      	bne.n	8006634 <_svfiprintf_r+0x178>
 80065cc:	9b03      	ldr	r3, [sp, #12]
 80065ce:	3702      	adds	r7, #2
 80065d0:	1d1a      	adds	r2, r3, #4
 80065d2:	681b      	ldr	r3, [r3, #0]
 80065d4:	9203      	str	r2, [sp, #12]
 80065d6:	2b00      	cmp	r3, #0
 80065d8:	bfb8      	it	lt
 80065da:	f04f 33ff 	movlt.w	r3, #4294967295
 80065de:	9305      	str	r3, [sp, #20]
 80065e0:	4d2e      	ldr	r5, [pc, #184]	; (800669c <_svfiprintf_r+0x1e0>)
 80065e2:	2203      	movs	r2, #3
 80065e4:	7839      	ldrb	r1, [r7, #0]
 80065e6:	4628      	mov	r0, r5
 80065e8:	f000 f9e8 	bl	80069bc <memchr>
 80065ec:	b138      	cbz	r0, 80065fe <_svfiprintf_r+0x142>
 80065ee:	2340      	movs	r3, #64	; 0x40
 80065f0:	1b40      	subs	r0, r0, r5
 80065f2:	fa03 f000 	lsl.w	r0, r3, r0
 80065f6:	9b04      	ldr	r3, [sp, #16]
 80065f8:	3701      	adds	r7, #1
 80065fa:	4303      	orrs	r3, r0
 80065fc:	9304      	str	r3, [sp, #16]
 80065fe:	7839      	ldrb	r1, [r7, #0]
 8006600:	2206      	movs	r2, #6
 8006602:	4827      	ldr	r0, [pc, #156]	; (80066a0 <_svfiprintf_r+0x1e4>)
 8006604:	1c7e      	adds	r6, r7, #1
 8006606:	f88d 1028 	strb.w	r1, [sp, #40]	; 0x28
 800660a:	f000 f9d7 	bl	80069bc <memchr>
 800660e:	2800      	cmp	r0, #0
 8006610:	d038      	beq.n	8006684 <_svfiprintf_r+0x1c8>
 8006612:	4b24      	ldr	r3, [pc, #144]	; (80066a4 <_svfiprintf_r+0x1e8>)
 8006614:	bb13      	cbnz	r3, 800665c <_svfiprintf_r+0x1a0>
 8006616:	9b03      	ldr	r3, [sp, #12]
 8006618:	3307      	adds	r3, #7
 800661a:	f023 0307 	bic.w	r3, r3, #7
 800661e:	3308      	adds	r3, #8
 8006620:	9303      	str	r3, [sp, #12]
 8006622:	9b09      	ldr	r3, [sp, #36]	; 0x24
 8006624:	444b      	add	r3, r9
 8006626:	9309      	str	r3, [sp, #36]	; 0x24
 8006628:	e76d      	b.n	8006506 <_svfiprintf_r+0x4a>
 800662a:	fb05 3202 	mla	r2, r5, r2, r3
 800662e:	2001      	movs	r0, #1
 8006630:	460f      	mov	r7, r1
 8006632:	e7a6      	b.n	8006582 <_svfiprintf_r+0xc6>
 8006634:	2300      	movs	r3, #0
 8006636:	250a      	movs	r5, #10
 8006638:	4619      	mov	r1, r3
 800663a:	3701      	adds	r7, #1
 800663c:	9305      	str	r3, [sp, #20]
 800663e:	4638      	mov	r0, r7
 8006640:	f810 2b01 	ldrb.w	r2, [r0], #1
 8006644:	3a30      	subs	r2, #48	; 0x30
 8006646:	2a09      	cmp	r2, #9
 8006648:	d903      	bls.n	8006652 <_svfiprintf_r+0x196>
 800664a:	2b00      	cmp	r3, #0
 800664c:	d0c8      	beq.n	80065e0 <_svfiprintf_r+0x124>
 800664e:	9105      	str	r1, [sp, #20]
 8006650:	e7c6      	b.n	80065e0 <_svfiprintf_r+0x124>
 8006652:	fb05 2101 	mla	r1, r5, r1, r2
 8006656:	2301      	movs	r3, #1
 8006658:	4607      	mov	r7, r0
 800665a:	e7f0      	b.n	800663e <_svfiprintf_r+0x182>
 800665c:	ab03      	add	r3, sp, #12
 800665e:	9300      	str	r3, [sp, #0]
 8006660:	4622      	mov	r2, r4
 8006662:	4b11      	ldr	r3, [pc, #68]	; (80066a8 <_svfiprintf_r+0x1ec>)
 8006664:	a904      	add	r1, sp, #16
 8006666:	4640      	mov	r0, r8
 8006668:	f3af 8000 	nop.w
 800666c:	f1b0 3fff 	cmp.w	r0, #4294967295
 8006670:	4681      	mov	r9, r0
 8006672:	d1d6      	bne.n	8006622 <_svfiprintf_r+0x166>
 8006674:	89a3      	ldrh	r3, [r4, #12]
 8006676:	065b      	lsls	r3, r3, #25
 8006678:	f53f af35 	bmi.w	80064e6 <_svfiprintf_r+0x2a>
 800667c:	9809      	ldr	r0, [sp, #36]	; 0x24
 800667e:	b01d      	add	sp, #116	; 0x74
 8006680:	e8bd 8ff0 	ldmia.w	sp!, {r4, r5, r6, r7, r8, r9, sl, fp, pc}
 8006684:	ab03      	add	r3, sp, #12
 8006686:	9300      	str	r3, [sp, #0]
 8006688:	4622      	mov	r2, r4
 800668a:	4b07      	ldr	r3, [pc, #28]	; (80066a8 <_svfiprintf_r+0x1ec>)
 800668c:	a904      	add	r1, sp, #16
 800668e:	4640      	mov	r0, r8
 8006690:	f000 f882 	bl	8006798 <_printf_i>
 8006694:	e7ea      	b.n	800666c <_svfiprintf_r+0x1b0>
 8006696:	bf00      	nop
 8006698:	08006e34 	.word	0x08006e34
 800669c:	08006e3a 	.word	0x08006e3a
 80066a0:	08006e3e 	.word	0x08006e3e
 80066a4:	00000000 	.word	0x00000000
 80066a8:	08006409 	.word	0x08006409

080066ac <_printf_common>:
 80066ac:	e92d 47f0 	stmdb	sp!, {r4, r5, r6, r7, r8, r9, sl, lr}
 80066b0:	4691      	mov	r9, r2
 80066b2:	461f      	mov	r7, r3
 80066b4:	688a      	ldr	r2, [r1, #8]
 80066b6:	690b      	ldr	r3, [r1, #16]
 80066b8:	4606      	mov	r6, r0
 80066ba:	4293      	cmp	r3, r2
 80066bc:	bfb8      	it	lt
 80066be:	4613      	movlt	r3, r2
 80066c0:	f8c9 3000 	str.w	r3, [r9]
 80066c4:	f891 2043 	ldrb.w	r2, [r1, #67]	; 0x43
 80066c8:	460c      	mov	r4, r1
 80066ca:	f8dd 8020 	ldr.w	r8, [sp, #32]
 80066ce:	b112      	cbz	r2, 80066d6 <_printf_common+0x2a>
 80066d0:	3301      	adds	r3, #1
 80066d2:	f8c9 3000 	str.w	r3, [r9]
 80066d6:	6823      	ldr	r3, [r4, #0]
 80066d8:	0699      	lsls	r1, r3, #26
 80066da:	bf42      	ittt	mi
 80066dc:	f8d9 3000 	ldrmi.w	r3, [r9]
 80066e0:	3302      	addmi	r3, #2
 80066e2:	f8c9 3000 	strmi.w	r3, [r9]
 80066e6:	6825      	ldr	r5, [r4, #0]
 80066e8:	f015 0506 	ands.w	r5, r5, #6
 80066ec:	d107      	bne.n	80066fe <_printf_common+0x52>
 80066ee:	f104 0a19 	add.w	sl, r4, #25
 80066f2:	68e3      	ldr	r3, [r4, #12]
 80066f4:	f8d9 2000 	ldr.w	r2, [r9]
 80066f8:	1a9b      	subs	r3, r3, r2
 80066fa:	42ab      	cmp	r3, r5
 80066fc:	dc29      	bgt.n	8006752 <_printf_common+0xa6>
 80066fe:	f894 3043 	ldrb.w	r3, [r4, #67]	; 0x43
 8006702:	6822      	ldr	r2, [r4, #0]
 8006704:	3300      	adds	r3, #0
 8006706:	bf18      	it	ne
 8006708:	2301      	movne	r3, #1
 800670a:	0692      	lsls	r2, r2, #26
 800670c:	d42e      	bmi.n	800676c <_printf_common+0xc0>
 800670e:	f104 0243 	add.w	r2, r4, #67	; 0x43
 8006712:	4639      	mov	r1, r7
 8006714:	4630      	mov	r0, r6
 8006716:	47c0      	blx	r8
 8006718:	3001      	adds	r0, #1
 800671a:	d021      	beq.n	8006760 <_printf_common+0xb4>
 800671c:	6823      	ldr	r3, [r4, #0]
 800671e:	68e5      	ldr	r5, [r4, #12]
 8006720:	f003 0306 	and.w	r3, r3, #6
 8006724:	2b04      	cmp	r3, #4
 8006726:	bf18      	it	ne
 8006728:	2500      	movne	r5, #0
 800672a:	f8d9 2000 	ldr.w	r2, [r9]
 800672e:	f04f 0900 	mov.w	r9, #0
 8006732:	bf08      	it	eq
 8006734:	1aad      	subeq	r5, r5, r2
 8006736:	68a3      	ldr	r3, [r4, #8]
 8006738:	6922      	ldr	r2, [r4, #16]
 800673a:	bf08      	it	eq
 800673c:	ea25 75e5 	biceq.w	r5, r5, r5, asr #31
 8006740:	4293      	cmp	r3, r2
 8006742:	bfc4      	itt	gt
 8006744:	1a9b      	subgt	r3, r3, r2
 8006746:	18ed      	addgt	r5, r5, r3
 8006748:	341a      	adds	r4, #26
 800674a:	454d      	cmp	r5, r9
 800674c:	d11a      	bne.n	8006784 <_printf_common+0xd8>
 800674e:	2000      	movs	r0, #0
 8006750:	e008      	b.n	8006764 <_printf_common+0xb8>
 8006752:	2301      	movs	r3, #1
 8006754:	4652      	mov	r2, sl
 8006756:	4639      	mov	r1, r7
 8006758:	4630      	mov	r0, r6
 800675a:	47c0      	blx	r8
 800675c:	3001      	adds	r0, #1
 800675e:	d103      	bne.n	8006768 <_printf_common+0xbc>
 8006760:	f04f 30ff 	mov.w	r0, #4294967295
 8006764:	e8bd 87f0 	ldmia.w	sp!, {r4, r5, r6, r7, r8, r9, sl, pc}
 8006768:	3501      	adds	r5, #1
 800676a:	e7c2      	b.n	80066f2 <_printf_common+0x46>
 800676c:	2030      	movs	r0, #48	; 0x30
 800676e:	18e1      	adds	r1, r4, r3
 8006770:	f881 0043 	strb.w	r0, [r1, #67]	; 0x43
 8006774:	1c5a      	adds	r2, r3, #1
 8006776:	f894 1045 	ldrb.w	r1, [r4, #69]	; 0x45
 800677a:	4422      	add	r2, r4
 800677c:	3302      	adds	r3, #2
 800677e:	f882 1043 	strb.w	r1, [r2, #67]	; 0x43
 8006782:	e7c4      	b.n	800670e <_printf_common+0x62>
 8006784:	2301      	movs	r3, #1
 8006786:	4622      	mov	r2, r4
 8006788:	4639      	mov	r1, r7
 800678a:	4630      	mov	r0, r6
 800678c:	47c0      	blx	r8
 800678e:	3001      	adds	r0, #1
 8006790:	d0e6      	beq.n	8006760 <_printf_common+0xb4>
 8006792:	f109 0901 	add.w	r9, r9, #1
 8006796:	e7d8      	b.n	800674a <_printf_common+0x9e>

08006798 <_printf_i>:
 8006798:	e92d 43f0 	stmdb	sp!, {r4, r5, r6, r7, r8, r9, lr}
 800679c:	f101 0c43 	add.w	ip, r1, #67	; 0x43
 80067a0:	460c      	mov	r4, r1
 80067a2:	7e09      	ldrb	r1, [r1, #24]
 80067a4:	b085      	sub	sp, #20
 80067a6:	296e      	cmp	r1, #110	; 0x6e
 80067a8:	4617      	mov	r7, r2
 80067aa:	4606      	mov	r6, r0
 80067ac:	4698      	mov	r8, r3
 80067ae:	9a0c      	ldr	r2, [sp, #48]	; 0x30
 80067b0:	f000 80b3 	beq.w	800691a <_printf_i+0x182>
 80067b4:	d822      	bhi.n	80067fc <_printf_i+0x64>
 80067b6:	2963      	cmp	r1, #99	; 0x63
 80067b8:	d036      	beq.n	8006828 <_printf_i+0x90>
 80067ba:	d80a      	bhi.n	80067d2 <_printf_i+0x3a>
 80067bc:	2900      	cmp	r1, #0
 80067be:	f000 80b9 	beq.w	8006934 <_printf_i+0x19c>
 80067c2:	2958      	cmp	r1, #88	; 0x58
 80067c4:	f000 8083 	beq.w	80068ce <_printf_i+0x136>
 80067c8:	f104 0542 	add.w	r5, r4, #66	; 0x42
 80067cc:	f884 1042 	strb.w	r1, [r4, #66]	; 0x42
 80067d0:	e032      	b.n	8006838 <_printf_i+0xa0>
 80067d2:	2964      	cmp	r1, #100	; 0x64
 80067d4:	d001      	beq.n	80067da <_printf_i+0x42>
 80067d6:	2969      	cmp	r1, #105	; 0x69
 80067d8:	d1f6      	bne.n	80067c8 <_printf_i+0x30>
 80067da:	6820      	ldr	r0, [r4, #0]
 80067dc:	6813      	ldr	r3, [r2, #0]
 80067de:	0605      	lsls	r5, r0, #24
 80067e0:	f103 0104 	add.w	r1, r3, #4
 80067e4:	d52a      	bpl.n	800683c <_printf_i+0xa4>
 80067e6:	681b      	ldr	r3, [r3, #0]
 80067e8:	6011      	str	r1, [r2, #0]
 80067ea:	2b00      	cmp	r3, #0
 80067ec:	da03      	bge.n	80067f6 <_printf_i+0x5e>
 80067ee:	222d      	movs	r2, #45	; 0x2d
 80067f0:	425b      	negs	r3, r3
 80067f2:	f884 2043 	strb.w	r2, [r4, #67]	; 0x43
 80067f6:	486f      	ldr	r0, [pc, #444]	; (80069b4 <_printf_i+0x21c>)
 80067f8:	220a      	movs	r2, #10
 80067fa:	e039      	b.n	8006870 <_printf_i+0xd8>
 80067fc:	2973      	cmp	r1, #115	; 0x73
 80067fe:	f000 809d 	beq.w	800693c <_printf_i+0x1a4>
 8006802:	d808      	bhi.n	8006816 <_printf_i+0x7e>
 8006804:	296f      	cmp	r1, #111	; 0x6f
 8006806:	d020      	beq.n	800684a <_printf_i+0xb2>
 8006808:	2970      	cmp	r1, #112	; 0x70
 800680a:	d1dd      	bne.n	80067c8 <_printf_i+0x30>
 800680c:	6823      	ldr	r3, [r4, #0]
 800680e:	f043 0320 	orr.w	r3, r3, #32
 8006812:	6023      	str	r3, [r4, #0]
 8006814:	e003      	b.n	800681e <_printf_i+0x86>
 8006816:	2975      	cmp	r1, #117	; 0x75
 8006818:	d017      	beq.n	800684a <_printf_i+0xb2>
 800681a:	2978      	cmp	r1, #120	; 0x78
 800681c:	d1d4      	bne.n	80067c8 <_printf_i+0x30>
 800681e:	2378      	movs	r3, #120	; 0x78
 8006820:	4865      	ldr	r0, [pc, #404]	; (80069b8 <_printf_i+0x220>)
 8006822:	f884 3045 	strb.w	r3, [r4, #69]	; 0x45
 8006826:	e055      	b.n	80068d4 <_printf_i+0x13c>
 8006828:	6813      	ldr	r3, [r2, #0]
 800682a:	f104 0542 	add.w	r5, r4, #66	; 0x42
 800682e:	1d19      	adds	r1, r3, #4
 8006830:	681b      	ldr	r3, [r3, #0]
 8006832:	6011      	str	r1, [r2, #0]
 8006834:	f884 3042 	strb.w	r3, [r4, #66]	; 0x42
 8006838:	2301      	movs	r3, #1
 800683a:	e08c      	b.n	8006956 <_printf_i+0x1be>
 800683c:	681b      	ldr	r3, [r3, #0]
 800683e:	f010 0f40 	tst.w	r0, #64	; 0x40
 8006842:	6011      	str	r1, [r2, #0]
 8006844:	bf18      	it	ne
 8006846:	b21b      	sxthne	r3, r3
 8006848:	e7cf      	b.n	80067ea <_printf_i+0x52>
 800684a:	6813      	ldr	r3, [r2, #0]
 800684c:	6825      	ldr	r5, [r4, #0]
 800684e:	1d18      	adds	r0, r3, #4
 8006850:	6010      	str	r0, [r2, #0]
 8006852:	0628      	lsls	r0, r5, #24
 8006854:	d501      	bpl.n	800685a <_printf_i+0xc2>
 8006856:	681b      	ldr	r3, [r3, #0]
 8006858:	e002      	b.n	8006860 <_printf_i+0xc8>
 800685a:	0668      	lsls	r0, r5, #25
 800685c:	d5fb      	bpl.n	8006856 <_printf_i+0xbe>
 800685e:	881b      	ldrh	r3, [r3, #0]
 8006860:	296f      	cmp	r1, #111	; 0x6f
 8006862:	bf14      	ite	ne
 8006864:	220a      	movne	r2, #10
 8006866:	2208      	moveq	r2, #8
 8006868:	4852      	ldr	r0, [pc, #328]	; (80069b4 <_printf_i+0x21c>)
 800686a:	2100      	movs	r1, #0
 800686c:	f884 1043 	strb.w	r1, [r4, #67]	; 0x43
 8006870:	6865      	ldr	r5, [r4, #4]
 8006872:	2d00      	cmp	r5, #0
 8006874:	60a5      	str	r5, [r4, #8]
 8006876:	f2c0 8095 	blt.w	80069a4 <_printf_i+0x20c>
 800687a:	6821      	ldr	r1, [r4, #0]
 800687c:	f021 0104 	bic.w	r1, r1, #4
 8006880:	6021      	str	r1, [r4, #0]
 8006882:	2b00      	cmp	r3, #0
 8006884:	d13d      	bne.n	8006902 <_printf_i+0x16a>
 8006886:	2d00      	cmp	r5, #0
 8006888:	f040 808e 	bne.w	80069a8 <_printf_i+0x210>
 800688c:	4665      	mov	r5, ip
 800688e:	2a08      	cmp	r2, #8
 8006890:	d10b      	bne.n	80068aa <_printf_i+0x112>
 8006892:	6823      	ldr	r3, [r4, #0]
 8006894:	07db      	lsls	r3, r3, #31
 8006896:	d508      	bpl.n	80068aa <_printf_i+0x112>
 8006898:	6923      	ldr	r3, [r4, #16]
 800689a:	6862      	ldr	r2, [r4, #4]
 800689c:	429a      	cmp	r2, r3
 800689e:	bfde      	ittt	le
 80068a0:	2330      	movle	r3, #48	; 0x30
 80068a2:	f805 3c01 	strble.w	r3, [r5, #-1]
 80068a6:	f105 35ff 	addle.w	r5, r5, #4294967295
 80068aa:	ebac 0305 	sub.w	r3, ip, r5
 80068ae:	6123      	str	r3, [r4, #16]
 80068b0:	f8cd 8000 	str.w	r8, [sp]
 80068b4:	463b      	mov	r3, r7
 80068b6:	aa03      	add	r2, sp, #12
 80068b8:	4621      	mov	r1, r4
 80068ba:	4630      	mov	r0, r6
 80068bc:	f7ff fef6 	bl	80066ac <_printf_common>
 80068c0:	3001      	adds	r0, #1
 80068c2:	d14d      	bne.n	8006960 <_printf_i+0x1c8>
 80068c4:	f04f 30ff 	mov.w	r0, #4294967295
 80068c8:	b005      	add	sp, #20
 80068ca:	e8bd 83f0 	ldmia.w	sp!, {r4, r5, r6, r7, r8, r9, pc}
 80068ce:	4839      	ldr	r0, [pc, #228]	; (80069b4 <_printf_i+0x21c>)
 80068d0:	f884 1045 	strb.w	r1, [r4, #69]	; 0x45
 80068d4:	6813      	ldr	r3, [r2, #0]
 80068d6:	6821      	ldr	r1, [r4, #0]
 80068d8:	1d1d      	adds	r5, r3, #4
 80068da:	681b      	ldr	r3, [r3, #0]
 80068dc:	6015      	str	r5, [r2, #0]
 80068de:	060a      	lsls	r2, r1, #24
 80068e0:	d50b      	bpl.n	80068fa <_printf_i+0x162>
 80068e2:	07ca      	lsls	r2, r1, #31
 80068e4:	bf44      	itt	mi
 80068e6:	f041 0120 	orrmi.w	r1, r1, #32
 80068ea:	6021      	strmi	r1, [r4, #0]
 80068ec:	b91b      	cbnz	r3, 80068f6 <_printf_i+0x15e>
 80068ee:	6822      	ldr	r2, [r4, #0]
 80068f0:	f022 0220 	bic.w	r2, r2, #32
 80068f4:	6022      	str	r2, [r4, #0]
 80068f6:	2210      	movs	r2, #16
 80068f8:	e7b7      	b.n	800686a <_printf_i+0xd2>
 80068fa:	064d      	lsls	r5, r1, #25
 80068fc:	bf48      	it	mi
 80068fe:	b29b      	uxthmi	r3, r3
 8006900:	e7ef      	b.n	80068e2 <_printf_i+0x14a>
 8006902:	4665      	mov	r5, ip
 8006904:	fbb3 f1f2 	udiv	r1, r3, r2
 8006908:	fb02 3311 	mls	r3, r2, r1, r3
 800690c:	5cc3      	ldrb	r3, [r0, r3]
 800690e:	f805 3d01 	strb.w	r3, [r5, #-1]!
 8006912:	460b      	mov	r3, r1
 8006914:	2900      	cmp	r1, #0
 8006916:	d1f5      	bne.n	8006904 <_printf_i+0x16c>
 8006918:	e7b9      	b.n	800688e <_printf_i+0xf6>
 800691a:	6813      	ldr	r3, [r2, #0]
 800691c:	6825      	ldr	r5, [r4, #0]
 800691e:	1d18      	adds	r0, r3, #4
 8006920:	6961      	ldr	r1, [r4, #20]
 8006922:	6010      	str	r0, [r2, #0]
 8006924:	0628      	lsls	r0, r5, #24
 8006926:	681b      	ldr	r3, [r3, #0]
 8006928:	d501      	bpl.n	800692e <_printf_i+0x196>
 800692a:	6019      	str	r1, [r3, #0]
 800692c:	e002      	b.n	8006934 <_printf_i+0x19c>
 800692e:	066a      	lsls	r2, r5, #25
 8006930:	d5fb      	bpl.n	800692a <_printf_i+0x192>
 8006932:	8019      	strh	r1, [r3, #0]
 8006934:	2300      	movs	r3, #0
 8006936:	4665      	mov	r5, ip
 8006938:	6123      	str	r3, [r4, #16]
 800693a:	e7b9      	b.n	80068b0 <_printf_i+0x118>
 800693c:	6813      	ldr	r3, [r2, #0]
 800693e:	1d19      	adds	r1, r3, #4
 8006940:	6011      	str	r1, [r2, #0]
 8006942:	681d      	ldr	r5, [r3, #0]
 8006944:	6862      	ldr	r2, [r4, #4]
 8006946:	2100      	movs	r1, #0
 8006948:	4628      	mov	r0, r5
 800694a:	f000 f837 	bl	80069bc <memchr>
 800694e:	b108      	cbz	r0, 8006954 <_printf_i+0x1bc>
 8006950:	1b40      	subs	r0, r0, r5
 8006952:	6060      	str	r0, [r4, #4]
 8006954:	6863      	ldr	r3, [r4, #4]
 8006956:	6123      	str	r3, [r4, #16]
 8006958:	2300      	movs	r3, #0
 800695a:	f884 3043 	strb.w	r3, [r4, #67]	; 0x43
 800695e:	e7a7      	b.n	80068b0 <_printf_i+0x118>
 8006960:	6923      	ldr	r3, [r4, #16]
 8006962:	462a      	mov	r2, r5
 8006964:	4639      	mov	r1, r7
 8006966:	4630      	mov	r0, r6
 8006968:	47c0      	blx	r8
 800696a:	3001      	adds	r0, #1
 800696c:	d0aa      	beq.n	80068c4 <_printf_i+0x12c>
 800696e:	6823      	ldr	r3, [r4, #0]
 8006970:	079b      	lsls	r3, r3, #30
 8006972:	d413      	bmi.n	800699c <_printf_i+0x204>
 8006974:	68e0      	ldr	r0, [r4, #12]
 8006976:	9b03      	ldr	r3, [sp, #12]
 8006978:	4298      	cmp	r0, r3
 800697a:	bfb8      	it	lt
 800697c:	4618      	movlt	r0, r3
 800697e:	e7a3      	b.n	80068c8 <_printf_i+0x130>
 8006980:	2301      	movs	r3, #1
 8006982:	464a      	mov	r2, r9
 8006984:	4639      	mov	r1, r7
 8006986:	4630      	mov	r0, r6
 8006988:	47c0      	blx	r8
 800698a:	3001      	adds	r0, #1
 800698c:	d09a      	beq.n	80068c4 <_printf_i+0x12c>
 800698e:	3501      	adds	r5, #1
 8006990:	68e3      	ldr	r3, [r4, #12]
 8006992:	9a03      	ldr	r2, [sp, #12]
 8006994:	1a9b      	subs	r3, r3, r2
 8006996:	42ab      	cmp	r3, r5
 8006998:	dcf2      	bgt.n	8006980 <_printf_i+0x1e8>
 800699a:	e7eb      	b.n	8006974 <_printf_i+0x1dc>
 800699c:	2500      	movs	r5, #0
 800699e:	f104 0919 	add.w	r9, r4, #25
 80069a2:	e7f5      	b.n	8006990 <_printf_i+0x1f8>
 80069a4:	2b00      	cmp	r3, #0
 80069a6:	d1ac      	bne.n	8006902 <_printf_i+0x16a>
 80069a8:	7803      	ldrb	r3, [r0, #0]
 80069aa:	f104 0542 	add.w	r5, r4, #66	; 0x42
 80069ae:	f884 3042 	strb.w	r3, [r4, #66]	; 0x42
 80069b2:	e76c      	b.n	800688e <_printf_i+0xf6>
 80069b4:	08006e45 	.word	0x08006e45
 80069b8:	08006e56 	.word	0x08006e56

080069bc <memchr>:
 80069bc:	b510      	push	{r4, lr}
 80069be:	b2c9      	uxtb	r1, r1
 80069c0:	4402      	add	r2, r0
 80069c2:	4290      	cmp	r0, r2
 80069c4:	4603      	mov	r3, r0
 80069c6:	d101      	bne.n	80069cc <memchr+0x10>
 80069c8:	2300      	movs	r3, #0
 80069ca:	e003      	b.n	80069d4 <memchr+0x18>
 80069cc:	781c      	ldrb	r4, [r3, #0]
 80069ce:	3001      	adds	r0, #1
 80069d0:	428c      	cmp	r4, r1
 80069d2:	d1f6      	bne.n	80069c2 <memchr+0x6>
 80069d4:	4618      	mov	r0, r3
 80069d6:	bd10      	pop	{r4, pc}

080069d8 <memcpy>:
 80069d8:	b510      	push	{r4, lr}
 80069da:	1e43      	subs	r3, r0, #1
 80069dc:	440a      	add	r2, r1
 80069de:	4291      	cmp	r1, r2
 80069e0:	d100      	bne.n	80069e4 <memcpy+0xc>
 80069e2:	bd10      	pop	{r4, pc}
 80069e4:	f811 4b01 	ldrb.w	r4, [r1], #1
 80069e8:	f803 4f01 	strb.w	r4, [r3, #1]!
 80069ec:	e7f7      	b.n	80069de <memcpy+0x6>

080069ee <memmove>:
 80069ee:	4288      	cmp	r0, r1
 80069f0:	b510      	push	{r4, lr}
 80069f2:	eb01 0302 	add.w	r3, r1, r2
 80069f6:	d807      	bhi.n	8006a08 <memmove+0x1a>
 80069f8:	1e42      	subs	r2, r0, #1
 80069fa:	4299      	cmp	r1, r3
 80069fc:	d00a      	beq.n	8006a14 <memmove+0x26>
 80069fe:	f811 4b01 	ldrb.w	r4, [r1], #1
 8006a02:	f802 4f01 	strb.w	r4, [r2, #1]!
 8006a06:	e7f8      	b.n	80069fa <memmove+0xc>
 8006a08:	4283      	cmp	r3, r0
 8006a0a:	d9f5      	bls.n	80069f8 <memmove+0xa>
 8006a0c:	1881      	adds	r1, r0, r2
 8006a0e:	1ad2      	subs	r2, r2, r3
 8006a10:	42d3      	cmn	r3, r2
 8006a12:	d100      	bne.n	8006a16 <memmove+0x28>
 8006a14:	bd10      	pop	{r4, pc}
 8006a16:	f813 4d01 	ldrb.w	r4, [r3, #-1]!
 8006a1a:	f801 4d01 	strb.w	r4, [r1, #-1]!
 8006a1e:	e7f7      	b.n	8006a10 <memmove+0x22>

08006a20 <_free_r>:
 8006a20:	b538      	push	{r3, r4, r5, lr}
 8006a22:	4605      	mov	r5, r0
 8006a24:	2900      	cmp	r1, #0
 8006a26:	d043      	beq.n	8006ab0 <_free_r+0x90>
 8006a28:	f851 3c04 	ldr.w	r3, [r1, #-4]
 8006a2c:	1f0c      	subs	r4, r1, #4
 8006a2e:	2b00      	cmp	r3, #0
 8006a30:	bfb8      	it	lt
 8006a32:	18e4      	addlt	r4, r4, r3
 8006a34:	f000 f8d0 	bl	8006bd8 <__malloc_lock>
 8006a38:	4a1e      	ldr	r2, [pc, #120]	; (8006ab4 <_free_r+0x94>)
 8006a3a:	6813      	ldr	r3, [r2, #0]
 8006a3c:	4610      	mov	r0, r2
 8006a3e:	b933      	cbnz	r3, 8006a4e <_free_r+0x2e>
 8006a40:	6063      	str	r3, [r4, #4]
 8006a42:	6014      	str	r4, [r2, #0]
 8006a44:	4628      	mov	r0, r5
 8006a46:	e8bd 4038 	ldmia.w	sp!, {r3, r4, r5, lr}
 8006a4a:	f000 b8c6 	b.w	8006bda <__malloc_unlock>
 8006a4e:	42a3      	cmp	r3, r4
 8006a50:	d90b      	bls.n	8006a6a <_free_r+0x4a>
 8006a52:	6821      	ldr	r1, [r4, #0]
 8006a54:	1862      	adds	r2, r4, r1
 8006a56:	4293      	cmp	r3, r2
 8006a58:	bf01      	itttt	eq
 8006a5a:	681a      	ldreq	r2, [r3, #0]
 8006a5c:	685b      	ldreq	r3, [r3, #4]
 8006a5e:	1852      	addeq	r2, r2, r1
 8006a60:	6022      	streq	r2, [r4, #0]
 8006a62:	6063      	str	r3, [r4, #4]
 8006a64:	6004      	str	r4, [r0, #0]
 8006a66:	e7ed      	b.n	8006a44 <_free_r+0x24>
 8006a68:	4613      	mov	r3, r2
 8006a6a:	685a      	ldr	r2, [r3, #4]
 8006a6c:	b10a      	cbz	r2, 8006a72 <_free_r+0x52>
 8006a6e:	42a2      	cmp	r2, r4
 8006a70:	d9fa      	bls.n	8006a68 <_free_r+0x48>
 8006a72:	6819      	ldr	r1, [r3, #0]
 8006a74:	1858      	adds	r0, r3, r1
 8006a76:	42a0      	cmp	r0, r4
 8006a78:	d10b      	bne.n	8006a92 <_free_r+0x72>
 8006a7a:	6820      	ldr	r0, [r4, #0]
 8006a7c:	4401      	add	r1, r0
 8006a7e:	1858      	adds	r0, r3, r1
 8006a80:	4282      	cmp	r2, r0
 8006a82:	6019      	str	r1, [r3, #0]
 8006a84:	d1de      	bne.n	8006a44 <_free_r+0x24>
 8006a86:	6810      	ldr	r0, [r2, #0]
 8006a88:	6852      	ldr	r2, [r2, #4]
 8006a8a:	4401      	add	r1, r0
 8006a8c:	6019      	str	r1, [r3, #0]
 8006a8e:	605a      	str	r2, [r3, #4]
 8006a90:	e7d8      	b.n	8006a44 <_free_r+0x24>
 8006a92:	d902      	bls.n	8006a9a <_free_r+0x7a>
 8006a94:	230c      	movs	r3, #12
 8006a96:	602b      	str	r3, [r5, #0]
 8006a98:	e7d4      	b.n	8006a44 <_free_r+0x24>
 8006a9a:	6820      	ldr	r0, [r4, #0]
 8006a9c:	1821      	adds	r1, r4, r0
 8006a9e:	428a      	cmp	r2, r1
 8006aa0:	bf01      	itttt	eq
 8006aa2:	6811      	ldreq	r1, [r2, #0]
 8006aa4:	6852      	ldreq	r2, [r2, #4]
 8006aa6:	1809      	addeq	r1, r1, r0
 8006aa8:	6021      	streq	r1, [r4, #0]
 8006aaa:	6062      	str	r2, [r4, #4]
 8006aac:	605c      	str	r4, [r3, #4]
 8006aae:	e7c9      	b.n	8006a44 <_free_r+0x24>
 8006ab0:	bd38      	pop	{r3, r4, r5, pc}
 8006ab2:	bf00      	nop
 8006ab4:	20000148 	.word	0x20000148

08006ab8 <_malloc_r>:
 8006ab8:	b570      	push	{r4, r5, r6, lr}
 8006aba:	1ccd      	adds	r5, r1, #3
 8006abc:	f025 0503 	bic.w	r5, r5, #3
 8006ac0:	3508      	adds	r5, #8
 8006ac2:	2d0c      	cmp	r5, #12
 8006ac4:	bf38      	it	cc
 8006ac6:	250c      	movcc	r5, #12
 8006ac8:	2d00      	cmp	r5, #0
 8006aca:	4606      	mov	r6, r0
 8006acc:	db01      	blt.n	8006ad2 <_malloc_r+0x1a>
 8006ace:	42a9      	cmp	r1, r5
 8006ad0:	d903      	bls.n	8006ada <_malloc_r+0x22>
 8006ad2:	230c      	movs	r3, #12
 8006ad4:	6033      	str	r3, [r6, #0]
 8006ad6:	2000      	movs	r0, #0
 8006ad8:	bd70      	pop	{r4, r5, r6, pc}
 8006ada:	f000 f87d 	bl	8006bd8 <__malloc_lock>
 8006ade:	4a21      	ldr	r2, [pc, #132]	; (8006b64 <_malloc_r+0xac>)
 8006ae0:	6814      	ldr	r4, [r2, #0]
 8006ae2:	4621      	mov	r1, r4
 8006ae4:	b991      	cbnz	r1, 8006b0c <_malloc_r+0x54>
 8006ae6:	4c20      	ldr	r4, [pc, #128]	; (8006b68 <_malloc_r+0xb0>)
 8006ae8:	6823      	ldr	r3, [r4, #0]
 8006aea:	b91b      	cbnz	r3, 8006af4 <_malloc_r+0x3c>
 8006aec:	4630      	mov	r0, r6
 8006aee:	f000 f863 	bl	8006bb8 <_sbrk_r>
 8006af2:	6020      	str	r0, [r4, #0]
 8006af4:	4629      	mov	r1, r5
 8006af6:	4630      	mov	r0, r6
 8006af8:	f000 f85e 	bl	8006bb8 <_sbrk_r>
 8006afc:	1c43      	adds	r3, r0, #1
 8006afe:	d124      	bne.n	8006b4a <_malloc_r+0x92>
 8006b00:	230c      	movs	r3, #12
 8006b02:	4630      	mov	r0, r6
 8006b04:	6033      	str	r3, [r6, #0]
 8006b06:	f000 f868 	bl	8006bda <__malloc_unlock>
 8006b0a:	e7e4      	b.n	8006ad6 <_malloc_r+0x1e>
 8006b0c:	680b      	ldr	r3, [r1, #0]
 8006b0e:	1b5b      	subs	r3, r3, r5
 8006b10:	d418      	bmi.n	8006b44 <_malloc_r+0x8c>
 8006b12:	2b0b      	cmp	r3, #11
 8006b14:	d90f      	bls.n	8006b36 <_malloc_r+0x7e>
 8006b16:	600b      	str	r3, [r1, #0]
 8006b18:	18cc      	adds	r4, r1, r3
 8006b1a:	50cd      	str	r5, [r1, r3]
 8006b1c:	4630      	mov	r0, r6
 8006b1e:	f000 f85c 	bl	8006bda <__malloc_unlock>
 8006b22:	f104 000b 	add.w	r0, r4, #11
 8006b26:	1d23      	adds	r3, r4, #4
 8006b28:	f020 0007 	bic.w	r0, r0, #7
 8006b2c:	1ac3      	subs	r3, r0, r3
 8006b2e:	d0d3      	beq.n	8006ad8 <_malloc_r+0x20>
 8006b30:	425a      	negs	r2, r3
 8006b32:	50e2      	str	r2, [r4, r3]
 8006b34:	e7d0      	b.n	8006ad8 <_malloc_r+0x20>
 8006b36:	684b      	ldr	r3, [r1, #4]
 8006b38:	428c      	cmp	r4, r1
 8006b3a:	bf16      	itet	ne
 8006b3c:	6063      	strne	r3, [r4, #4]
 8006b3e:	6013      	streq	r3, [r2, #0]
 8006b40:	460c      	movne	r4, r1
 8006b42:	e7eb      	b.n	8006b1c <_malloc_r+0x64>
 8006b44:	460c      	mov	r4, r1
 8006b46:	6849      	ldr	r1, [r1, #4]
 8006b48:	e7cc      	b.n	8006ae4 <_malloc_r+0x2c>
 8006b4a:	1cc4      	adds	r4, r0, #3
 8006b4c:	f024 0403 	bic.w	r4, r4, #3
 8006b50:	42a0      	cmp	r0, r4
 8006b52:	d005      	beq.n	8006b60 <_malloc_r+0xa8>
 8006b54:	1a21      	subs	r1, r4, r0
 8006b56:	4630      	mov	r0, r6
 8006b58:	f000 f82e 	bl	8006bb8 <_sbrk_r>
 8006b5c:	3001      	adds	r0, #1
 8006b5e:	d0cf      	beq.n	8006b00 <_malloc_r+0x48>
 8006b60:	6025      	str	r5, [r4, #0]
 8006b62:	e7db      	b.n	8006b1c <_malloc_r+0x64>
 8006b64:	20000148 	.word	0x20000148
 8006b68:	2000014c 	.word	0x2000014c

08006b6c <_realloc_r>:
 8006b6c:	b5f8      	push	{r3, r4, r5, r6, r7, lr}
 8006b6e:	4607      	mov	r7, r0
 8006b70:	4614      	mov	r4, r2
 8006b72:	460e      	mov	r6, r1
 8006b74:	b921      	cbnz	r1, 8006b80 <_realloc_r+0x14>
 8006b76:	e8bd 40f8 	ldmia.w	sp!, {r3, r4, r5, r6, r7, lr}
 8006b7a:	4611      	mov	r1, r2
 8006b7c:	f7ff bf9c 	b.w	8006ab8 <_malloc_r>
 8006b80:	b922      	cbnz	r2, 8006b8c <_realloc_r+0x20>
 8006b82:	f7ff ff4d 	bl	8006a20 <_free_r>
 8006b86:	4625      	mov	r5, r4
 8006b88:	4628      	mov	r0, r5
 8006b8a:	bdf8      	pop	{r3, r4, r5, r6, r7, pc}
 8006b8c:	f000 f826 	bl	8006bdc <_malloc_usable_size_r>
 8006b90:	42a0      	cmp	r0, r4
 8006b92:	d20f      	bcs.n	8006bb4 <_realloc_r+0x48>
 8006b94:	4621      	mov	r1, r4
 8006b96:	4638      	mov	r0, r7
 8006b98:	f7ff ff8e 	bl	8006ab8 <_malloc_r>
 8006b9c:	4605      	mov	r5, r0
 8006b9e:	2800      	cmp	r0, #0
 8006ba0:	d0f2      	beq.n	8006b88 <_realloc_r+0x1c>
 8006ba2:	4631      	mov	r1, r6
 8006ba4:	4622      	mov	r2, r4
 8006ba6:	f7ff ff17 	bl	80069d8 <memcpy>
 8006baa:	4631      	mov	r1, r6
 8006bac:	4638      	mov	r0, r7
 8006bae:	f7ff ff37 	bl	8006a20 <_free_r>
 8006bb2:	e7e9      	b.n	8006b88 <_realloc_r+0x1c>
 8006bb4:	4635      	mov	r5, r6
 8006bb6:	e7e7      	b.n	8006b88 <_realloc_r+0x1c>

08006bb8 <_sbrk_r>:
 8006bb8:	b538      	push	{r3, r4, r5, lr}
 8006bba:	2300      	movs	r3, #0
 8006bbc:	4c05      	ldr	r4, [pc, #20]	; (8006bd4 <_sbrk_r+0x1c>)
 8006bbe:	4605      	mov	r5, r0
 8006bc0:	4608      	mov	r0, r1
 8006bc2:	6023      	str	r3, [r4, #0]
 8006bc4:	f7fb fe70 	bl	80028a8 <_sbrk>
 8006bc8:	1c43      	adds	r3, r0, #1
 8006bca:	d102      	bne.n	8006bd2 <_sbrk_r+0x1a>
 8006bcc:	6823      	ldr	r3, [r4, #0]
 8006bce:	b103      	cbz	r3, 8006bd2 <_sbrk_r+0x1a>
 8006bd0:	602b      	str	r3, [r5, #0]
 8006bd2:	bd38      	pop	{r3, r4, r5, pc}
 8006bd4:	2000074c 	.word	0x2000074c

08006bd8 <__malloc_lock>:
 8006bd8:	4770      	bx	lr

08006bda <__malloc_unlock>:
 8006bda:	4770      	bx	lr

08006bdc <_malloc_usable_size_r>:
 8006bdc:	f851 3c04 	ldr.w	r3, [r1, #-4]
 8006be0:	1f18      	subs	r0, r3, #4
 8006be2:	2b00      	cmp	r3, #0
 8006be4:	bfbc      	itt	lt
 8006be6:	580b      	ldrlt	r3, [r1, r0]
 8006be8:	18c0      	addlt	r0, r0, r3
 8006bea:	4770      	bx	lr

08006bec <_init>:
 8006bec:	b5f8      	push	{r3, r4, r5, r6, r7, lr}
 8006bee:	bf00      	nop
 8006bf0:	bcf8      	pop	{r3, r4, r5, r6, r7}
 8006bf2:	bc08      	pop	{r3}
 8006bf4:	469e      	mov	lr, r3
 8006bf6:	4770      	bx	lr

08006bf8 <_fini>:
 8006bf8:	b5f8      	push	{r3, r4, r5, r6, r7, lr}
 8006bfa:	bf00      	nop
 8006bfc:	bcf8      	pop	{r3, r4, r5, r6, r7}
 8006bfe:	bc08      	pop	{r3}
 8006c00:	469e      	mov	lr, r3
 8006c02:	4770      	bx	lr
